(lp0
(lp1
(Vn't
p2
S'RB'
p3
tp4
a(Vcuz
p5
S'VB'
p6
tp7
aa(lp8
(Vvery
p9
S'JJ'
p10
tp11
a(Vannoying
p12
S'NN'
p13
tp14
aa(lp15
(Vthen
p16
g3
tp17
a(Vexit
p18
g6
tp19
aa(lp20
(Vonly
p21
g3
tp22
a(Vtake
p23
g6
tp24
aa(lp25
(Vnot
p26
g3
tp27
a(Vlet
p28
g6
tp29
aa(lp30
(Vvery
p31
g3
tp32
a(Vgood
p33
g10
tp34
aa(lp35
(Vprevious
p36
g10
tp37
a(Vgames
p38
S'NNS'
p39
tp40
aa(lp41
(Vn't
p42
g3
tp43
a(Vbeat
p44
g6
tp45
aa(lp46
(Vvery
p47
g3
tp48
a(Vfun
p49
S'VBN'
p50
tp51
aa(lp52
(Vn't
p53
g3
tp54
a(Vcuz
p55
g6
tp56
aa(lp57
(Vvery
p58
g10
tp59
a(Vannoying
p60
g13
tp61
aa(lp62
(Vthen
p63
g3
tp64
a(Vexit
p65
g6
tp66
aa(lp67
(Vonly
p68
g3
tp69
a(Vtake
p70
g6
tp71
aa(lp72
(Vnot
p73
g3
tp74
a(Vlet
p75
g6
tp76
aa(lp77
(Vvery
p78
g3
tp79
a(Vgood
p80
g10
tp81
aa(lp82
(Vprevious
p83
g10
tp84
a(Vgames
p85
g39
tp86
aa(lp87
(Vn't
p88
g3
tp89
a(Vbeat
p90
g6
tp91
aa(lp92
(Vvery
p93
g3
tp94
a(Vfun
p95
g50
tp96
aa(lp97
(Vpretty
p98
g3
tp99
a(Vfreaking
p100
S'VBG'
p101
tp102
aa(lp103
(Vsomething
p104
g13
tp105
a(Vnew
p106
g10
tp107
aa(lp108
(VReally
p109
g3
tp110
a(Vloving
p111
g101
tp112
aa(lp113
(Vangry
p114
g10
tp115
a(Vbirds
p116
g39
tp117
aa(lp118
(Veventually
p119
g3
tp120
a(Vgot
p121
S'VBD'
p122
tp123
aa(lp124
(Vnext
p125
g10
tp126
a(Vupdate
p127
g13
tp128
aa(lp129
(Vgood
p130
g10
tp131
a(Vangry
p132
g13
tp133
aa(lp134
(Vlast
p135
g10
tp136
a(Vupdate
p137
g13
tp138
aa(lp139
(Vsame
p140
g10
tp141
a(Vresult
p142
g13
tp143
aa(lp144
(Vmost
p145
S'RBS'
p146
tp147
a(Vinteresting
p148
g10
tp149
aa(lp150
(Vstill
p151
g3
tp152
a(Vawful
p153
g10
tp154
aa(lp155
(Vlow
p156
g10
tp157
a(Vrate
p158
g13
tp159
aa(lp160
(Vn't
p161
g3
tp162
a(Vplay
p163
g6
tp164
aa(lp165
(Vreluctantly
p166
g3
tp167
a(Vspent
p168
g122
tp169
aa(lp170
(Vnever
p171
g3
tp172
a(Vgot
p173
g122
tp174
aa(lp175
(Vvery
p176
g3
tp177
a(Vaddictive
p178
g10
tp179
aa(lp180
(Vvery
p181
g3
tp182
a(Vfun
p183
g10
tp184
aa(lp185
(Vclassic
p186
g10
tp187
a(Vcharacters
p188
g39
tp189
aa(lp190
(Vn't
p191
g3
tp192
a(Vhave
p193
g6
tp194
aa(lp195
(VReally
p196
g3
tp197
a(Vfun
p198
g50
tp199
aa(lp200
(Ventertaining
p201
g10
tp202
a(Vgame
p203
g13
tp204
aa(lp205
(Vn't
p206
g3
tp207
a(Vget
p208
g6
tp209
aa(lp210
(Vangry
p211
g10
tp212
a(Vbirds
p213
g39
tp214
aa(lp215
(Vnot
p216
g3
tp217
a(Vusing
p218
g101
tp219
aa(lp220
(Vnext
p221
g10
tp222
a(Vangry
p223
g13
tp224
aa(lp225
(Vangry
p226
g10
tp227
a(Vbirds
p228
g39
tp229
aa(lp230
(Vtoo
p231
g3
tp232
a(Vbig
p233
g10
tp234
aa(lp235
(Vvery
p236
g3
tp237
a(Vcute
p238
g10
tp239
aa(lp240
(Vvarious
p241
g10
tp242
a(Vfeatures
p243
g39
tp244
aa(lp245
(Vbig
p246
g10
tp247
a(Vboss
p248
g13
tp249
aa(lp250
(Vdarth
p251
g10
tp252
a(Vpig
p253
g13
tp254
aa(lp255
(Vfunny
p256
g10
tp257
a(Vstar
p258
g13
tp259
aa(lp260
(Vmany
p261
g10
tp262
a(Vfresh
p263
g10
tp264
aa(lp265
(Venjoyable
p266
g10
tp267
a(Videas
p268
g39
tp269
aa(lp270
(Vreally
p271
g3
tp272
a(Vexcited
p273
g50
tp274
aa(lp275
(Veven
p276
g3
tp277
a(Vload
p278
g6
tp279
aa(lp280
(Vn't
p281
g3
tp282
a(Vplay
p283
g6
tp284
aa(lp285
(Vn't
p286
g3
tp287
a(Vshow
p288
g6
tp289
aa(lp290
(Vaboslutly
p291
g3
tp292
a(Vamazing
p293
g101
tp294
aa(lp295
(Vlittle
p296
g3
tp297
a(Vanoying
p298
g101
tp299
aa(lp300
(Voverall
p301
g10
tp302
a(Vgreat
p303
g10
tp304
aa(lp305
(Vn't
p306
g3
tp307
a(Vgon
p308
g6
tp309
aa(lp310
(VNOT
p311
g3
tp312
a(Vdisappointed
p313
g50
tp314
aa(lp315
(Vhuge
p316
g10
tp317
a(Vhelp
p318
g13
tp319
aa(lp320
(Vn't
p321
g3
tp322
a(Vunlock
p323
g6
tp324
aa(lp325
(Valso
p326
g3
tp327
a(Vhappened
p328
g122
tp329
aa(lp330
(Vgood
p331
g10
tp332
a(Vgame
p333
g13
tp334
aa(lp335
(Vpretty
p336
g3
tp337
a(Vsweet
p338
g10
tp339
aa(lp340
(Voriginal
p341
g10
tp342
a(Vangry
p343
g13
tp344
aa(lp345
(Vangry
p346
g10
tp347
a(Vbird
p348
g13
tp349
aa(lp350
(Vsame
p351
g10
tp352
a(Vthing
p353
g13
tp354
aa(lp355
(Vnot
p356
g3
tp357
a(Vworking
p358
g101
tp359
aa(lp360
(Vblack
p361
g10
tp362
a(Vscreen
p363
g13
tp364
aa(lp365
(Vn't
p366
g3
tp367
a(Vexist
p368
g6
tp369
aa(lp370
(VAbsolutely
p371
g3
tp372
a(Vamazing
p373
g101
tp374
aa(lp375
(Vn't
p376
g3
tp377
a(Vopen
p378
g6
tp379
aa(lp380
(V.I
p381
g10
tp382
a(Vneeeeed
p383
g13
tp384
aa(lp385
(Vangry
p386
g10
tp387
a(Vbirds
p388
g39
tp389
aa(lp390
(Vnot
p391
g3
tp392
a(Vwork
p393
g6
tp394
aa(lp395
(Vnot
p396
g3
tp397
a(Vdownload
p398
g6
tp399
aa(lp400
(Vhardly
p401
g3
tp402
a(Vget
p403
g6
tp404
aa(lp405
(Vnew
p406
g10
tp407
a(Vupdate
p408
g13
tp409
aa(lp410
(Vblack
p411
g10
tp412
a(Vsquares
p413
g39
tp414
aa(lp415
(Vactual
p416
g10
tp417
a(Vgraphics
p418
g39
tp419
aa(lp420
(Vn't
p421
g3
tp422
a(Vsay
p423
g6
tp424
aa(lp425
(Venough
p426
g10
tp427
a(Vgood
p428
g10
tp429
aa(lp430
g429
a(Vthings
p431
g39
tp432
aa(lp433
(Vn't
p434
g3
tp435
a(Vwant
p436
g6
tp437
aa(lp438
(Vvery
p439
g3
tp440
a(Vstrategic
p441
g10
tp442
aa(lp443
g442
a(Vturn
p444
g13
tp445
aa(lp446
(Vonly
p447
g3
tp448
a(Vthrilled
p449
g50
tp450
aa(lp451
(Vyoung
p452
g10
tp453
a(Vones
p454
g39
tp455
aa(lp456
(Vvery
p457
g3
tp458
a(Vintuitive
p459
g10
tp460
aa(lp461
(Vrandomly
p462
g3
tp463
a(Vhave
p464
g6
tp465
aa(lp466
(Ventire
p467
g10
tp468
a(Vlevel
p469
g13
tp470
aa(lp471
(Vonly
p472
g3
tp473
a(Vshot
p474
g10
tp475
aa(lp476
(Vn't
p477
g3
tp478
a(Vthink
p479
g6
tp480
aa(lp481
(Vstill
p482
g3
tp483
a(Vbe
p484
g6
tp485
aa(lp486
(Vmuch
p487
g3
tp488
a(Vfun
p489
g50
tp490
aa(lp491
(Vgreat
p492
g10
tp493
a(Vfun
p494
g13
tp495
aa(lp496
(Vn't
p497
g3
tp498
a(Vgo
p499
g6
tp500
aa(lp501
(Vreally
p502
g3
tp503
a(Vdid
p504
g122
tp505
aa(lp506
(Vso
p507
g3
tp508
a(VAMAZING
p509
g101
tp510
aa(lp511
(Vn't
p512
g3
tp513
a(Vdownload
p514
g6
tp515
aa(lp516
(Vn't
p517
g3
tp518
a(Vwork
p519
g6
tp520
aa(lp521
(Vangry
p522
g10
tp523
a(Vbirds
p524
g39
tp525
aa(lp526
(Vjust
p527
g3
tp528
a(Vgot
p529
g122
tp530
aa(lp531
(Vangry
p532
g10
tp533
a(Vbirds
p534
g39
tp535
aa(lp536
(Vfresh
p537
g10
tp538
a(V'another
p539
g10
tp540
aa(lp541
(Vfresh
p542
g10
tp543
a(Vtake
p544
g13
tp545
aa(lp546
(VReally
p547
g3
tp548
a(Vfun
p549
g50
tp550
aa(lp551
(Vnew
p552
g10
tp553
a(Vtheme
p554
g13
tp555
aa(lp556
(Vexciting
p557
g10
tp558
a(Vnew
p559
g10
tp560
aa(lp561
g560
a(Vabilities
p562
g39
tp563
aa(lp564
(Vn't
p565
g3
tp566
a(Vstop
p567
g6
tp568
aa(lp569
(VBrilliant
p570
g10
tp571
a(Vgameplay
p572
g13
tp573
aa(lp574
(Vwell
p575
g3
tp576
a(Vintergrated
p577
g50
tp578
aa(lp579
(Vn't
p580
g3
tp581
a(Vknow
p582
g6
tp583
aa(lp584
(Vlast
p585
g10
tp586
a(Vangry
p587
g13
tp588
aa(lp589
(Vever
p590
g3
tp591
a(Vbe
p592
g6
tp593
aa(lp594
(Vmobile
p595
g10
tp596
a(Vgame
p597
g13
tp598
aa(lp599
(Vnew
p600
g10
tp601
a(Vlevels
p602
g39
tp603
aa(lp604
(Vinternal
p605
g10
tp606
a(Vmemory
p607
g13
tp608
aa(lp609
(Vdownload
p610
g10
tp611
a(Vangry
p612
g13
tp613
aa(lp614
(Voriginal
p615
g10
tp616
a(Vangry
p617
g13
tp618
aa(lp619
(Vunlockable
p620
g10
tp621
a(Varea
p622
g13
tp623
aa(lp624
(Vnot
p625
g3
tp626
a(Vaccess
p627
g6
tp628
aa(lp629
(Vn't
p630
g3
tp631
a(Vknow
p632
g6
tp633
aa(lp634
(Vextra
p635
g10
tp636
a(Vmissions
p637
g39
tp638
aa(lp639
(Vnot
p640
g3
tp641
a(Vget
p642
g6
tp643
aa(lp644
(Vextra
p645
g10
tp646
a(Vlevels
p647
g39
tp648
aa(lp649
(Vjust
p650
g3
tp651
a(Vrocking
p652
g101
tp653
aa(lp654
(Vfinally
p655
g3
tp656
a(Vchanged
p657
g122
tp658
aa(lp659
(Vnormal
p660
g10
tp661
a(Vsized
p662
g10
tp663
aa(lp664
(Vso
p665
g3
tp666
a(Vintrusive
p667
g10
tp668
aa(lp669
(Vn't
p670
g3
tp671
a(Vfinish
p672
g6
tp673
aa(lp674
(Vvisually
p675
g3
tp676
a(Vnoisy
p677
g10
tp678
aa(lp679
g678
a(Vad
p680
g13
tp681
aa(lp682
(Vnot
p683
g3
tp684
a(Vbe
p685
g6
tp686
aa(lp687
(Vbad
p688
g10
tp689
a(Vpiggies
p690
g39
tp691
aa(lp692
(Vvery
p693
g3
tp694
a(Vaddictive
p695
g10
tp696
aa(lp697
(Vn't
p698
g3
tp699
a(Vstop
p700
g6
tp701
aa(lp702
(Vnot
p703
g3
tp704
a(Vallowing
p705
g101
tp706
aa(lp707
(Vdefinitely
p708
g3
tp709
a(Vbe
p710
g6
tp711
aa(lp712
(Vmany
p713
g10
tp714
a(Vothers
p715
g39
tp716
aa(lp717
(Vother
p718
g10
tp719
a(Vlevel
p720
g13
tp721
aa(lp722
(Vnot
p723
g3
tp724
a(Vgain
p725
g6
tp726
aa(lp727
(VNot
p728
g3
tp729
a(Vmany
p730
g10
tp731
aa(lp732
(Vreally
p733
g3
tp734
a(Vdifferent
p735
g10
tp736
aa(lp737
(Vgreen
p738
g10
tp739
a(Vlight
p740
g13
tp741
aa(lp742
(Vn't
p743
g3
tp744
a(Vever
p745
g6
tp746
aa(lp747
(Vtime
p748
g13
tp749
a(Vgreat
p750
g10
tp751
aa(lp752
(Vn't
p753
g3
tp754
a(Vhave
p755
g6
tp756
aa(lp757
(Venough
p758
g10
tp759
a(Vspace
p760
g13
tp761
aa(lp762
(Vnew
p763
g10
tp764
a(Vangry
p765
g13
tp766
aa(lp767
(Vthen
p768
g3
tp769
a(Vreload
p770
g6
tp771
aa(lp772
(Vlast
p773
g10
tp774
a(Vapp
p775
g13
tp776
aa(lp777
(Valso
p778
g3
tp779
a(Vtask
p780
g6
tp781
aa(lp782
(Vtotally
p783
g3
tp784
a(Vmessed
p785
g122
tp786
aa(lp787
(Vreally
p788
g3
tp789
a(Vupset
p790
g50
tp791
aa(lp792
(Vinnovative
p793
g10
tp794
a(Vtheme
p795
g13
tp796
aa(lp797
(Voriginal
p798
g10
tp799
a(Vbird-slinging
p800
g10
tp801
aa(lp802
g801
a(Vgame
p803
g13
tp804
aa(lp805
(Vnew
p806
g10
tp807
a(Vpowers
p808
g39
tp809
aa(lp810
(Vcriminal
p811
g10
tp812
a(Voffence
p813
g13
tp814
aa(lp815
(VC'mon
p816
g10
tp817
a(Vstar
p818
g13
tp819
aa(lp820
(Vangry
p821
g10
tp822
a(Vbirds
p823
g39
tp824
aa(lp825
(Vwhole
p826
g10
tp827
a(Vnutha
p828
g13
tp829
aa(lp830
(Vso
p831
g3
tp832
a(Vstop
p833
g6
tp834
aa(lp835
(Vnot
p836
g3
tp837
a(Vhave
p838
g6
tp839
aa(lp840
(Vbig
p841
g10
tp842
a(Vfan
p843
g13
tp844
aa(lp845
(Vquite
p846
g3
tp847
a(Vgood
p848
g10
tp849
aa(lp850
(Vso
p851
g3
tp852
a(Vyeah
p853
g10
tp854
aa(lp855
(Vdefinitely
p856
g3
tp857
a(Vworth
p858
g10
tp859
aa(lp860
(VDefinitely
p861
g3
tp862
a(Vworth
p863
g10
tp864
aa(lp865
(Vother
p866
g10
tp867
a(Vangry
p868
g13
tp869
aa(lp870
(Vyears
p871
g39
tp872
a(Vold
p873
g10
tp874
aa(lp875
(Vjust
p876
g3
tp877
a(Vdosent
p878
g10
tp879
aa(lp880
g879
a(Vfeel
p881
g13
tp882
aa(lp883
(Vblack
p884
g10
tp885
a(Vbird
p886
g13
tp887
aa(lp888
(Vgreat
p889
g10
tp890
a(Vgame
p891
g13
tp892
aa(lp893
(Vangry
p894
g10
tp895
a(Vbirds
p896
g39
tp897
aa(lp898
(VNOT
p899
g3
tp900
a(VBE
p901
g6
tp902
aa(lp903
(Vn't
p904
g3
tp905
a(Vlike
p906
g6
tp907
aa(lp908
(Vnow
p909
g3
tp910
a(Vplastering
p911
g101
tp912
aa(lp913
(Vnew
p914
g10
tp915
a(Vgames
p916
g39
tp917
aa(lp918
(Vother
p919
g10
tp920
a(Vversions
p921
g39
tp922
aa(lp923
(Vangry
p924
g10
tp925
a(Vbirds
p926
g39
tp927
aa(lp928
(Veven
p929
g3
tp930
a(Vupdating
p931
g101
tp932
aa(lp933
(Vonly
p934
g3
tp935
a(Vintrusive
p936
g10
tp937
aa(lp938
(Vrather
p939
g3
tp940
a(Vuse
p941
g6
tp942
aa(lp943
(Vpretty
p944
g3
tp945
a(Vboring
p946
g101
tp947
aa(lp948
(Vsimply
p949
g3
tp950
a(Vgoing
p951
g101
tp952
aa(lp953
(Vn't
p954
g3
tp955
a(Vget
p956
g6
tp957
aa(lp958
(Vnow
p959
g3
tp960
a(Vbeing
p961
g101
tp962
aa(lp963
(Vn't
p964
g3
tp965
a(Vclose
p966
g10
tp967
aa(lp968
(Val
p969
g10
tp970
a(Vcomes
p971
g39
tp972
aa(lp973
(Vgreat
p974
g10
tp975
a(Vgame
p976
g13
tp977
aa(lp978
(Vother
p979
g10
tp980
a(Vlevels
p981
g39
tp982
aa(lp983
(Vlovable
p984
g10
tp985
a(Vgame
p986
g13
tp987
aa(lp988
(Vmore
p989
S'RBR'
p990
tp991
a(Vfun
p992
g10
tp993
aa(lp994
(Vother
p995
g10
tp996
a(Vangry
p997
g13
tp998
aa(lp999
(Vnot
p1000
g3
tp1001
a(Vwork
p1002
g6
tp1003
aa(lp1004
(VJust
p1005
g3
tp1006
a(Vupdated
p1007
g50
tp1008
aa(lp1009
(Vnew
p1010
g10
tp1011
a(Vlevels
p1012
g39
tp1013
aa(lp1014
(VJust
p1015
g3
tp1016
a(Vcurious
p1017
g10
tp1018
aa(lp1019
(Vcant
p1020
g10
tp1021
a(Vinstall
p1022
g13
tp1023
aa(lp1024
(Vnot
p1025
g3
tp1026
a(Vable
p1027
g10
tp1028
aa(lp1029
(Vn't
p1030
g3
tp1031
a(Vget
p1032
g6
tp1033
aa(lp1034
(Valways
p1035
g3
tp1036
a(Vliked
p1037
g122
tp1038
aa(lp1039
(Vtotally
p1040
g3
tp1041
a(Vaddictive
p1042
g10
tp1043
aa(lp1044
(Vangry
p1045
g10
tp1046
a(Vbirds
p1047
g39
tp1048
aa(lp1049
(Vreally
p1050
g3
tp1051
a(Vgreat
p1052
g10
tp1053
aa(lp1054
g1053
a(Vgame
p1055
g13
tp1056
aa(lp1057
(Vwell
p1058
g3
tp1059
a(Vworth
p1060
g10
tp1061
aa(lp1062
(Vonly
p1063
g3
tp1064
a(Vwant
p1065
g6
tp1066
aa(lp1067
(Voriginal
p1068
g10
tp1069
a(Vtrilogy
p1070
g13
tp1071
aa(lp1072
(Vsuper-duper
p1073
g10
tp1074
a(Vlightsaber
p1075
g13
tp1076
aa(lp1077
(Vfavorite
p1078
g10
tp1079
a(Vangry
p1080
g13
tp1081
aa(lp1082
(V.must
p1083
g10
tp1084
a(Vplay
p1085
g13
tp1086
aa(lp1087
(Vjust
p1088
g3
tp1089
a(Vcompleted
p1090
g122
tp1091
aa(lp1092
(Vnot
p1093
g3
tp1094
a(Vopened
p1095
g50
tp1096
aa(lp1097
(Vangry
p1098
g10
tp1099
a(Vbirds
p1100
g39
tp1101
aa(lp1102
(Vlight
p1103
g10
tp1104
a(Vsabers
p1105
g39
tp1106
aa(lp1107
(Vseveral
p1108
g10
tp1109
a(Vtimes
p1110
g39
tp1111
aa(lp1112
(Vn't
p1113
g3
tp1114
a(Vload
p1115
g6
tp1116
aa(lp1117
(Vgreat
p1118
g10
tp1119
a(Vfun
p1120
g13
tp1121
aa(lp1122
(Vn't
p1123
g3
tp1124
a(Vdowlond
p1125
g6
tp1126
aa(lp1127
(Vn't
p1128
g3
tp1129
a(Vdowlond
p1130
g6
tp1131
aa(lp1132
(Vjust
p1133
g3
tp1134
a(Vdid
p1135
g122
tp1136
aa(lp1137
(Vfirst
p1138
g10
tp1139
a(Vbit
p1140
g13
tp1141
aa(lp1142
(Vlong
p1143
g10
tp1144
a(Vtime
p1145
g13
tp1146
aa(lp1147
(Vso
p1148
g3
tp1149
a(Vgood
p1150
g10
tp1151
aa(lp1152
g1151
a(Vapp
p1153
g13
tp1154
aa(lp1155
(Vn't
p1156
g3
tp1157
a(Vrate
p1158
g6
tp1159
aa(lp1160
(Vn't
p1161
g3
tp1162
a(Vplay
p1163
g6
tp1164
aa(lp1165
(Vangry
p1166
g10
tp1167
a(Vbirds
p1168
g39
tp1169
aa(lp1170
(Vnot
p1171
g3
tp1172
a(Vnecessary
p1173
g10
tp1174
aa(lp1175
(Vvery
p1176
g3
tp1177
a(Vfun
p1178
g10
tp1179
aa(lp1180
(Vnever
p1181
g3
tp1182
a(Vdid
p1183
g122
tp1184
aa(lp1185
(Vthere
p1186
g3
tp1187
a(Vwas
p1188
g122
tp1189
aa(lp1190
(Vnot
p1191
g3
tp1192
a(Vrefuse
p1193
g6
tp1194
aa(lp1195
(Vn't
p1196
g3
tp1197
a(Vwait
p1198
g6
tp1199
aa(lp1200
(Vmore
p1201
g990
tp1202
a(Vstar
p1203
g10
tp1204
aa(lp1205
g1204
a(Vwars
p1206
g39
tp1207
aa(lp1208
(Vwonderful
p1209
g10
tp1210
a(Vabilities
p1211
g39
tp1212
aa(lp1213
(Vonly
p1214
g10
tp1215
a(Vdisappointing
p1216
g10
tp1217
aa(lp1218
g1217
a(Vfactor
p1219
g13
tp1220
aa(lp1221
(Vtrue
p1222
g10
tp1223
a(Vstart
p1224
g13
tp1225
aa(lp1226
(Vreally
p1227
g3
tp1228
a(Vappreciate
p1229
g10
tp1230
aa(lp1231
(Vwhole
p1232
g10
tp1233
a(Vfamily
p1234
g13
tp1235
aa(lp1236
(Vvery
p1237
g3
tp1238
a(Vfair
p1239
g10
tp1240
aa(lp1241
(Vn't
p1242
g3
tp1243
a(Vhave
p1244
g6
tp1245
aa(lp1246
(Vgood
p1247
g10
tp1248
a(Vtime
p1249
g13
tp1250
aa(lp1251
(Vn't
p1252
g3
tp1253
a(Vmake
p1254
g6
tp1255
aa(lp1256
(Voriginal
p1257
g10
tp1258
a(Vangry
p1259
g13
tp1260
aa(lp1261
(Vincredible
p1262
g10
tp1263
a(Vlittle
p1264
g13
tp1265
aa(lp1266
(Vepic
p1267
g10
tp1268
a(Vintegalactic
p1269
g10
tp1270
aa(lp1271
(Vcomplete
p1272
g10
tp1273
a(Vepisode
p1274
g13
tp1275
aa(lp1276
(Vvery
p1277
g3
tp1278
a(Vgood
p1279
g10
tp1280
aa(lp1281
(Vlast
p1282
g10
tp1283
a(Vupdate
p1284
g13
tp1285
aa(lp1286
(Vvery
p1287
g3
tp1288
a(Vmuch
p1289
g10
tp1290
aa(lp1291
(Vnot
p1292
g3
tp1293
a(Vget
p1294
g6
tp1295
aa(lp1296
(Vplay
p1297
g13
tp1298
a(Vother
p1299
g10
tp1300
aa(lp1301
g1300
a(Vlevels
p1302
g39
tp1303
aa(lp1304
(Vrich
p1305
g10
tp1306
a(Venough
p1307
g10
tp1308
aa(lp1309
g1308
a(Vcome
p1310
g13
tp1311
aa(lp1312
(Vperfect
p1313
g10
tp1314
a(Vstar
p1315
g13
tp1316
aa(lp1317
(Vangry
p1318
g10
tp1319
a(Vbirds
p1320
g39
tp1321
aa(lp1322
(Vvery
p1323
g3
tp1324
a(Vgood
p1325
g10
tp1326
aa(lp1327
(Vlast
p1328
g10
tp1329
a(Vupdate
p1330
g13
tp1331
aa(lp1332
(Vplay
p1333
g13
tp1334
a(Vother
p1335
g10
tp1336
aa(lp1337
g1336
a(Vlevels
p1338
g39
tp1339
aa(lp1340
(Vrich
p1341
g10
tp1342
a(Venough
p1343
g10
tp1344
aa(lp1345
g1344
a(Vcome
p1346
g13
tp1347
aa(lp1348
(Vnot
p1349
g3
tp1350
a(Vget
p1351
g6
tp1352
aa(lp1353
(Vnot
p1354
g3
tp1355
a(Vopen
p1356
g6
tp1357
aa(lp1358
(Vsecond
p1359
g10
tp1360
a(Vtime
p1361
g13
tp1362
aa(lp1363
(Vnext
p1364
g10
tp1365
a(Vplanet
p1366
g13
tp1367
aa(lp1368
(Vactually
p1369
g3
tp1370
a(Vpay
p1371
g6
tp1372
aa(lp1373
(Vown
p1374
g10
tp1375
a(Vlevels
p1376
g39
tp1377
aa(lp1378
(Vown
p1379
g10
tp1380
a(Vfort
p1381
g13
tp1382
aa(lp1383
(Vnot
p1384
g3
tp1385
a(Vopen
p1386
g6
tp1387
aa(lp1388
(Vsecond
p1389
g10
tp1390
a(Vtime
p1391
g13
tp1392
aa(lp1393
(Vnext
p1394
g10
tp1395
a(Vlevel
p1396
g13
tp1397
aa(lp1398
(Vnot
p1399
g3
tp1400
a(Vunlock
p1401
g6
tp1402
aa(lp1403
(Vnext
p1404
g10
tp1405
a(Vplanet
p1406
g13
tp1407
aa(lp1408
(Vactually
p1409
g3
tp1410
a(Vpay
p1411
g6
tp1412
aa(lp1413
(Vown
p1414
g10
tp1415
a(Vlevels
p1416
g39
tp1417
aa(lp1418
(Vown
p1419
g10
tp1420
a(Vfort
p1421
g13
tp1422
aa(lp1423
(Vjust
p1424
g3
tp1425
a(Vplain
p1426
g6
tp1427
aa(lp1428
(Veven
p1429
g3
tp1430
a(Vopen
p1431
g10
tp1432
aa(lp1433
(Vnot
p1434
g3
tp1435
a(Vopen
p1436
g6
tp1437
aa(lp1438
(Vsecond
p1439
g10
tp1440
a(Vtime
p1441
g13
tp1442
aa(lp1443
(Vnext
p1444
g10
tp1445
a(Vlevel
p1446
g13
tp1447
aa(lp1448
(Vnot
p1449
g3
tp1450
a(Vunlock
p1451
g6
tp1452
aa(lp1453
(Vnext
p1454
g10
tp1455
a(Vplanet
p1456
g13
tp1457
aa(lp1458
(Vjust
p1459
g3
tp1460
a(Vplain
p1461
g6
tp1462
aa(lp1463
(Veven
p1464
g3
tp1465
a(Vopen
p1466
g10
tp1467
aa(lp1468
(Veven
p1469
g3
tp1470
a(Vopen
p1471
g10
tp1472
aa(lp1473
(Vnot
p1474
g3
tp1475
a(Vgood
p1476
g10
tp1477
aa(lp1478
g1477
a(Vfreezes
p1479
g39
tp1480
aa(lp1481
(Vnot
p1482
g3
tp1483
a(Vgood
p1484
g10
tp1485
aa(lp1486
g1485
a(Vfreezes
p1487
g39
tp1488
aa(lp1489
(Vbird
p1490
g10
tp1491
a(Vpreview
p1492
g13
tp1493
aa(lp1494
(Vmany
p1495
g10
tp1496
a(Vnew
p1497
g10
tp1498
aa(lp1499
g1498
a(Vones
p1500
g39
tp1501
aa(lp1502
(Vnot
p1503
g3
tp1504
a(Vgood
p1505
g10
tp1506
aa(lp1507
g1506
a(Vfreezes
p1508
g39
tp1509
aa(lp1510
(VNot
p1511
g3
tp1512
a(Vhappy
p1513
g10
tp1514
aa(lp1515
(Vnext
p1516
g10
tp1517
a(Vangry
p1518
g13
tp1519
aa(lp1520
(VNot
p1521
g3
tp1522
a(Vhappy
p1523
g10
tp1524
aa(lp1525
(Veasiest
p1526
g10
tp1527
a(Vangry
p1528
g13
tp1529
aa(lp1530
(Vnext
p1531
g10
tp1532
a(Vangry
p1533
g13
tp1534
aa(lp1535
(VNot
p1536
g3
tp1537
a(Vhappy
p1538
g10
tp1539
aa(lp1540
(Veasiest
p1541
g10
tp1542
a(Vangry
p1543
g13
tp1544
aa(lp1545
(Vnext
p1546
g10
tp1547
a(Vangry
p1548
g13
tp1549
aa(lp1550
(VAbsolutely
p1551
g3
tp1552
a(Ventertaining
p1553
g101
tp1554
aa(lp1555
(Vcompletely
p1556
g3
tp1557
a(Vhappy
p1558
g10
tp1559
aa(lp1560
(Veasiest
p1561
g10
tp1562
a(Vangry
p1563
g13
tp1564
aa(lp1565
(Vnext
p1566
g10
tp1567
a(Vangry
p1568
g13
tp1569
aa(lp1570
(VAbsolutely
p1571
g3
tp1572
a(Ventertaining
p1573
g101
tp1574
aa(lp1575
(Vcompletely
p1576
g3
tp1577
a(Vhappy
p1578
g10
tp1579
aa(lp1580
(Vespecially
p1581
g3
tp1582
a(Vlove
p1583
g6
tp1584
aa(lp1585
(Vn't
p1586
g3
tp1587
a(Vlet
p1588
g6
tp1589
aa(lp1590
(Veasiest
p1591
g10
tp1592
a(Vangry
p1593
g13
tp1594
aa(lp1595
(Veven
p1596
g3
tp1597
a(Vhave
p1598
g6
tp1599
aa(lp1600
(Vfree
p1601
g10
tp1602
a(Vparts
p1603
g39
tp1604
aa(lp1605
(VAbsolutely
p1606
g3
tp1607
a(Ventertaining
p1608
g101
tp1609
aa(lp1610
(Vcompletely
p1611
g3
tp1612
a(Vhappy
p1613
g10
tp1614
aa(lp1615
(Vn't
p1616
g3
tp1617
a(Vlet
p1618
g6
tp1619
aa(lp1620
(Vespecially
p1621
g3
tp1622
a(Vlove
p1623
g6
tp1624
aa(lp1625
(Vn't
p1626
g3
tp1627
a(Vlet
p1628
g6
tp1629
aa(lp1630
(Veven
p1631
g3
tp1632
a(Vhave
p1633
g6
tp1634
aa(lp1635
(Vn't
p1636
g3
tp1637
a(Vclose
p1638
g10
tp1639
aa(lp1640
g1639
a(Vads
p1641
g39
tp1642
aa(lp1643
(Vn't
p1644
g3
tp1645
a(Vlet
p1646
g6
tp1647
aa(lp1648
(Vespecially
p1649
g3
tp1650
a(Vlove
p1651
g6
tp1652
aa(lp1653
(Vn't
p1654
g3
tp1655
a(Vlet
p1656
g6
tp1657
aa(lp1658
(Vother
p1659
g10
tp1660
a(Vangry
p1661
g13
tp1662
aa(lp1663
(Vfun
p1664
g13
tp1665
a(Vnew
p1666
g10
tp1667
aa(lp1668
g1667
a(Vtrust
p1669
g13
tp1670
aa(lp1671
(Vn't
p1672
g3
tp1673
a(Vlet
p1674
g6
tp1675
aa(lp1676
(Vother
p1677
g10
tp1678
a(Vangry
p1679
g13
tp1680
aa(lp1681
(Vnot
p1682
g3
tp1683
a(Vwork
p1684
g6
tp1685
aa(lp1686
(Vnot
p1687
g3
tp1688
a(Vwork
p1689
g6
tp1690
aa(lp1691
(Vother
p1692
g10
tp1693
a(Vangry
p1694
g13
tp1695
aa(lp1696
(Vepic
p1697
g10
tp1698
a(Vgame
p1699
g13
tp1700
aa(lp1701
(Vepic
p1702
g10
tp1703
a(Vgame
p1704
g13
tp1705
aa(lp1706
(Vdifferent
p1707
g10
tp1708
a(Vview
p1709
g13
tp1710
aa(lp1711
(Vdifferent
p1712
g10
tp1713
a(Vview
p1714
g13
tp1715
aa(lp1716
(Vad
p1717
g13
tp1718
a(Vfree
p1719
g10
tp1720
aa(lp1721
(Vstill
p1722
g3
tp1723
a(Vgetting
p1724
g101
tp1725
aa(lp1726
(Vdifferent
p1727
g10
tp1728
a(Vview
p1729
g13
tp1730
aa(lp1731
(VJust
p1732
g3
tp1733
a(Vgot
p1734
g122
tp1735
aa(lp1736
(Vangry
p1737
g10
tp1738
a(Vbirds
p1739
g39
tp1740
aa(lp1741
(Vangry
p1742
g10
tp1743
a(Vbirds
p1744
g39
tp1745
aa(lp1746
(Vad
p1747
g13
tp1748
a(Vfree
p1749
g10
tp1750
aa(lp1751
(Vstill
p1752
g3
tp1753
a(Vgetting
p1754
g101
tp1755
aa(lp1756
(Vmuch
p1757
g3
tp1758
a(Vfun
p1759
g50
tp1760
aa(lp1761
(VJust
p1762
g3
tp1763
a(Vgot
p1764
g122
tp1765
aa(lp1766
(Vangry
p1767
g10
tp1768
a(Vbirds
p1769
g39
tp1770
aa(lp1771
(Vangry
p1772
g10
tp1773
a(Vbirds
p1774
g39
tp1775
aa(lp1776
(Vmuch
p1777
g3
tp1778
a(Vfun
p1779
g50
tp1780
aa(lp1781
(Vangry
p1782
g10
tp1783
a(Vbirds
p1784
g39
tp1785
aa(lp1786
(Vangry
p1787
g10
tp1788
a(Vbirds
p1789
g39
tp1790
aa(lp1791
(Vmuch
p1792
g3
tp1793
a(Vfun
p1794
g50
tp1795
aa(lp1796
(Vnew
p1797
g10
tp1798
a(Vpink
p1799
g13
tp1800
aa(lp1801
(Vpretty
p1802
g3
tp1803
a(Vcool
p1804
g10
tp1805
aa(lp1806
(Vnew
p1807
g10
tp1808
a(Vpower
p1809
g13
tp1810
aa(lp1811
(V3yr
p1812
g10
tp1813
a(Vold
p1814
g10
tp1815
aa(lp1816
g1815
a(Vgson
p1817
g13
tp1818
aa(lp1819
(Vvery
p1820
g3
tp1821
a(Vnice
p1822
g10
tp1823
aa(lp1824
(Vnew
p1825
g10
tp1826
a(Vgame
p1827
g13
tp1828
aa(lp1829
(Vnew
p1830
g10
tp1831
a(Vpink
p1832
g13
tp1833
aa(lp1834
(Vpretty
p1835
g3
tp1836
a(Vcool
p1837
g10
tp1838
aa(lp1839
(Vnew
p1840
g10
tp1841
a(Vpower
p1842
g13
tp1843
aa(lp1844
(V3yr
p1845
g10
tp1846
a(Vold
p1847
g10
tp1848
aa(lp1849
g1848
a(Vgson
p1850
g13
tp1851
aa(lp1852
(Vvery
p1853
g3
tp1854
a(Vnice
p1855
g10
tp1856
aa(lp1857
(Vnew
p1858
g10
tp1859
a(Vgame
p1860
g13
tp1861
aa(lp1862
(Vn't
p1863
g3
tp1864
a(Vmove
p1865
g6
tp1866
aa(lp1867
(Vsecond
p1868
g10
tp1869
a(Vlevel
p1870
g13
tp1871
aa(lp1872
(Vnew
p1873
g10
tp1874
a(Vpink
p1875
g13
tp1876
aa(lp1877
(Vpretty
p1878
g3
tp1879
a(Vcool
p1880
g10
tp1881
aa(lp1882
(Vnew
p1883
g10
tp1884
a(Vpower
p1885
g13
tp1886
aa(lp1887
(Vvery
p1888
g3
tp1889
a(Vnice
p1890
g10
tp1891
aa(lp1892
(Vn't
p1893
g3
tp1894
a(Vmove
p1895
g6
tp1896
aa(lp1897
(Vsecond
p1898
g10
tp1899
a(Vlevel
p1900
g13
tp1901
aa(lp1902
(Vcharacters
p1903
g39
tp1904
a(Vnew
p1905
g10
tp1906
aa(lp1907
(Vn't
p1908
g3
tp1909
a(Vmove
p1910
g6
tp1911
aa(lp1912
(Vsecond
p1913
g10
tp1914
a(Vlevel
p1915
g13
tp1916
aa(lp1917
(Vcharacters
p1918
g39
tp1919
a(Vnew
p1920
g10
tp1921
aa(lp1922
(Vvery
p1923
g3
tp1924
a(Vaddictive
p1925
g10
tp1926
aa(lp1927
g1926
a(Vgame
p1928
g13
tp1929
aa(lp1930
(Vcharacters
p1931
g39
tp1932
a(Vnew
p1933
g10
tp1934
aa(lp1935
(Vnew
p1936
g10
tp1937
a(Vpowers
p1938
g39
tp1939
aa(lp1940
(Vvery
p1941
g3
tp1942
a(Vaddictive
p1943
g10
tp1944
aa(lp1945
g1944
a(Vgame
p1946
g13
tp1947
aa(lp1948
(Vn't
p1949
g3
tp1950
a(Vcuz
p1951
g6
tp1952
aa(lp1953
(Vvery
p1954
g10
tp1955
a(Vannoying
p1956
g13
tp1957
aa(lp1958
(Vthen
p1959
g3
tp1960
a(Vexit
p1961
g6
tp1962
aa(lp1963
(Vonly
p1964
g3
tp1965
a(Vtake
p1966
g6
tp1967
aa(lp1968
(Vnot
p1969
g3
tp1970
a(Vlet
p1971
g6
tp1972
aa(lp1973
(Vvery
p1974
g3
tp1975
a(Vgood
p1976
g10
tp1977
aa(lp1978
(Vprevious
p1979
g10
tp1980
a(Vgames
p1981
g39
tp1982
aa(lp1983
(Vn't
p1984
g3
tp1985
a(Vbeat
p1986
g6
tp1987
aa(lp1988
(Vvery
p1989
g3
tp1990
a(Vfun
p1991
g50
tp1992
aa(lp1993
(Vn't
p1994
g3
tp1995
a(Vcuz
p1996
g6
tp1997
aa(lp1998
(Vvery
p1999
g10
tp2000
a(Vannoying
p2001
g13
tp2002
aa(lp2003
(Vthen
p2004
g3
tp2005
a(Vexit
p2006
g6
tp2007
aa(lp2008
(Vonly
p2009
g3
tp2010
a(Vtake
p2011
g6
tp2012
aa(lp2013
(Vnot
p2014
g3
tp2015
a(Vlet
p2016
g6
tp2017
aa(lp2018
(Vvery
p2019
g3
tp2020
a(Vgood
p2021
g10
tp2022
aa(lp2023
(Vprevious
p2024
g10
tp2025
a(Vgames
p2026
g39
tp2027
aa(lp2028
(Vn't
p2029
g3
tp2030
a(Vbeat
p2031
g6
tp2032
aa(lp2033
(Vvery
p2034
g3
tp2035
a(Vfun
p2036
g50
tp2037
aa(lp2038
(Vpretty
p2039
g3
tp2040
a(Vfreaking
p2041
g101
tp2042
aa(lp2043
(Vsomething
p2044
g13
tp2045
a(Vnew
p2046
g10
tp2047
aa(lp2048
(VReally
p2049
g3
tp2050
a(Vloving
p2051
g101
tp2052
aa(lp2053
(Vangry
p2054
g10
tp2055
a(Vbirds
p2056
g39
tp2057
aa(lp2058
(Veventually
p2059
g3
tp2060
a(Vgot
p2061
g122
tp2062
aa(lp2063
(Vnext
p2064
g10
tp2065
a(Vupdate
p2066
g13
tp2067
aa(lp2068
(Vgood
p2069
g10
tp2070
a(Vangry
p2071
g13
tp2072
aa(lp2073
(Vlast
p2074
g10
tp2075
a(Vupdate
p2076
g13
tp2077
aa(lp2078
(Vsame
p2079
g10
tp2080
a(Vresult
p2081
g13
tp2082
aa(lp2083
(Vmost
p2084
g146
tp2085
a(Vinteresting
p2086
g10
tp2087
aa(lp2088
(Vstill
p2089
g3
tp2090
a(Vawful
p2091
g10
tp2092
aa(lp2093
(Vlow
p2094
g10
tp2095
a(Vrate
p2096
g13
tp2097
aa(lp2098
(Vn't
p2099
g3
tp2100
a(Vplay
p2101
g6
tp2102
aa(lp2103
(Vreluctantly
p2104
g3
tp2105
a(Vspent
p2106
g122
tp2107
aa(lp2108
(Vnever
p2109
g3
tp2110
a(Vgot
p2111
g122
tp2112
aa(lp2113
(Vvery
p2114
g3
tp2115
a(Vaddictive
p2116
g10
tp2117
aa(lp2118
(Vvery
p2119
g3
tp2120
a(Vfun
p2121
g10
tp2122
aa(lp2123
(Vclassic
p2124
g10
tp2125
a(Vcharacters
p2126
g39
tp2127
aa(lp2128
(Vn't
p2129
g3
tp2130
a(Vhave
p2131
g6
tp2132
aa(lp2133
(VReally
p2134
g3
tp2135
a(Vfun
p2136
g50
tp2137
aa(lp2138
(Ventertaining
p2139
g10
tp2140
a(Vgame
p2141
g13
tp2142
aa(lp2143
(Vn't
p2144
g3
tp2145
a(Vget
p2146
g6
tp2147
aa(lp2148
(Vangry
p2149
g10
tp2150
a(Vbirds
p2151
g39
tp2152
aa(lp2153
(Vnot
p2154
g3
tp2155
a(Vusing
p2156
g101
tp2157
aa(lp2158
(Vnext
p2159
g10
tp2160
a(Vangry
p2161
g13
tp2162
aa(lp2163
(Vangry
p2164
g10
tp2165
a(Vbirds
p2166
g39
tp2167
aa(lp2168
(Vtoo
p2169
g3
tp2170
a(Vbig
p2171
g10
tp2172
aa(lp2173
(Vvery
p2174
g3
tp2175
a(Vcute
p2176
g10
tp2177
aa(lp2178
(Vvarious
p2179
g10
tp2180
a(Vfeatures
p2181
g39
tp2182
aa(lp2183
(Vbig
p2184
g10
tp2185
a(Vboss
p2186
g13
tp2187
aa(lp2188
(Vdarth
p2189
g10
tp2190
a(Vpig
p2191
g13
tp2192
aa(lp2193
(Vfunny
p2194
g10
tp2195
a(Vstar
p2196
g13
tp2197
aa(lp2198
(Vmany
p2199
g10
tp2200
a(Vfresh
p2201
g10
tp2202
aa(lp2203
(Venjoyable
p2204
g10
tp2205
a(Videas
p2206
g39
tp2207
aa(lp2208
(Vreally
p2209
g3
tp2210
a(Vexcited
p2211
g50
tp2212
aa(lp2213
(Veven
p2214
g3
tp2215
a(Vload
p2216
g6
tp2217
aa(lp2218
(Vn't
p2219
g3
tp2220
a(Vplay
p2221
g6
tp2222
aa(lp2223
(Vn't
p2224
g3
tp2225
a(Vshow
p2226
g6
tp2227
aa(lp2228
(Vaboslutly
p2229
g3
tp2230
a(Vamazing
p2231
g101
tp2232
aa(lp2233
(Vlittle
p2234
g3
tp2235
a(Vanoying
p2236
g101
tp2237
aa(lp2238
(Voverall
p2239
g10
tp2240
a(Vgreat
p2241
g10
tp2242
aa(lp2243
(Vn't
p2244
g3
tp2245
a(Vgon
p2246
g6
tp2247
aa(lp2248
(VNOT
p2249
g3
tp2250
a(Vdisappointed
p2251
g50
tp2252
aa(lp2253
(Vhuge
p2254
g10
tp2255
a(Vhelp
p2256
g13
tp2257
aa(lp2258
(Vn't
p2259
g3
tp2260
a(Vunlock
p2261
g6
tp2262
aa(lp2263
(Valso
p2264
g3
tp2265
a(Vhappened
p2266
g122
tp2267
aa(lp2268
(Vgood
p2269
g10
tp2270
a(Vgame
p2271
g13
tp2272
aa(lp2273
(Vpretty
p2274
g3
tp2275
a(Vsweet
p2276
g10
tp2277
aa(lp2278
(Voriginal
p2279
g10
tp2280
a(Vangry
p2281
g13
tp2282
aa(lp2283
(Vangry
p2284
g10
tp2285
a(Vbird
p2286
g13
tp2287
aa(lp2288
(Vsame
p2289
g10
tp2290
a(Vthing
p2291
g13
tp2292
aa(lp2293
(Vnot
p2294
g3
tp2295
a(Vworking
p2296
g101
tp2297
aa(lp2298
(Vblack
p2299
g10
tp2300
a(Vscreen
p2301
g13
tp2302
aa(lp2303
(Vn't
p2304
g3
tp2305
a(Vexist
p2306
g6
tp2307
aa(lp2308
(VAbsolutely
p2309
g3
tp2310
a(Vamazing
p2311
g101
tp2312
aa(lp2313
(Vn't
p2314
g3
tp2315
a(Vopen
p2316
g6
tp2317
aa(lp2318
(V.I
p2319
g10
tp2320
a(Vneeeeed
p2321
g13
tp2322
aa(lp2323
(Vangry
p2324
g10
tp2325
a(Vbirds
p2326
g39
tp2327
aa(lp2328
(Vnot
p2329
g3
tp2330
a(Vwork
p2331
g6
tp2332
aa(lp2333
(Vnot
p2334
g3
tp2335
a(Vdownload
p2336
g6
tp2337
aa(lp2338
(Vhardly
p2339
g3
tp2340
a(Vget
p2341
g6
tp2342
aa(lp2343
(Vnew
p2344
g10
tp2345
a(Vupdate
p2346
g13
tp2347
aa(lp2348
(Vblack
p2349
g10
tp2350
a(Vsquares
p2351
g39
tp2352
aa(lp2353
(Vactual
p2354
g10
tp2355
a(Vgraphics
p2356
g39
tp2357
aa(lp2358
(Vn't
p2359
g3
tp2360
a(Vsay
p2361
g6
tp2362
aa(lp2363
(Venough
p2364
g10
tp2365
a(Vgood
p2366
g10
tp2367
aa(lp2368
g2367
a(Vthings
p2369
g39
tp2370
aa(lp2371
(Vn't
p2372
g3
tp2373
a(Vwant
p2374
g6
tp2375
aa(lp2376
(Vvery
p2377
g3
tp2378
a(Vstrategic
p2379
g10
tp2380
aa(lp2381
g2380
a(Vturn
p2382
g13
tp2383
aa(lp2384
(Vonly
p2385
g3
tp2386
a(Vthrilled
p2387
g50
tp2388
aa(lp2389
(Vyoung
p2390
g10
tp2391
a(Vones
p2392
g39
tp2393
aa(lp2394
(Vvery
p2395
g3
tp2396
a(Vintuitive
p2397
g10
tp2398
aa(lp2399
(Vrandomly
p2400
g3
tp2401
a(Vhave
p2402
g6
tp2403
aa(lp2404
(Ventire
p2405
g10
tp2406
a(Vlevel
p2407
g13
tp2408
aa(lp2409
(Vonly
p2410
g3
tp2411
a(Vshot
p2412
g10
tp2413
aa(lp2414
(Vn't
p2415
g3
tp2416
a(Vthink
p2417
g6
tp2418
aa(lp2419
(Vstill
p2420
g3
tp2421
a(Vbe
p2422
g6
tp2423
aa(lp2424
(Vmuch
p2425
g3
tp2426
a(Vfun
p2427
g50
tp2428
aa(lp2429
(Vgreat
p2430
g10
tp2431
a(Vfun
p2432
g13
tp2433
aa(lp2434
(Vn't
p2435
g3
tp2436
a(Vgo
p2437
g6
tp2438
aa(lp2439
(Vreally
p2440
g3
tp2441
a(Vdid
p2442
g122
tp2443
aa(lp2444
(Vso
p2445
g3
tp2446
a(VAMAZING
p2447
g101
tp2448
aa(lp2449
(Vn't
p2450
g3
tp2451
a(Vdownload
p2452
g6
tp2453
aa(lp2454
(Vn't
p2455
g3
tp2456
a(Vwork
p2457
g6
tp2458
aa(lp2459
(Vangry
p2460
g10
tp2461
a(Vbirds
p2462
g39
tp2463
aa(lp2464
(Vjust
p2465
g3
tp2466
a(Vgot
p2467
g122
tp2468
aa(lp2469
(Vangry
p2470
g10
tp2471
a(Vbirds
p2472
g39
tp2473
aa(lp2474
(Vfresh
p2475
g10
tp2476
a(V'another
p2477
g10
tp2478
aa(lp2479
(Vfresh
p2480
g10
tp2481
a(Vtake
p2482
g13
tp2483
aa(lp2484
(VReally
p2485
g3
tp2486
a(Vfun
p2487
g50
tp2488
aa(lp2489
(Vnew
p2490
g10
tp2491
a(Vtheme
p2492
g13
tp2493
aa(lp2494
(Vexciting
p2495
g10
tp2496
a(Vnew
p2497
g10
tp2498
aa(lp2499
g2498
a(Vabilities
p2500
g39
tp2501
aa(lp2502
(Vn't
p2503
g3
tp2504
a(Vstop
p2505
g6
tp2506
aa(lp2507
(VBrilliant
p2508
g10
tp2509
a(Vgameplay
p2510
g13
tp2511
aa(lp2512
(Vwell
p2513
g3
tp2514
a(Vintergrated
p2515
g50
tp2516
aa(lp2517
(Vn't
p2518
g3
tp2519
a(Vknow
p2520
g6
tp2521
aa(lp2522
(Vlast
p2523
g10
tp2524
a(Vangry
p2525
g13
tp2526
aa(lp2527
(Vever
p2528
g3
tp2529
a(Vbe
p2530
g6
tp2531
aa(lp2532
(Vmobile
p2533
g10
tp2534
a(Vgame
p2535
g13
tp2536
aa(lp2537
(Vnew
p2538
g10
tp2539
a(Vlevels
p2540
g39
tp2541
aa(lp2542
(Vinternal
p2543
g10
tp2544
a(Vmemory
p2545
g13
tp2546
aa(lp2547
(Vdownload
p2548
g10
tp2549
a(Vangry
p2550
g13
tp2551
aa(lp2552
(Voriginal
p2553
g10
tp2554
a(Vangry
p2555
g13
tp2556
aa(lp2557
(Vunlockable
p2558
g10
tp2559
a(Varea
p2560
g13
tp2561
aa(lp2562
(Vnot
p2563
g3
tp2564
a(Vaccess
p2565
g6
tp2566
aa(lp2567
(Vn't
p2568
g3
tp2569
a(Vknow
p2570
g6
tp2571
aa(lp2572
(Vextra
p2573
g10
tp2574
a(Vmissions
p2575
g39
tp2576
aa(lp2577
(Vnot
p2578
g3
tp2579
a(Vget
p2580
g6
tp2581
aa(lp2582
(Vextra
p2583
g10
tp2584
a(Vlevels
p2585
g39
tp2586
aa(lp2587
(Vjust
p2588
g3
tp2589
a(Vrocking
p2590
g101
tp2591
aa(lp2592
(Vfinally
p2593
g3
tp2594
a(Vchanged
p2595
g122
tp2596
aa(lp2597
(Vnormal
p2598
g10
tp2599
a(Vsized
p2600
g10
tp2601
aa(lp2602
(Vso
p2603
g3
tp2604
a(Vintrusive
p2605
g10
tp2606
aa(lp2607
(Vn't
p2608
g3
tp2609
a(Vfinish
p2610
g6
tp2611
aa(lp2612
(Vvisually
p2613
g3
tp2614
a(Vnoisy
p2615
g10
tp2616
aa(lp2617
g2616
a(Vad
p2618
g13
tp2619
aa(lp2620
(Vnot
p2621
g3
tp2622
a(Vbe
p2623
g6
tp2624
aa(lp2625
(Vbad
p2626
g10
tp2627
a(Vpiggies
p2628
g39
tp2629
aa(lp2630
(Vvery
p2631
g3
tp2632
a(Vaddictive
p2633
g10
tp2634
aa(lp2635
(Vn't
p2636
g3
tp2637
a(Vstop
p2638
g6
tp2639
aa(lp2640
(Vnot
p2641
g3
tp2642
a(Vallowing
p2643
g101
tp2644
aa(lp2645
(Vdefinitely
p2646
g3
tp2647
a(Vbe
p2648
g6
tp2649
aa(lp2650
(Vmany
p2651
g10
tp2652
a(Vothers
p2653
g39
tp2654
aa(lp2655
(Vother
p2656
g10
tp2657
a(Vlevel
p2658
g13
tp2659
aa(lp2660
(Vnot
p2661
g3
tp2662
a(Vgain
p2663
g6
tp2664
aa(lp2665
(VNot
p2666
g3
tp2667
a(Vmany
p2668
g10
tp2669
aa(lp2670
(Vreally
p2671
g3
tp2672
a(Vdifferent
p2673
g10
tp2674
aa(lp2675
(Vgreen
p2676
g10
tp2677
a(Vlight
p2678
g13
tp2679
aa(lp2680
(Vn't
p2681
g3
tp2682
a(Vever
p2683
g6
tp2684
aa(lp2685
(Vtime
p2686
g13
tp2687
a(Vgreat
p2688
g10
tp2689
aa(lp2690
(Vn't
p2691
g3
tp2692
a(Vhave
p2693
g6
tp2694
aa(lp2695
(Venough
p2696
g10
tp2697
a(Vspace
p2698
g13
tp2699
aa(lp2700
(Vnew
p2701
g10
tp2702
a(Vangry
p2703
g13
tp2704
aa(lp2705
(Vthen
p2706
g3
tp2707
a(Vreload
p2708
g6
tp2709
aa(lp2710
(Vlast
p2711
g10
tp2712
a(Vapp
p2713
g13
tp2714
aa(lp2715
(Valso
p2716
g3
tp2717
a(Vtask
p2718
g6
tp2719
aa(lp2720
(Vtotally
p2721
g3
tp2722
a(Vmessed
p2723
g122
tp2724
aa(lp2725
(Vreally
p2726
g3
tp2727
a(Vupset
p2728
g50
tp2729
aa(lp2730
(Vinnovative
p2731
g10
tp2732
a(Vtheme
p2733
g13
tp2734
aa(lp2735
(Voriginal
p2736
g10
tp2737
a(Vbird-slinging
p2738
g10
tp2739
aa(lp2740
g2739
a(Vgame
p2741
g13
tp2742
aa(lp2743
(Vnew
p2744
g10
tp2745
a(Vpowers
p2746
g39
tp2747
aa(lp2748
(Vcriminal
p2749
g10
tp2750
a(Voffence
p2751
g13
tp2752
aa(lp2753
(VC'mon
p2754
g10
tp2755
a(Vstar
p2756
g13
tp2757
aa(lp2758
(Vangry
p2759
g10
tp2760
a(Vbirds
p2761
g39
tp2762
aa(lp2763
(Vwhole
p2764
g10
tp2765
a(Vnutha
p2766
g13
tp2767
aa(lp2768
(Vso
p2769
g3
tp2770
a(Vstop
p2771
g6
tp2772
aa(lp2773
(Vnot
p2774
g3
tp2775
a(Vhave
p2776
g6
tp2777
aa(lp2778
(Vbig
p2779
g10
tp2780
a(Vfan
p2781
g13
tp2782
aa(lp2783
(Vquite
p2784
g3
tp2785
a(Vgood
p2786
g10
tp2787
aa(lp2788
(Vso
p2789
g3
tp2790
a(Vyeah
p2791
g10
tp2792
aa(lp2793
(Vdefinitely
p2794
g3
tp2795
a(Vworth
p2796
g10
tp2797
aa(lp2798
(VDefinitely
p2799
g3
tp2800
a(Vworth
p2801
g10
tp2802
aa(lp2803
(Vother
p2804
g10
tp2805
a(Vangry
p2806
g13
tp2807
aa(lp2808
(Vyears
p2809
g39
tp2810
a(Vold
p2811
g10
tp2812
aa(lp2813
(Vjust
p2814
g3
tp2815
a(Vdosent
p2816
g10
tp2817
aa(lp2818
g2817
a(Vfeel
p2819
g13
tp2820
aa(lp2821
(Vblack
p2822
g10
tp2823
a(Vbird
p2824
g13
tp2825
aa(lp2826
(Vgreat
p2827
g10
tp2828
a(Vgame
p2829
g13
tp2830
aa(lp2831
(Vangry
p2832
g10
tp2833
a(Vbirds
p2834
g39
tp2835
aa(lp2836
(VNOT
p2837
g3
tp2838
a(VBE
p2839
g6
tp2840
aa(lp2841
(Vn't
p2842
g3
tp2843
a(Vlike
p2844
g6
tp2845
aa(lp2846
(Vnow
p2847
g3
tp2848
a(Vplastering
p2849
g101
tp2850
aa(lp2851
(Vnew
p2852
g10
tp2853
a(Vgames
p2854
g39
tp2855
aa(lp2856
(Vother
p2857
g10
tp2858
a(Vversions
p2859
g39
tp2860
aa(lp2861
(Vangry
p2862
g10
tp2863
a(Vbirds
p2864
g39
tp2865
aa(lp2866
(Veven
p2867
g3
tp2868
a(Vupdating
p2869
g101
tp2870
aa(lp2871
(Vonly
p2872
g3
tp2873
a(Vintrusive
p2874
g10
tp2875
aa(lp2876
(Vrather
p2877
g3
tp2878
a(Vuse
p2879
g6
tp2880
aa(lp2881
(Vpretty
p2882
g3
tp2883
a(Vboring
p2884
g101
tp2885
aa(lp2886
(Vsimply
p2887
g3
tp2888
a(Vgoing
p2889
g101
tp2890
aa(lp2891
(Vn't
p2892
g3
tp2893
a(Vget
p2894
g6
tp2895
aa(lp2896
(Vnow
p2897
g3
tp2898
a(Vbeing
p2899
g101
tp2900
aa(lp2901
(Vn't
p2902
g3
tp2903
a(Vclose
p2904
g10
tp2905
aa(lp2906
(Val
p2907
g10
tp2908
a(Vcomes
p2909
g39
tp2910
aa(lp2911
(Vgreat
p2912
g10
tp2913
a(Vgame
p2914
g13
tp2915
aa(lp2916
(Vother
p2917
g10
tp2918
a(Vlevels
p2919
g39
tp2920
aa(lp2921
(Vlovable
p2922
g10
tp2923
a(Vgame
p2924
g13
tp2925
aa(lp2926
(Vmore
p2927
g990
tp2928
a(Vfun
p2929
g10
tp2930
aa(lp2931
(Vother
p2932
g10
tp2933
a(Vangry
p2934
g13
tp2935
aa(lp2936
(Vnot
p2937
g3
tp2938
a(Vwork
p2939
g6
tp2940
aa(lp2941
(VJust
p2942
g3
tp2943
a(Vupdated
p2944
g50
tp2945
aa(lp2946
(Vnew
p2947
g10
tp2948
a(Vlevels
p2949
g39
tp2950
aa(lp2951
(VJust
p2952
g3
tp2953
a(Vcurious
p2954
g10
tp2955
aa(lp2956
(Vcant
p2957
g10
tp2958
a(Vinstall
p2959
g13
tp2960
aa(lp2961
(Vnot
p2962
g3
tp2963
a(Vable
p2964
g10
tp2965
aa(lp2966
(Vn't
p2967
g3
tp2968
a(Vget
p2969
g6
tp2970
aa(lp2971
(Valways
p2972
g3
tp2973
a(Vliked
p2974
g122
tp2975
aa(lp2976
(Vtotally
p2977
g3
tp2978
a(Vaddictive
p2979
g10
tp2980
aa(lp2981
(Vangry
p2982
g10
tp2983
a(Vbirds
p2984
g39
tp2985
aa(lp2986
(Vreally
p2987
g3
tp2988
a(Vgreat
p2989
g10
tp2990
aa(lp2991
g2990
a(Vgame
p2992
g13
tp2993
aa(lp2994
(Vwell
p2995
g3
tp2996
a(Vworth
p2997
g10
tp2998
aa(lp2999
(Vonly
p3000
g3
tp3001
a(Vwant
p3002
g6
tp3003
aa(lp3004
(Voriginal
p3005
g10
tp3006
a(Vtrilogy
p3007
g13
tp3008
aa(lp3009
(Vsuper-duper
p3010
g10
tp3011
a(Vlightsaber
p3012
g13
tp3013
aa(lp3014
(Vfavorite
p3015
g10
tp3016
a(Vangry
p3017
g13
tp3018
aa(lp3019
(V.must
p3020
g10
tp3021
a(Vplay
p3022
g13
tp3023
aa(lp3024
(Vjust
p3025
g3
tp3026
a(Vcompleted
p3027
g122
tp3028
aa(lp3029
(Vnot
p3030
g3
tp3031
a(Vopened
p3032
g50
tp3033
aa(lp3034
(Vangry
p3035
g10
tp3036
a(Vbirds
p3037
g39
tp3038
aa(lp3039
(Vlight
p3040
g10
tp3041
a(Vsabers
p3042
g39
tp3043
aa(lp3044
(Vseveral
p3045
g10
tp3046
a(Vtimes
p3047
g39
tp3048
aa(lp3049
(Vn't
p3050
g3
tp3051
a(Vload
p3052
g6
tp3053
aa(lp3054
(Vgreat
p3055
g10
tp3056
a(Vfun
p3057
g13
tp3058
aa(lp3059
(Vn't
p3060
g3
tp3061
a(Vdowlond
p3062
g6
tp3063
aa(lp3064
(Vn't
p3065
g3
tp3066
a(Vdowlond
p3067
g6
tp3068
aa(lp3069
(Vjust
p3070
g3
tp3071
a(Vdid
p3072
g122
tp3073
aa(lp3074
(Vfirst
p3075
g10
tp3076
a(Vbit
p3077
g13
tp3078
aa(lp3079
(Vlong
p3080
g10
tp3081
a(Vtime
p3082
g13
tp3083
aa(lp3084
(Vso
p3085
g3
tp3086
a(Vgood
p3087
g10
tp3088
aa(lp3089
g3088
a(Vapp
p3090
g13
tp3091
aa(lp3092
(Vn't
p3093
g3
tp3094
a(Vrate
p3095
g6
tp3096
aa(lp3097
(Vn't
p3098
g3
tp3099
a(Vplay
p3100
g6
tp3101
aa(lp3102
(Vangry
p3103
g10
tp3104
a(Vbirds
p3105
g39
tp3106
aa(lp3107
(Vnot
p3108
g3
tp3109
a(Vnecessary
p3110
g10
tp3111
aa(lp3112
(Vvery
p3113
g3
tp3114
a(Vfun
p3115
g10
tp3116
aa(lp3117
(Vnever
p3118
g3
tp3119
a(Vdid
p3120
g122
tp3121
aa(lp3122
(Vthere
p3123
g3
tp3124
a(Vwas
p3125
g122
tp3126
aa(lp3127
(Vnot
p3128
g3
tp3129
a(Vrefuse
p3130
g6
tp3131
aa(lp3132
(Vn't
p3133
g3
tp3134
a(Vwait
p3135
g6
tp3136
aa(lp3137
(Vmore
p3138
g990
tp3139
a(Vstar
p3140
g10
tp3141
aa(lp3142
g3141
a(Vwars
p3143
g39
tp3144
aa(lp3145
(Vwonderful
p3146
g10
tp3147
a(Vabilities
p3148
g39
tp3149
aa(lp3150
(Vonly
p3151
g10
tp3152
a(Vdisappointing
p3153
g10
tp3154
aa(lp3155
g3154
a(Vfactor
p3156
g13
tp3157
aa(lp3158
(Vtrue
p3159
g10
tp3160
a(Vstart
p3161
g13
tp3162
aa(lp3163
(Vreally
p3164
g3
tp3165
a(Vappreciate
p3166
g10
tp3167
aa(lp3168
(Vwhole
p3169
g10
tp3170
a(Vfamily
p3171
g13
tp3172
aa(lp3173
(Vvery
p3174
g3
tp3175
a(Vfair
p3176
g10
tp3177
aa(lp3178
(Vn't
p3179
g3
tp3180
a(Vhave
p3181
g6
tp3182
aa(lp3183
(Vgood
p3184
g10
tp3185
a(Vtime
p3186
g13
tp3187
aa(lp3188
(Vn't
p3189
g3
tp3190
a(Vmake
p3191
g6
tp3192
aa(lp3193
(Voriginal
p3194
g10
tp3195
a(Vangry
p3196
g13
tp3197
aa(lp3198
(Vincredible
p3199
g10
tp3200
a(Vlittle
p3201
g13
tp3202
aa(lp3203
(Vepic
p3204
g10
tp3205
a(Vintegalactic
p3206
g10
tp3207
aa(lp3208
(Vcomplete
p3209
g10
tp3210
a(Vepisode
p3211
g13
tp3212
aa(lp3213
(Vvery
p3214
g3
tp3215
a(Vgood
p3216
g10
tp3217
aa(lp3218
(Vlast
p3219
g10
tp3220
a(Vupdate
p3221
g13
tp3222
aa(lp3223
(Vvery
p3224
g3
tp3225
a(Vmuch
p3226
g10
tp3227
aa(lp3228
(Vnot
p3229
g3
tp3230
a(Vget
p3231
g6
tp3232
aa(lp3233
(Vplay
p3234
g13
tp3235
a(Vother
p3236
g10
tp3237
aa(lp3238
g3237
a(Vlevels
p3239
g39
tp3240
aa(lp3241
(Vrich
p3242
g10
tp3243
a(Venough
p3244
g10
tp3245
aa(lp3246
g3245
a(Vcome
p3247
g13
tp3248
aa(lp3249
(Vperfect
p3250
g10
tp3251
a(Vstar
p3252
g13
tp3253
aa(lp3254
(Vangry
p3255
g10
tp3256
a(Vbirds
p3257
g39
tp3258
aa(lp3259
(Vvery
p3260
g3
tp3261
a(Vgood
p3262
g10
tp3263
aa(lp3264
(Vlast
p3265
g10
tp3266
a(Vupdate
p3267
g13
tp3268
aa(lp3269
(Vplay
p3270
g13
tp3271
a(Vother
p3272
g10
tp3273
aa(lp3274
g3273
a(Vlevels
p3275
g39
tp3276
aa(lp3277
(Vrich
p3278
g10
tp3279
a(Venough
p3280
g10
tp3281
aa(lp3282
g3281
a(Vcome
p3283
g13
tp3284
aa(lp3285
(Vnot
p3286
g3
tp3287
a(Vget
p3288
g6
tp3289
aa(lp3290
(Vnot
p3291
g3
tp3292
a(Vopen
p3293
g6
tp3294
aa(lp3295
(Vsecond
p3296
g10
tp3297
a(Vtime
p3298
g13
tp3299
aa(lp3300
(Vnext
p3301
g10
tp3302
a(Vplanet
p3303
g13
tp3304
aa(lp3305
(Vactually
p3306
g3
tp3307
a(Vpay
p3308
g6
tp3309
aa(lp3310
(Vown
p3311
g10
tp3312
a(Vlevels
p3313
g39
tp3314
aa(lp3315
(Vown
p3316
g10
tp3317
a(Vfort
p3318
g13
tp3319
aa(lp3320
(Vnot
p3321
g3
tp3322
a(Vopen
p3323
g6
tp3324
aa(lp3325
(Vsecond
p3326
g10
tp3327
a(Vtime
p3328
g13
tp3329
aa(lp3330
(Vnext
p3331
g10
tp3332
a(Vlevel
p3333
g13
tp3334
aa(lp3335
(Vnot
p3336
g3
tp3337
a(Vunlock
p3338
g6
tp3339
aa(lp3340
(Vnext
p3341
g10
tp3342
a(Vplanet
p3343
g13
tp3344
aa(lp3345
(Vactually
p3346
g3
tp3347
a(Vpay
p3348
g6
tp3349
aa(lp3350
(Vown
p3351
g10
tp3352
a(Vlevels
p3353
g39
tp3354
aa(lp3355
(Vown
p3356
g10
tp3357
a(Vfort
p3358
g13
tp3359
aa(lp3360
(Vjust
p3361
g3
tp3362
a(Vplain
p3363
g6
tp3364
aa(lp3365
(Veven
p3366
g3
tp3367
a(Vopen
p3368
g10
tp3369
aa(lp3370
(Vnot
p3371
g3
tp3372
a(Vopen
p3373
g6
tp3374
aa(lp3375
(Vsecond
p3376
g10
tp3377
a(Vtime
p3378
g13
tp3379
aa(lp3380
(Vnext
p3381
g10
tp3382
a(Vlevel
p3383
g13
tp3384
aa(lp3385
(Vnot
p3386
g3
tp3387
a(Vunlock
p3388
g6
tp3389
aa(lp3390
(Vnext
p3391
g10
tp3392
a(Vplanet
p3393
g13
tp3394
aa(lp3395
(Vjust
p3396
g3
tp3397
a(Vplain
p3398
g6
tp3399
aa(lp3400
(Veven
p3401
g3
tp3402
a(Vopen
p3403
g10
tp3404
aa(lp3405
(Veven
p3406
g3
tp3407
a(Vopen
p3408
g10
tp3409
aa(lp3410
(Vnot
p3411
g3
tp3412
a(Vgood
p3413
g10
tp3414
aa(lp3415
g3414
a(Vfreezes
p3416
g39
tp3417
aa(lp3418
(Vnot
p3419
g3
tp3420
a(Vgood
p3421
g10
tp3422
aa(lp3423
g3422
a(Vfreezes
p3424
g39
tp3425
aa(lp3426
(Vbird
p3427
g10
tp3428
a(Vpreview
p3429
g13
tp3430
aa(lp3431
(Vmany
p3432
g10
tp3433
a(Vnew
p3434
g10
tp3435
aa(lp3436
g3435
a(Vones
p3437
g39
tp3438
aa(lp3439
(Vnot
p3440
g3
tp3441
a(Vgood
p3442
g10
tp3443
aa(lp3444
g3443
a(Vfreezes
p3445
g39
tp3446
aa(lp3447
(VNot
p3448
g3
tp3449
a(Vhappy
p3450
g10
tp3451
aa(lp3452
(Vnext
p3453
g10
tp3454
a(Vangry
p3455
g13
tp3456
aa(lp3457
(VNot
p3458
g3
tp3459
a(Vhappy
p3460
g10
tp3461
aa(lp3462
(Veasiest
p3463
g10
tp3464
a(Vangry
p3465
g13
tp3466
aa(lp3467
(Vnext
p3468
g10
tp3469
a(Vangry
p3470
g13
tp3471
aa(lp3472
(VNot
p3473
g3
tp3474
a(Vhappy
p3475
g10
tp3476
aa(lp3477
(Veasiest
p3478
g10
tp3479
a(Vangry
p3480
g13
tp3481
aa(lp3482
(Vnext
p3483
g10
tp3484
a(Vangry
p3485
g13
tp3486
aa(lp3487
(VAbsolutely
p3488
g3
tp3489
a(Ventertaining
p3490
g101
tp3491
aa(lp3492
(Vcompletely
p3493
g3
tp3494
a(Vhappy
p3495
g10
tp3496
aa(lp3497
(Veasiest
p3498
g10
tp3499
a(Vangry
p3500
g13
tp3501
aa(lp3502
(Vnext
p3503
g10
tp3504
a(Vangry
p3505
g13
tp3506
aa(lp3507
(VAbsolutely
p3508
g3
tp3509
a(Ventertaining
p3510
g101
tp3511
aa(lp3512
(Vcompletely
p3513
g3
tp3514
a(Vhappy
p3515
g10
tp3516
aa(lp3517
(Vespecially
p3518
g3
tp3519
a(Vlove
p3520
g6
tp3521
aa(lp3522
(Vn't
p3523
g3
tp3524
a(Vlet
p3525
g6
tp3526
aa(lp3527
(Veasiest
p3528
g10
tp3529
a(Vangry
p3530
g13
tp3531
aa(lp3532
(Veven
p3533
g3
tp3534
a(Vhave
p3535
g6
tp3536
aa(lp3537
(Vfree
p3538
g10
tp3539
a(Vparts
p3540
g39
tp3541
aa(lp3542
(VAbsolutely
p3543
g3
tp3544
a(Ventertaining
p3545
g101
tp3546
aa(lp3547
(Vcompletely
p3548
g3
tp3549
a(Vhappy
p3550
g10
tp3551
aa(lp3552
(Vn't
p3553
g3
tp3554
a(Vlet
p3555
g6
tp3556
aa(lp3557
(Vespecially
p3558
g3
tp3559
a(Vlove
p3560
g6
tp3561
aa(lp3562
(Vn't
p3563
g3
tp3564
a(Vlet
p3565
g6
tp3566
aa(lp3567
(Veven
p3568
g3
tp3569
a(Vhave
p3570
g6
tp3571
aa(lp3572
(Vn't
p3573
g3
tp3574
a(Vclose
p3575
g10
tp3576
aa(lp3577
g3576
a(Vads
p3578
g39
tp3579
aa(lp3580
(Vn't
p3581
g3
tp3582
a(Vlet
p3583
g6
tp3584
aa(lp3585
(Vespecially
p3586
g3
tp3587
a(Vlove
p3588
g6
tp3589
aa(lp3590
(Vn't
p3591
g3
tp3592
a(Vlet
p3593
g6
tp3594
aa(lp3595
(Vother
p3596
g10
tp3597
a(Vangry
p3598
g13
tp3599
aa(lp3600
(Vfun
p3601
g13
tp3602
a(Vnew
p3603
g10
tp3604
aa(lp3605
g3604
a(Vtrust
p3606
g13
tp3607
aa(lp3608
(Vn't
p3609
g3
tp3610
a(Vlet
p3611
g6
tp3612
aa(lp3613
(Vother
p3614
g10
tp3615
a(Vangry
p3616
g13
tp3617
aa(lp3618
(Vnot
p3619
g3
tp3620
a(Vwork
p3621
g6
tp3622
aa(lp3623
(Vnot
p3624
g3
tp3625
a(Vwork
p3626
g6
tp3627
aa(lp3628
(Vother
p3629
g10
tp3630
a(Vangry
p3631
g13
tp3632
aa(lp3633
(Vepic
p3634
g10
tp3635
a(Vgame
p3636
g13
tp3637
aa(lp3638
(Vepic
p3639
g10
tp3640
a(Vgame
p3641
g13
tp3642
aa(lp3643
(Vdifferent
p3644
g10
tp3645
a(Vview
p3646
g13
tp3647
aa(lp3648
(Vdifferent
p3649
g10
tp3650
a(Vview
p3651
g13
tp3652
aa(lp3653
(Vad
p3654
g13
tp3655
a(Vfree
p3656
g10
tp3657
aa(lp3658
(Vstill
p3659
g3
tp3660
a(Vgetting
p3661
g101
tp3662
aa(lp3663
(Vdifferent
p3664
g10
tp3665
a(Vview
p3666
g13
tp3667
aa(lp3668
(VJust
p3669
g3
tp3670
a(Vgot
p3671
g122
tp3672
aa(lp3673
(Vangry
p3674
g10
tp3675
a(Vbirds
p3676
g39
tp3677
aa(lp3678
(Vangry
p3679
g10
tp3680
a(Vbirds
p3681
g39
tp3682
aa(lp3683
(Vad
p3684
g13
tp3685
a(Vfree
p3686
g10
tp3687
aa(lp3688
(Vstill
p3689
g3
tp3690
a(Vgetting
p3691
g101
tp3692
aa(lp3693
(Vmuch
p3694
g3
tp3695
a(Vfun
p3696
g50
tp3697
aa(lp3698
(VJust
p3699
g3
tp3700
a(Vgot
p3701
g122
tp3702
aa(lp3703
(Vangry
p3704
g10
tp3705
a(Vbirds
p3706
g39
tp3707
aa(lp3708
(Vangry
p3709
g10
tp3710
a(Vbirds
p3711
g39
tp3712
aa(lp3713
(Vmuch
p3714
g3
tp3715
a(Vfun
p3716
g50
tp3717
aa(lp3718
(Vangry
p3719
g10
tp3720
a(Vbirds
p3721
g39
tp3722
aa(lp3723
(Vangry
p3724
g10
tp3725
a(Vbirds
p3726
g39
tp3727
aa(lp3728
(Vmuch
p3729
g3
tp3730
a(Vfun
p3731
g50
tp3732
aa(lp3733
(Vnew
p3734
g10
tp3735
a(Vpink
p3736
g13
tp3737
aa(lp3738
(Vpretty
p3739
g3
tp3740
a(Vcool
p3741
g10
tp3742
aa(lp3743
(Vnew
p3744
g10
tp3745
a(Vpower
p3746
g13
tp3747
aa(lp3748
(V3yr
p3749
g10
tp3750
a(Vold
p3751
g10
tp3752
aa(lp3753
g3752
a(Vgson
p3754
g13
tp3755
aa(lp3756
(Vvery
p3757
g3
tp3758
a(Vnice
p3759
g10
tp3760
aa(lp3761
(Vnew
p3762
g10
tp3763
a(Vgame
p3764
g13
tp3765
aa(lp3766
(Vnew
p3767
g10
tp3768
a(Vpink
p3769
g13
tp3770
aa(lp3771
(Vpretty
p3772
g3
tp3773
a(Vcool
p3774
g10
tp3775
aa(lp3776
(Vnew
p3777
g10
tp3778
a(Vpower
p3779
g13
tp3780
aa(lp3781
(V3yr
p3782
g10
tp3783
a(Vold
p3784
g10
tp3785
aa(lp3786
g3785
a(Vgson
p3787
g13
tp3788
aa(lp3789
(Vvery
p3790
g3
tp3791
a(Vnice
p3792
g10
tp3793
aa(lp3794
(Vnew
p3795
g10
tp3796
a(Vgame
p3797
g13
tp3798
aa(lp3799
(Vn't
p3800
g3
tp3801
a(Vmove
p3802
g6
tp3803
aa(lp3804
(Vsecond
p3805
g10
tp3806
a(Vlevel
p3807
g13
tp3808
aa(lp3809
(Vnew
p3810
g10
tp3811
a(Vpink
p3812
g13
tp3813
aa(lp3814
(Vpretty
p3815
g3
tp3816
a(Vcool
p3817
g10
tp3818
aa(lp3819
(Vnew
p3820
g10
tp3821
a(Vpower
p3822
g13
tp3823
aa(lp3824
(Vvery
p3825
g3
tp3826
a(Vnice
p3827
g10
tp3828
aa(lp3829
(Vn't
p3830
g3
tp3831
a(Vmove
p3832
g6
tp3833
aa(lp3834
(Vsecond
p3835
g10
tp3836
a(Vlevel
p3837
g13
tp3838
aa(lp3839
(Vcharacters
p3840
g39
tp3841
a(Vnew
p3842
g10
tp3843
aa(lp3844
(Vn't
p3845
g3
tp3846
a(Vmove
p3847
g6
tp3848
aa(lp3849
(Vsecond
p3850
g10
tp3851
a(Vlevel
p3852
g13
tp3853
aa(lp3854
(Vcharacters
p3855
g39
tp3856
a(Vnew
p3857
g10
tp3858
aa(lp3859
(Vvery
p3860
g3
tp3861
a(Vaddictive
p3862
g10
tp3863
aa(lp3864
g3863
a(Vgame
p3865
g13
tp3866
aa(lp3867
(Vcharacters
p3868
g39
tp3869
a(Vnew
p3870
g10
tp3871
aa(lp3872
(Vnew
p3873
g10
tp3874
a(Vpowers
p3875
g39
tp3876
aa(lp3877
(Vvery
p3878
g3
tp3879
a(Vaddictive
p3880
g10
tp3881
aa(lp3882
g3881
a(Vgame
p3883
g13
tp3884
aa(lp3885
(Vn't
p3886
g3
tp3887
a(Vcuz
p3888
g6
tp3889
aa(lp3890
(Vvery
p3891
g10
tp3892
a(Vannoying
p3893
g13
tp3894
aa(lp3895
(Vthen
p3896
g3
tp3897
a(Vexit
p3898
g6
tp3899
aa(lp3900
(Vonly
p3901
g3
tp3902
a(Vtake
p3903
g6
tp3904
aa(lp3905
(Vnot
p3906
g3
tp3907
a(Vlet
p3908
g6
tp3909
aa(lp3910
(Vvery
p3911
g3
tp3912
a(Vgood
p3913
g10
tp3914
aa(lp3915
(Vprevious
p3916
g10
tp3917
a(Vgames
p3918
g39
tp3919
aa(lp3920
(Vn't
p3921
g3
tp3922
a(Vbeat
p3923
g6
tp3924
aa(lp3925
(Vvery
p3926
g3
tp3927
a(Vfun
p3928
g50
tp3929
aa(lp3930
(Vn't
p3931
g3
tp3932
a(Vcuz
p3933
g6
tp3934
aa(lp3935
(Vvery
p3936
g10
tp3937
a(Vannoying
p3938
g13
tp3939
aa(lp3940
(Vthen
p3941
g3
tp3942
a(Vexit
p3943
g6
tp3944
aa(lp3945
(Vonly
p3946
g3
tp3947
a(Vtake
p3948
g6
tp3949
aa(lp3950
(Vnot
p3951
g3
tp3952
a(Vlet
p3953
g6
tp3954
aa(lp3955
(Vvery
p3956
g3
tp3957
a(Vgood
p3958
g10
tp3959
aa(lp3960
(Vprevious
p3961
g10
tp3962
a(Vgames
p3963
g39
tp3964
aa(lp3965
(Vn't
p3966
g3
tp3967
a(Vbeat
p3968
g6
tp3969
aa(lp3970
(Vvery
p3971
g3
tp3972
a(Vfun
p3973
g50
tp3974
aa(lp3975
(Vpretty
p3976
g3
tp3977
a(Vfreaking
p3978
g101
tp3979
aa(lp3980
(Vsomething
p3981
g13
tp3982
a(Vnew
p3983
g10
tp3984
aa(lp3985
(VReally
p3986
g3
tp3987
a(Vloving
p3988
g101
tp3989
aa(lp3990
(Vangry
p3991
g10
tp3992
a(Vbirds
p3993
g39
tp3994
aa(lp3995
(Veventually
p3996
g3
tp3997
a(Vgot
p3998
g122
tp3999
aa(lp4000
(Vnext
p4001
g10
tp4002
a(Vupdate
p4003
g13
tp4004
aa(lp4005
(Vgood
p4006
g10
tp4007
a(Vangry
p4008
g13
tp4009
aa(lp4010
(Vlast
p4011
g10
tp4012
a(Vupdate
p4013
g13
tp4014
aa(lp4015
(Vsame
p4016
g10
tp4017
a(Vresult
p4018
g13
tp4019
aa(lp4020
(Vmost
p4021
g146
tp4022
a(Vinteresting
p4023
g10
tp4024
aa(lp4025
(Vstill
p4026
g3
tp4027
a(Vawful
p4028
g10
tp4029
aa(lp4030
(Vlow
p4031
g10
tp4032
a(Vrate
p4033
g13
tp4034
aa(lp4035
(Vn't
p4036
g3
tp4037
a(Vplay
p4038
g6
tp4039
aa(lp4040
(Vreluctantly
p4041
g3
tp4042
a(Vspent
p4043
g122
tp4044
aa(lp4045
(Vnever
p4046
g3
tp4047
a(Vgot
p4048
g122
tp4049
aa(lp4050
(Vvery
p4051
g3
tp4052
a(Vaddictive
p4053
g10
tp4054
aa(lp4055
(Vvery
p4056
g3
tp4057
a(Vfun
p4058
g10
tp4059
aa(lp4060
(Vclassic
p4061
g10
tp4062
a(Vcharacters
p4063
g39
tp4064
aa(lp4065
(Vn't
p4066
g3
tp4067
a(Vhave
p4068
g6
tp4069
aa(lp4070
(VReally
p4071
g3
tp4072
a(Vfun
p4073
g50
tp4074
aa(lp4075
(Ventertaining
p4076
g10
tp4077
a(Vgame
p4078
g13
tp4079
aa(lp4080
(Vn't
p4081
g3
tp4082
a(Vget
p4083
g6
tp4084
aa(lp4085
(Vangry
p4086
g10
tp4087
a(Vbirds
p4088
g39
tp4089
aa(lp4090
(Vnot
p4091
g3
tp4092
a(Vusing
p4093
g101
tp4094
aa(lp4095
(Vnext
p4096
g10
tp4097
a(Vangry
p4098
g13
tp4099
aa(lp4100
(Vangry
p4101
g10
tp4102
a(Vbirds
p4103
g39
tp4104
aa(lp4105
(Vtoo
p4106
g3
tp4107
a(Vbig
p4108
g10
tp4109
aa(lp4110
(Vvery
p4111
g3
tp4112
a(Vcute
p4113
g10
tp4114
aa(lp4115
(Vvarious
p4116
g10
tp4117
a(Vfeatures
p4118
g39
tp4119
aa(lp4120
(Vbig
p4121
g10
tp4122
a(Vboss
p4123
g13
tp4124
aa(lp4125
(Vdarth
p4126
g10
tp4127
a(Vpig
p4128
g13
tp4129
aa(lp4130
(Vfunny
p4131
g10
tp4132
a(Vstar
p4133
g13
tp4134
aa(lp4135
(Vmany
p4136
g10
tp4137
a(Vfresh
p4138
g10
tp4139
aa(lp4140
(Venjoyable
p4141
g10
tp4142
a(Videas
p4143
g39
tp4144
aa(lp4145
(Vreally
p4146
g3
tp4147
a(Vexcited
p4148
g50
tp4149
aa(lp4150
(Veven
p4151
g3
tp4152
a(Vload
p4153
g6
tp4154
aa(lp4155
(Vn't
p4156
g3
tp4157
a(Vplay
p4158
g6
tp4159
aa(lp4160
(Vn't
p4161
g3
tp4162
a(Vshow
p4163
g6
tp4164
aa(lp4165
(Vaboslutly
p4166
g3
tp4167
a(Vamazing
p4168
g101
tp4169
aa(lp4170
(Vlittle
p4171
g3
tp4172
a(Vanoying
p4173
g101
tp4174
aa(lp4175
(Voverall
p4176
g10
tp4177
a(Vgreat
p4178
g10
tp4179
aa(lp4180
(Vn't
p4181
g3
tp4182
a(Vgon
p4183
g6
tp4184
aa(lp4185
(VNOT
p4186
g3
tp4187
a(Vdisappointed
p4188
g50
tp4189
aa(lp4190
(Vhuge
p4191
g10
tp4192
a(Vhelp
p4193
g13
tp4194
aa(lp4195
(Vn't
p4196
g3
tp4197
a(Vunlock
p4198
g6
tp4199
aa(lp4200
(Valso
p4201
g3
tp4202
a(Vhappened
p4203
g122
tp4204
aa(lp4205
(Vgood
p4206
g10
tp4207
a(Vgame
p4208
g13
tp4209
aa(lp4210
(Vpretty
p4211
g3
tp4212
a(Vsweet
p4213
g10
tp4214
aa(lp4215
(Voriginal
p4216
g10
tp4217
a(Vangry
p4218
g13
tp4219
aa(lp4220
(Vangry
p4221
g10
tp4222
a(Vbird
p4223
g13
tp4224
aa(lp4225
(Vsame
p4226
g10
tp4227
a(Vthing
p4228
g13
tp4229
aa(lp4230
(Vnot
p4231
g3
tp4232
a(Vworking
p4233
g101
tp4234
aa(lp4235
(Vblack
p4236
g10
tp4237
a(Vscreen
p4238
g13
tp4239
aa(lp4240
(Vn't
p4241
g3
tp4242
a(Vexist
p4243
g6
tp4244
aa(lp4245
(VAbsolutely
p4246
g3
tp4247
a(Vamazing
p4248
g101
tp4249
aa(lp4250
(Vn't
p4251
g3
tp4252
a(Vopen
p4253
g6
tp4254
aa(lp4255
(V.I
p4256
g10
tp4257
a(Vneeeeed
p4258
g13
tp4259
aa(lp4260
(Vangry
p4261
g10
tp4262
a(Vbirds
p4263
g39
tp4264
aa(lp4265
(Vnot
p4266
g3
tp4267
a(Vwork
p4268
g6
tp4269
aa(lp4270
(Vnot
p4271
g3
tp4272
a(Vdownload
p4273
g6
tp4274
aa(lp4275
(Vhardly
p4276
g3
tp4277
a(Vget
p4278
g6
tp4279
aa(lp4280
(Vnew
p4281
g10
tp4282
a(Vupdate
p4283
g13
tp4284
aa(lp4285
(Vblack
p4286
g10
tp4287
a(Vsquares
p4288
g39
tp4289
aa(lp4290
(Vactual
p4291
g10
tp4292
a(Vgraphics
p4293
g39
tp4294
aa(lp4295
(Vn't
p4296
g3
tp4297
a(Vsay
p4298
g6
tp4299
aa(lp4300
(Venough
p4301
g10
tp4302
a(Vgood
p4303
g10
tp4304
aa(lp4305
g4304
a(Vthings
p4306
g39
tp4307
aa(lp4308
(Vn't
p4309
g3
tp4310
a(Vwant
p4311
g6
tp4312
aa(lp4313
(Vvery
p4314
g3
tp4315
a(Vstrategic
p4316
g10
tp4317
aa(lp4318
g4317
a(Vturn
p4319
g13
tp4320
aa(lp4321
(Vonly
p4322
g3
tp4323
a(Vthrilled
p4324
g50
tp4325
aa(lp4326
(Vyoung
p4327
g10
tp4328
a(Vones
p4329
g39
tp4330
aa(lp4331
(Vvery
p4332
g3
tp4333
a(Vintuitive
p4334
g10
tp4335
aa(lp4336
(Vrandomly
p4337
g3
tp4338
a(Vhave
p4339
g6
tp4340
aa(lp4341
(Ventire
p4342
g10
tp4343
a(Vlevel
p4344
g13
tp4345
aa(lp4346
(Vonly
p4347
g3
tp4348
a(Vshot
p4349
g10
tp4350
aa(lp4351
(Vn't
p4352
g3
tp4353
a(Vthink
p4354
g6
tp4355
aa(lp4356
(Vstill
p4357
g3
tp4358
a(Vbe
p4359
g6
tp4360
aa(lp4361
(Vmuch
p4362
g3
tp4363
a(Vfun
p4364
g50
tp4365
aa(lp4366
(Vgreat
p4367
g10
tp4368
a(Vfun
p4369
g13
tp4370
aa(lp4371
(Vn't
p4372
g3
tp4373
a(Vgo
p4374
g6
tp4375
aa(lp4376
(Vreally
p4377
g3
tp4378
a(Vdid
p4379
g122
tp4380
aa(lp4381
(Vso
p4382
g3
tp4383
a(VAMAZING
p4384
g101
tp4385
aa(lp4386
(Vn't
p4387
g3
tp4388
a(Vdownload
p4389
g6
tp4390
aa(lp4391
(Vn't
p4392
g3
tp4393
a(Vwork
p4394
g6
tp4395
aa(lp4396
(Vangry
p4397
g10
tp4398
a(Vbirds
p4399
g39
tp4400
aa(lp4401
(Vjust
p4402
g3
tp4403
a(Vgot
p4404
g122
tp4405
aa(lp4406
(Vangry
p4407
g10
tp4408
a(Vbirds
p4409
g39
tp4410
aa(lp4411
(Vfresh
p4412
g10
tp4413
a(V'another
p4414
g10
tp4415
aa(lp4416
(Vfresh
p4417
g10
tp4418
a(Vtake
p4419
g13
tp4420
aa(lp4421
(VReally
p4422
g3
tp4423
a(Vfun
p4424
g50
tp4425
aa(lp4426
(Vnew
p4427
g10
tp4428
a(Vtheme
p4429
g13
tp4430
aa(lp4431
(Vexciting
p4432
g10
tp4433
a(Vnew
p4434
g10
tp4435
aa(lp4436
g4435
a(Vabilities
p4437
g39
tp4438
aa(lp4439
(Vn't
p4440
g3
tp4441
a(Vstop
p4442
g6
tp4443
aa(lp4444
(VBrilliant
p4445
g10
tp4446
a(Vgameplay
p4447
g13
tp4448
aa(lp4449
(Vwell
p4450
g3
tp4451
a(Vintergrated
p4452
g50
tp4453
aa(lp4454
(Vn't
p4455
g3
tp4456
a(Vknow
p4457
g6
tp4458
aa(lp4459
(Vlast
p4460
g10
tp4461
a(Vangry
p4462
g13
tp4463
aa(lp4464
(Vever
p4465
g3
tp4466
a(Vbe
p4467
g6
tp4468
aa(lp4469
(Vmobile
p4470
g10
tp4471
a(Vgame
p4472
g13
tp4473
aa(lp4474
(Vnew
p4475
g10
tp4476
a(Vlevels
p4477
g39
tp4478
aa(lp4479
(Vinternal
p4480
g10
tp4481
a(Vmemory
p4482
g13
tp4483
aa(lp4484
(Vdownload
p4485
g10
tp4486
a(Vangry
p4487
g13
tp4488
aa(lp4489
(Voriginal
p4490
g10
tp4491
a(Vangry
p4492
g13
tp4493
aa(lp4494
(Vunlockable
p4495
g10
tp4496
a(Varea
p4497
g13
tp4498
aa(lp4499
(Vnot
p4500
g3
tp4501
a(Vaccess
p4502
g6
tp4503
aa(lp4504
(Vn't
p4505
g3
tp4506
a(Vknow
p4507
g6
tp4508
aa(lp4509
(Vextra
p4510
g10
tp4511
a(Vmissions
p4512
g39
tp4513
aa(lp4514
(Vnot
p4515
g3
tp4516
a(Vget
p4517
g6
tp4518
aa(lp4519
(Vextra
p4520
g10
tp4521
a(Vlevels
p4522
g39
tp4523
aa(lp4524
(Vjust
p4525
g3
tp4526
a(Vrocking
p4527
g101
tp4528
aa(lp4529
(Vfinally
p4530
g3
tp4531
a(Vchanged
p4532
g122
tp4533
aa(lp4534
(Vnormal
p4535
g10
tp4536
a(Vsized
p4537
g10
tp4538
aa(lp4539
(Vso
p4540
g3
tp4541
a(Vintrusive
p4542
g10
tp4543
aa(lp4544
(Vn't
p4545
g3
tp4546
a(Vfinish
p4547
g6
tp4548
aa(lp4549
(Vvisually
p4550
g3
tp4551
a(Vnoisy
p4552
g10
tp4553
aa(lp4554
g4553
a(Vad
p4555
g13
tp4556
aa(lp4557
(Vnot
p4558
g3
tp4559
a(Vbe
p4560
g6
tp4561
aa(lp4562
(Vbad
p4563
g10
tp4564
a(Vpiggies
p4565
g39
tp4566
aa(lp4567
(Vvery
p4568
g3
tp4569
a(Vaddictive
p4570
g10
tp4571
aa(lp4572
(Vn't
p4573
g3
tp4574
a(Vstop
p4575
g6
tp4576
aa(lp4577
(Vnot
p4578
g3
tp4579
a(Vallowing
p4580
g101
tp4581
aa(lp4582
(Vdefinitely
p4583
g3
tp4584
a(Vbe
p4585
g6
tp4586
aa(lp4587
(Vmany
p4588
g10
tp4589
a(Vothers
p4590
g39
tp4591
aa(lp4592
(Vother
p4593
g10
tp4594
a(Vlevel
p4595
g13
tp4596
aa(lp4597
(Vnot
p4598
g3
tp4599
a(Vgain
p4600
g6
tp4601
aa(lp4602
(VNot
p4603
g3
tp4604
a(Vmany
p4605
g10
tp4606
aa(lp4607
(Vreally
p4608
g3
tp4609
a(Vdifferent
p4610
g10
tp4611
aa(lp4612
(Vgreen
p4613
g10
tp4614
a(Vlight
p4615
g13
tp4616
aa(lp4617
(Vn't
p4618
g3
tp4619
a(Vever
p4620
g6
tp4621
aa(lp4622
(Vtime
p4623
g13
tp4624
a(Vgreat
p4625
g10
tp4626
aa(lp4627
(Vn't
p4628
g3
tp4629
a(Vhave
p4630
g6
tp4631
aa(lp4632
(Venough
p4633
g10
tp4634
a(Vspace
p4635
g13
tp4636
aa(lp4637
(Vnew
p4638
g10
tp4639
a(Vangry
p4640
g13
tp4641
aa(lp4642
(Vthen
p4643
g3
tp4644
a(Vreload
p4645
g6
tp4646
aa(lp4647
(Vlast
p4648
g10
tp4649
a(Vapp
p4650
g13
tp4651
aa(lp4652
(Valso
p4653
g3
tp4654
a(Vtask
p4655
g6
tp4656
aa(lp4657
(Vtotally
p4658
g3
tp4659
a(Vmessed
p4660
g122
tp4661
aa(lp4662
(Vreally
p4663
g3
tp4664
a(Vupset
p4665
g50
tp4666
aa(lp4667
(Vinnovative
p4668
g10
tp4669
a(Vtheme
p4670
g13
tp4671
aa(lp4672
(Voriginal
p4673
g10
tp4674
a(Vbird-slinging
p4675
g10
tp4676
aa(lp4677
g4676
a(Vgame
p4678
g13
tp4679
aa(lp4680
(Vnew
p4681
g10
tp4682
a(Vpowers
p4683
g39
tp4684
aa(lp4685
(Vcriminal
p4686
g10
tp4687
a(Voffence
p4688
g13
tp4689
aa(lp4690
(VC'mon
p4691
g10
tp4692
a(Vstar
p4693
g13
tp4694
aa(lp4695
(Vangry
p4696
g10
tp4697
a(Vbirds
p4698
g39
tp4699
aa(lp4700
(Vwhole
p4701
g10
tp4702
a(Vnutha
p4703
g13
tp4704
aa(lp4705
(Vso
p4706
g3
tp4707
a(Vstop
p4708
g6
tp4709
aa(lp4710
(Vnot
p4711
g3
tp4712
a(Vhave
p4713
g6
tp4714
aa(lp4715
(Vbig
p4716
g10
tp4717
a(Vfan
p4718
g13
tp4719
aa(lp4720
(Vquite
p4721
g3
tp4722
a(Vgood
p4723
g10
tp4724
aa(lp4725
(Vso
p4726
g3
tp4727
a(Vyeah
p4728
g10
tp4729
aa(lp4730
(Vdefinitely
p4731
g3
tp4732
a(Vworth
p4733
g10
tp4734
aa(lp4735
(VDefinitely
p4736
g3
tp4737
a(Vworth
p4738
g10
tp4739
aa(lp4740
(Vother
p4741
g10
tp4742
a(Vangry
p4743
g13
tp4744
aa(lp4745
(Vyears
p4746
g39
tp4747
a(Vold
p4748
g10
tp4749
aa(lp4750
(Vjust
p4751
g3
tp4752
a(Vdosent
p4753
g10
tp4754
aa(lp4755
g4754
a(Vfeel
p4756
g13
tp4757
aa(lp4758
(Vblack
p4759
g10
tp4760
a(Vbird
p4761
g13
tp4762
aa(lp4763
(Vgreat
p4764
g10
tp4765
a(Vgame
p4766
g13
tp4767
aa(lp4768
(Vangry
p4769
g10
tp4770
a(Vbirds
p4771
g39
tp4772
aa(lp4773
(VNOT
p4774
g3
tp4775
a(VBE
p4776
g6
tp4777
aa(lp4778
(Vn't
p4779
g3
tp4780
a(Vlike
p4781
g6
tp4782
aa(lp4783
(Vnow
p4784
g3
tp4785
a(Vplastering
p4786
g101
tp4787
aa(lp4788
(Vnew
p4789
g10
tp4790
a(Vgames
p4791
g39
tp4792
aa(lp4793
(Vother
p4794
g10
tp4795
a(Vversions
p4796
g39
tp4797
aa(lp4798
(Vangry
p4799
g10
tp4800
a(Vbirds
p4801
g39
tp4802
aa(lp4803
(Veven
p4804
g3
tp4805
a(Vupdating
p4806
g101
tp4807
aa(lp4808
(Vonly
p4809
g3
tp4810
a(Vintrusive
p4811
g10
tp4812
aa(lp4813
(Vrather
p4814
g3
tp4815
a(Vuse
p4816
g6
tp4817
aa(lp4818
(Vpretty
p4819
g3
tp4820
a(Vboring
p4821
g101
tp4822
aa(lp4823
(Vsimply
p4824
g3
tp4825
a(Vgoing
p4826
g101
tp4827
aa(lp4828
(Vn't
p4829
g3
tp4830
a(Vget
p4831
g6
tp4832
aa(lp4833
(Vnow
p4834
g3
tp4835
a(Vbeing
p4836
g101
tp4837
aa(lp4838
(Vn't
p4839
g3
tp4840
a(Vclose
p4841
g10
tp4842
aa(lp4843
(Val
p4844
g10
tp4845
a(Vcomes
p4846
g39
tp4847
aa(lp4848
(Vgreat
p4849
g10
tp4850
a(Vgame
p4851
g13
tp4852
aa(lp4853
(Vother
p4854
g10
tp4855
a(Vlevels
p4856
g39
tp4857
aa(lp4858
(Vlovable
p4859
g10
tp4860
a(Vgame
p4861
g13
tp4862
aa(lp4863
(Vmore
p4864
g990
tp4865
a(Vfun
p4866
g10
tp4867
aa(lp4868
(Vother
p4869
g10
tp4870
a(Vangry
p4871
g13
tp4872
aa(lp4873
(Vnot
p4874
g3
tp4875
a(Vwork
p4876
g6
tp4877
aa(lp4878
(VJust
p4879
g3
tp4880
a(Vupdated
p4881
g50
tp4882
aa(lp4883
(Vnew
p4884
g10
tp4885
a(Vlevels
p4886
g39
tp4887
aa(lp4888
(VJust
p4889
g3
tp4890
a(Vcurious
p4891
g10
tp4892
aa(lp4893
(Vcant
p4894
g10
tp4895
a(Vinstall
p4896
g13
tp4897
aa(lp4898
(Vnot
p4899
g3
tp4900
a(Vable
p4901
g10
tp4902
aa(lp4903
(Vn't
p4904
g3
tp4905
a(Vget
p4906
g6
tp4907
aa(lp4908
(Valways
p4909
g3
tp4910
a(Vliked
p4911
g122
tp4912
aa(lp4913
(Vtotally
p4914
g3
tp4915
a(Vaddictive
p4916
g10
tp4917
aa(lp4918
(Vangry
p4919
g10
tp4920
a(Vbirds
p4921
g39
tp4922
aa(lp4923
(Vreally
p4924
g3
tp4925
a(Vgreat
p4926
g10
tp4927
aa(lp4928
g4927
a(Vgame
p4929
g13
tp4930
aa(lp4931
(Vwell
p4932
g3
tp4933
a(Vworth
p4934
g10
tp4935
aa(lp4936
(Vonly
p4937
g3
tp4938
a(Vwant
p4939
g6
tp4940
aa(lp4941
(Voriginal
p4942
g10
tp4943
a(Vtrilogy
p4944
g13
tp4945
aa(lp4946
(Vsuper-duper
p4947
g10
tp4948
a(Vlightsaber
p4949
g13
tp4950
aa(lp4951
(Vfavorite
p4952
g10
tp4953
a(Vangry
p4954
g13
tp4955
aa(lp4956
(V.must
p4957
g10
tp4958
a(Vplay
p4959
g13
tp4960
aa(lp4961
(Vjust
p4962
g3
tp4963
a(Vcompleted
p4964
g122
tp4965
aa(lp4966
(Vnot
p4967
g3
tp4968
a(Vopened
p4969
g50
tp4970
aa(lp4971
(Vangry
p4972
g10
tp4973
a(Vbirds
p4974
g39
tp4975
aa(lp4976
(Vlight
p4977
g10
tp4978
a(Vsabers
p4979
g39
tp4980
aa(lp4981
(Vseveral
p4982
g10
tp4983
a(Vtimes
p4984
g39
tp4985
aa(lp4986
(Vn't
p4987
g3
tp4988
a(Vload
p4989
g6
tp4990
aa(lp4991
(Vgreat
p4992
g10
tp4993
a(Vfun
p4994
g13
tp4995
aa(lp4996
(Vn't
p4997
g3
tp4998
a(Vdowlond
p4999
g6
tp5000
aa(lp5001
(Vn't
p5002
g3
tp5003
a(Vdowlond
p5004
g6
tp5005
aa(lp5006
(Vjust
p5007
g3
tp5008
a(Vdid
p5009
g122
tp5010
aa(lp5011
(Vfirst
p5012
g10
tp5013
a(Vbit
p5014
g13
tp5015
aa(lp5016
(Vlong
p5017
g10
tp5018
a(Vtime
p5019
g13
tp5020
aa(lp5021
(Vso
p5022
g3
tp5023
a(Vgood
p5024
g10
tp5025
aa(lp5026
g5025
a(Vapp
p5027
g13
tp5028
aa(lp5029
(Vn't
p5030
g3
tp5031
a(Vrate
p5032
g6
tp5033
aa(lp5034
(Vn't
p5035
g3
tp5036
a(Vplay
p5037
g6
tp5038
aa(lp5039
(Vangry
p5040
g10
tp5041
a(Vbirds
p5042
g39
tp5043
aa(lp5044
(Vnot
p5045
g3
tp5046
a(Vnecessary
p5047
g10
tp5048
aa(lp5049
(Vvery
p5050
g3
tp5051
a(Vfun
p5052
g10
tp5053
aa(lp5054
(Vnever
p5055
g3
tp5056
a(Vdid
p5057
g122
tp5058
aa(lp5059
(Vthere
p5060
g3
tp5061
a(Vwas
p5062
g122
tp5063
aa(lp5064
(Vnot
p5065
g3
tp5066
a(Vrefuse
p5067
g6
tp5068
aa(lp5069
(Vn't
p5070
g3
tp5071
a(Vwait
p5072
g6
tp5073
aa(lp5074
(Vmore
p5075
g990
tp5076
a(Vstar
p5077
g10
tp5078
aa(lp5079
g5078
a(Vwars
p5080
g39
tp5081
aa(lp5082
(Vwonderful
p5083
g10
tp5084
a(Vabilities
p5085
g39
tp5086
aa(lp5087
(Vonly
p5088
g10
tp5089
a(Vdisappointing
p5090
g10
tp5091
aa(lp5092
g5091
a(Vfactor
p5093
g13
tp5094
aa(lp5095
(Vtrue
p5096
g10
tp5097
a(Vstart
p5098
g13
tp5099
aa(lp5100
(Vreally
p5101
g3
tp5102
a(Vappreciate
p5103
g10
tp5104
aa(lp5105
(Vwhole
p5106
g10
tp5107
a(Vfamily
p5108
g13
tp5109
aa(lp5110
(Vvery
p5111
g3
tp5112
a(Vfair
p5113
g10
tp5114
aa(lp5115
(Vn't
p5116
g3
tp5117
a(Vhave
p5118
g6
tp5119
aa(lp5120
(Vgood
p5121
g10
tp5122
a(Vtime
p5123
g13
tp5124
aa(lp5125
(Vn't
p5126
g3
tp5127
a(Vmake
p5128
g6
tp5129
aa(lp5130
(Voriginal
p5131
g10
tp5132
a(Vangry
p5133
g13
tp5134
aa(lp5135
(Vincredible
p5136
g10
tp5137
a(Vlittle
p5138
g13
tp5139
aa(lp5140
(Vepic
p5141
g10
tp5142
a(Vintegalactic
p5143
g10
tp5144
aa(lp5145
(Vcomplete
p5146
g10
tp5147
a(Vepisode
p5148
g13
tp5149
aa(lp5150
(Vvery
p5151
g3
tp5152
a(Vgood
p5153
g10
tp5154
aa(lp5155
(Vlast
p5156
g10
tp5157
a(Vupdate
p5158
g13
tp5159
aa(lp5160
(Vvery
p5161
g3
tp5162
a(Vmuch
p5163
g10
tp5164
aa(lp5165
(Vnot
p5166
g3
tp5167
a(Vget
p5168
g6
tp5169
aa(lp5170
(Vplay
p5171
g13
tp5172
a(Vother
p5173
g10
tp5174
aa(lp5175
g5174
a(Vlevels
p5176
g39
tp5177
aa(lp5178
(Vrich
p5179
g10
tp5180
a(Venough
p5181
g10
tp5182
aa(lp5183
g5182
a(Vcome
p5184
g13
tp5185
aa(lp5186
(Vperfect
p5187
g10
tp5188
a(Vstar
p5189
g13
tp5190
aa(lp5191
(Vangry
p5192
g10
tp5193
a(Vbirds
p5194
g39
tp5195
aa(lp5196
(Vvery
p5197
g3
tp5198
a(Vgood
p5199
g10
tp5200
aa(lp5201
(Vlast
p5202
g10
tp5203
a(Vupdate
p5204
g13
tp5205
aa(lp5206
(Vplay
p5207
g13
tp5208
a(Vother
p5209
g10
tp5210
aa(lp5211
g5210
a(Vlevels
p5212
g39
tp5213
aa(lp5214
(Vrich
p5215
g10
tp5216
a(Venough
p5217
g10
tp5218
aa(lp5219
g5218
a(Vcome
p5220
g13
tp5221
aa(lp5222
(Vnot
p5223
g3
tp5224
a(Vget
p5225
g6
tp5226
aa(lp5227
(Vnot
p5228
g3
tp5229
a(Vopen
p5230
g6
tp5231
aa(lp5232
(Vsecond
p5233
g10
tp5234
a(Vtime
p5235
g13
tp5236
aa(lp5237
(Vnext
p5238
g10
tp5239
a(Vplanet
p5240
g13
tp5241
aa(lp5242
(Vactually
p5243
g3
tp5244
a(Vpay
p5245
g6
tp5246
aa(lp5247
(Vown
p5248
g10
tp5249
a(Vlevels
p5250
g39
tp5251
aa(lp5252
(Vown
p5253
g10
tp5254
a(Vfort
p5255
g13
tp5256
aa(lp5257
(Vnot
p5258
g3
tp5259
a(Vopen
p5260
g6
tp5261
aa(lp5262
(Vsecond
p5263
g10
tp5264
a(Vtime
p5265
g13
tp5266
aa(lp5267
(Vnext
p5268
g10
tp5269
a(Vlevel
p5270
g13
tp5271
aa(lp5272
(Vnot
p5273
g3
tp5274
a(Vunlock
p5275
g6
tp5276
aa(lp5277
(Vnext
p5278
g10
tp5279
a(Vplanet
p5280
g13
tp5281
aa(lp5282
(Vactually
p5283
g3
tp5284
a(Vpay
p5285
g6
tp5286
aa(lp5287
(Vown
p5288
g10
tp5289
a(Vlevels
p5290
g39
tp5291
aa(lp5292
(Vown
p5293
g10
tp5294
a(Vfort
p5295
g13
tp5296
aa(lp5297
(Vjust
p5298
g3
tp5299
a(Vplain
p5300
g6
tp5301
aa(lp5302
(Veven
p5303
g3
tp5304
a(Vopen
p5305
g10
tp5306
aa(lp5307
(Vnot
p5308
g3
tp5309
a(Vopen
p5310
g6
tp5311
aa(lp5312
(Vsecond
p5313
g10
tp5314
a(Vtime
p5315
g13
tp5316
aa(lp5317
(Vnext
p5318
g10
tp5319
a(Vlevel
p5320
g13
tp5321
aa(lp5322
(Vnot
p5323
g3
tp5324
a(Vunlock
p5325
g6
tp5326
aa(lp5327
(Vnext
p5328
g10
tp5329
a(Vplanet
p5330
g13
tp5331
aa(lp5332
(Vjust
p5333
g3
tp5334
a(Vplain
p5335
g6
tp5336
aa(lp5337
(Veven
p5338
g3
tp5339
a(Vopen
p5340
g10
tp5341
aa(lp5342
(Veven
p5343
g3
tp5344
a(Vopen
p5345
g10
tp5346
aa(lp5347
(Vnot
p5348
g3
tp5349
a(Vgood
p5350
g10
tp5351
aa(lp5352
g5351
a(Vfreezes
p5353
g39
tp5354
aa(lp5355
(Vnot
p5356
g3
tp5357
a(Vgood
p5358
g10
tp5359
aa(lp5360
g5359
a(Vfreezes
p5361
g39
tp5362
aa(lp5363
(Vbird
p5364
g10
tp5365
a(Vpreview
p5366
g13
tp5367
aa(lp5368
(Vmany
p5369
g10
tp5370
a(Vnew
p5371
g10
tp5372
aa(lp5373
g5372
a(Vones
p5374
g39
tp5375
aa(lp5376
(Vnot
p5377
g3
tp5378
a(Vgood
p5379
g10
tp5380
aa(lp5381
g5380
a(Vfreezes
p5382
g39
tp5383
aa(lp5384
(VNot
p5385
g3
tp5386
a(Vhappy
p5387
g10
tp5388
aa(lp5389
(Vnext
p5390
g10
tp5391
a(Vangry
p5392
g13
tp5393
aa(lp5394
(VNot
p5395
g3
tp5396
a(Vhappy
p5397
g10
tp5398
aa(lp5399
(Veasiest
p5400
g10
tp5401
a(Vangry
p5402
g13
tp5403
aa(lp5404
(Vnext
p5405
g10
tp5406
a(Vangry
p5407
g13
tp5408
aa(lp5409
(VNot
p5410
g3
tp5411
a(Vhappy
p5412
g10
tp5413
aa(lp5414
(Veasiest
p5415
g10
tp5416
a(Vangry
p5417
g13
tp5418
aa(lp5419
(Vnext
p5420
g10
tp5421
a(Vangry
p5422
g13
tp5423
aa(lp5424
(VAbsolutely
p5425
g3
tp5426
a(Ventertaining
p5427
g101
tp5428
aa(lp5429
(Vcompletely
p5430
g3
tp5431
a(Vhappy
p5432
g10
tp5433
aa(lp5434
(Veasiest
p5435
g10
tp5436
a(Vangry
p5437
g13
tp5438
aa(lp5439
(Vnext
p5440
g10
tp5441
a(Vangry
p5442
g13
tp5443
aa(lp5444
(VAbsolutely
p5445
g3
tp5446
a(Ventertaining
p5447
g101
tp5448
aa(lp5449
(Vcompletely
p5450
g3
tp5451
a(Vhappy
p5452
g10
tp5453
aa(lp5454
(Vespecially
p5455
g3
tp5456
a(Vlove
p5457
g6
tp5458
aa(lp5459
(Vn't
p5460
g3
tp5461
a(Vlet
p5462
g6
tp5463
aa(lp5464
(Veasiest
p5465
g10
tp5466
a(Vangry
p5467
g13
tp5468
aa(lp5469
(Veven
p5470
g3
tp5471
a(Vhave
p5472
g6
tp5473
aa(lp5474
(Vfree
p5475
g10
tp5476
a(Vparts
p5477
g39
tp5478
aa(lp5479
(VAbsolutely
p5480
g3
tp5481
a(Ventertaining
p5482
g101
tp5483
aa(lp5484
(Vcompletely
p5485
g3
tp5486
a(Vhappy
p5487
g10
tp5488
aa(lp5489
(Vn't
p5490
g3
tp5491
a(Vlet
p5492
g6
tp5493
aa(lp5494
(Vespecially
p5495
g3
tp5496
a(Vlove
p5497
g6
tp5498
aa(lp5499
(Vn't
p5500
g3
tp5501
a(Vlet
p5502
g6
tp5503
aa(lp5504
(Veven
p5505
g3
tp5506
a(Vhave
p5507
g6
tp5508
aa(lp5509
(Vn't
p5510
g3
tp5511
a(Vclose
p5512
g10
tp5513
aa(lp5514
g5513
a(Vads
p5515
g39
tp5516
aa(lp5517
(Vn't
p5518
g3
tp5519
a(Vlet
p5520
g6
tp5521
aa(lp5522
(Vespecially
p5523
g3
tp5524
a(Vlove
p5525
g6
tp5526
aa(lp5527
(Vn't
p5528
g3
tp5529
a(Vlet
p5530
g6
tp5531
aa(lp5532
(Vother
p5533
g10
tp5534
a(Vangry
p5535
g13
tp5536
aa(lp5537
(Vfun
p5538
g13
tp5539
a(Vnew
p5540
g10
tp5541
aa(lp5542
g5541
a(Vtrust
p5543
g13
tp5544
aa(lp5545
(Vn't
p5546
g3
tp5547
a(Vlet
p5548
g6
tp5549
aa(lp5550
(Vother
p5551
g10
tp5552
a(Vangry
p5553
g13
tp5554
aa(lp5555
(Vnot
p5556
g3
tp5557
a(Vwork
p5558
g6
tp5559
aa(lp5560
(Vnot
p5561
g3
tp5562
a(Vwork
p5563
g6
tp5564
aa(lp5565
(Vother
p5566
g10
tp5567
a(Vangry
p5568
g13
tp5569
aa(lp5570
(Vepic
p5571
g10
tp5572
a(Vgame
p5573
g13
tp5574
aa(lp5575
(Vepic
p5576
g10
tp5577
a(Vgame
p5578
g13
tp5579
aa(lp5580
(Vdifferent
p5581
g10
tp5582
a(Vview
p5583
g13
tp5584
aa(lp5585
(Vdifferent
p5586
g10
tp5587
a(Vview
p5588
g13
tp5589
aa(lp5590
(Vad
p5591
g13
tp5592
a(Vfree
p5593
g10
tp5594
aa(lp5595
(Vstill
p5596
g3
tp5597
a(Vgetting
p5598
g101
tp5599
aa(lp5600
(Vdifferent
p5601
g10
tp5602
a(Vview
p5603
g13
tp5604
aa(lp5605
(VJust
p5606
g3
tp5607
a(Vgot
p5608
g122
tp5609
aa(lp5610
(Vangry
p5611
g10
tp5612
a(Vbirds
p5613
g39
tp5614
aa(lp5615
(Vangry
p5616
g10
tp5617
a(Vbirds
p5618
g39
tp5619
aa(lp5620
(Vad
p5621
g13
tp5622
a(Vfree
p5623
g10
tp5624
aa(lp5625
(Vstill
p5626
g3
tp5627
a(Vgetting
p5628
g101
tp5629
aa(lp5630
(Vmuch
p5631
g3
tp5632
a(Vfun
p5633
g50
tp5634
aa(lp5635
(VJust
p5636
g3
tp5637
a(Vgot
p5638
g122
tp5639
aa(lp5640
(Vangry
p5641
g10
tp5642
a(Vbirds
p5643
g39
tp5644
aa(lp5645
(Vangry
p5646
g10
tp5647
a(Vbirds
p5648
g39
tp5649
aa(lp5650
(Vmuch
p5651
g3
tp5652
a(Vfun
p5653
g50
tp5654
aa(lp5655
(Vangry
p5656
g10
tp5657
a(Vbirds
p5658
g39
tp5659
aa(lp5660
(Vangry
p5661
g10
tp5662
a(Vbirds
p5663
g39
tp5664
aa(lp5665
(Vmuch
p5666
g3
tp5667
a(Vfun
p5668
g50
tp5669
aa(lp5670
(Vnew
p5671
g10
tp5672
a(Vpink
p5673
g13
tp5674
aa(lp5675
(Vpretty
p5676
g3
tp5677
a(Vcool
p5678
g10
tp5679
aa(lp5680
(Vnew
p5681
g10
tp5682
a(Vpower
p5683
g13
tp5684
aa(lp5685
(V3yr
p5686
g10
tp5687
a(Vold
p5688
g10
tp5689
aa(lp5690
g5689
a(Vgson
p5691
g13
tp5692
aa(lp5693
(Vvery
p5694
g3
tp5695
a(Vnice
p5696
g10
tp5697
aa(lp5698
(Vnew
p5699
g10
tp5700
a(Vgame
p5701
g13
tp5702
aa(lp5703
(Vnew
p5704
g10
tp5705
a(Vpink
p5706
g13
tp5707
aa(lp5708
(Vpretty
p5709
g3
tp5710
a(Vcool
p5711
g10
tp5712
aa(lp5713
(Vnew
p5714
g10
tp5715
a(Vpower
p5716
g13
tp5717
aa(lp5718
(V3yr
p5719
g10
tp5720
a(Vold
p5721
g10
tp5722
aa(lp5723
g5722
a(Vgson
p5724
g13
tp5725
aa(lp5726
(Vvery
p5727
g3
tp5728
a(Vnice
p5729
g10
tp5730
aa(lp5731
(Vnew
p5732
g10
tp5733
a(Vgame
p5734
g13
tp5735
aa(lp5736
(Vn't
p5737
g3
tp5738
a(Vmove
p5739
g6
tp5740
aa(lp5741
(Vsecond
p5742
g10
tp5743
a(Vlevel
p5744
g13
tp5745
aa(lp5746
(Vnew
p5747
g10
tp5748
a(Vpink
p5749
g13
tp5750
aa(lp5751
(Vpretty
p5752
g3
tp5753
a(Vcool
p5754
g10
tp5755
aa(lp5756
(Vnew
p5757
g10
tp5758
a(Vpower
p5759
g13
tp5760
aa(lp5761
(Vvery
p5762
g3
tp5763
a(Vnice
p5764
g10
tp5765
aa(lp5766
(Vn't
p5767
g3
tp5768
a(Vmove
p5769
g6
tp5770
aa(lp5771
(Vsecond
p5772
g10
tp5773
a(Vlevel
p5774
g13
tp5775
aa(lp5776
(Vcharacters
p5777
g39
tp5778
a(Vnew
p5779
g10
tp5780
aa(lp5781
(Vn't
p5782
g3
tp5783
a(Vmove
p5784
g6
tp5785
aa(lp5786
(Vsecond
p5787
g10
tp5788
a(Vlevel
p5789
g13
tp5790
aa(lp5791
(Vcharacters
p5792
g39
tp5793
a(Vnew
p5794
g10
tp5795
aa(lp5796
(Vvery
p5797
g3
tp5798
a(Vaddictive
p5799
g10
tp5800
aa(lp5801
g5800
a(Vgame
p5802
g13
tp5803
aa(lp5804
(Vcharacters
p5805
g39
tp5806
a(Vnew
p5807
g10
tp5808
aa(lp5809
(Vnew
p5810
g10
tp5811
a(Vpowers
p5812
g39
tp5813
aa(lp5814
(Vvery
p5815
g3
tp5816
a(Vaddictive
p5817
g10
tp5818
aa(lp5819
g5818
a(Vgame
p5820
g13
tp5821
aa.