(dp0
I0
(lp1
(lp2
(Vn't
p3
S'RB'
p4
tp5
a(Vcuz
p6
S'VB'
p7
tp8
aa(lp9
(Vvery
p10
S'JJ'
p11
tp12
a(Vannoying
p13
S'NN'
p14
tp15
aasI1
(lp16
(lp17
(Vthen
p18
g4
tp19
a(Vexit
p20
g7
tp21
aa(lp22
(Vonly
p23
g4
tp24
a(Vtake
p25
g7
tp26
aa(lp27
(Vnot
p28
g4
tp29
a(Vlet
p30
g7
tp31
aasI2
(lp32
(lp33
(Vvery
p34
g4
tp35
a(Vgood
p36
g11
tp37
aa(lp38
(Vprevious
p39
g11
tp40
a(Vgames
p41
S'NNS'
p42
tp43
aa(lp44
(Vn't
p45
g4
tp46
a(Vbeat
p47
g7
tp48
aa(lp49
(Vvery
p50
g4
tp51
a(Vfun
p52
S'VBN'
p53
tp54
aasI3
(lp55
(lp56
(Vn't
p57
g4
tp58
a(Vcuz
p59
g7
tp60
aa(lp61
(Vvery
p62
g11
tp63
a(Vannoying
p64
g14
tp65
aasI4
(lp66
(lp67
(Vthen
p68
g4
tp69
a(Vexit
p70
g7
tp71
aa(lp72
(Vonly
p73
g4
tp74
a(Vtake
p75
g7
tp76
aa(lp77
(Vnot
p78
g4
tp79
a(Vlet
p80
g7
tp81
aasI5
(lp82
(lp83
(Vvery
p84
g4
tp85
a(Vgood
p86
g11
tp87
aa(lp88
(Vprevious
p89
g11
tp90
a(Vgames
p91
g42
tp92
aa(lp93
(Vn't
p94
g4
tp95
a(Vbeat
p96
g7
tp97
aa(lp98
(Vvery
p99
g4
tp100
a(Vfun
p101
g53
tp102
aasI6
(lp103
(lp104
(Vpretty
p105
g4
tp106
a(Vfreaking
p107
S'VBG'
p108
tp109
aa(lp110
(Vsomething
p111
g14
tp112
a(Vnew
p113
g11
tp114
aasI7
(lp115
(lp116
(VReally
p117
g4
tp118
a(Vloving
p119
g108
tp120
aasI8
(lp121
(lp122
(Vangry
p123
g11
tp124
a(Vbirds
p125
g42
tp126
aa(lp127
(Veventually
p128
g4
tp129
a(Vgot
p130
S'VBD'
p131
tp132
aa(lp133
(Vnext
p134
g11
tp135
a(Vupdate
p136
g14
tp137
aasI9
(lp138
(lp139
(Vgood
p140
g11
tp141
a(Vangry
p142
g14
tp143
aasI10
(lp144
(lp145
(Vlast
p146
g11
tp147
a(Vupdate
p148
g14
tp149
aasI11
(lp150
(lp151
(Vsame
p152
g11
tp153
a(Vresult
p154
g14
tp155
aasI12
(lp156
sI13
(lp157
sI14
(lp158
(lp159
(Vmost
p160
S'RBS'
p161
tp162
a(Vinteresting
p163
g11
tp164
aasI15
(lp165
sI16
(lp166
sI17
(lp167
sI18
(lp168
sI19
(lp169
sI20
(lp170
(lp171
(Vstill
p172
g4
tp173
a(Vawful
p174
g11
tp175
aa(lp176
(Vlow
p177
g11
tp178
a(Vrate
p179
g14
tp180
aasI21
(lp181
sI22
(lp182
(lp183
(Vn't
p184
g4
tp185
a(Vplay
p186
g7
tp187
aasI23
(lp188
(lp189
(Vreluctantly
p190
g4
tp191
a(Vspent
p192
g131
tp193
aa(lp194
(Vnever
p195
g4
tp196
a(Vgot
p197
g131
tp198
aasI24
(lp199
(lp200
(Vvery
p201
g4
tp202
a(Vaddictive
p203
g11
tp204
aa(lp205
(Vvery
p206
g4
tp207
a(Vfun
p208
g11
tp209
aasI25
(lp210
sI26
(lp211
sI27
(lp212
(lp213
(Vclassic
p214
g11
tp215
a(Vcharacters
p216
g42
tp217
aasI28
(lp218
(lp219
(Vn't
p220
g4
tp221
a(Vhave
p222
g7
tp223
aasI29
(lp224
(lp225
(VReally
p226
g4
tp227
a(Vfun
p228
g53
tp229
aasI30
(lp230
sI31
(lp231
sI32
(lp232
(lp233
(Ventertaining
p234
g11
tp235
a(Vgame
p236
g14
tp237
aasI33
(lp238
sI34
(lp239
(lp240
(Vn't
p241
g4
tp242
a(Vget
p243
g7
tp244
aasI35
(lp245
(lp246
(Vangry
p247
g11
tp248
a(Vbirds
p249
g42
tp250
aa(lp251
(Vnot
p252
g4
tp253
a(Vusing
p254
g108
tp255
aasI36
(lp256
sI37
(lp257
(lp258
(Vnext
p259
g11
tp260
a(Vangry
p261
g14
tp262
aasI38
(lp263
(lp264
(Vangry
p265
g11
tp266
a(Vbirds
p267
g42
tp268
aasI39
(lp269
sI40
(lp270
sI41
(lp271
(lp272
(Vtoo
p273
g4
tp274
a(Vbig
p275
g11
tp276
aasI42
(lp277
(lp278
(Vvery
p279
g4
tp280
a(Vcute
p281
g11
tp282
aa(lp283
(Vvarious
p284
g11
tp285
a(Vfeatures
p286
g42
tp287
aasI43
(lp288
(lp289
(Vbig
p290
g11
tp291
a(Vboss
p292
g14
tp293
aa(lp294
(Vdarth
p295
g11
tp296
a(Vpig
p297
g14
tp298
aasI44
(lp299
(lp300
(Vfunny
p301
g11
tp302
a(Vstar
p303
g14
tp304
aasI45
(lp305
(lp306
(Vmany
p307
g11
tp308
a(Vfresh
p309
g11
tp310
aa(lp311
(Venjoyable
p312
g11
tp313
a(Videas
p314
g42
tp315
aasI46
(lp316
(lp317
(Vreally
p318
g4
tp319
a(Vexcited
p320
g53
tp321
aa(lp322
(Veven
p323
g4
tp324
a(Vload
p325
g7
tp326
aa(lp327
(Vn't
p328
g4
tp329
a(Vplay
p330
g7
tp331
aa(lp332
(Vn't
p333
g4
tp334
a(Vshow
p335
g7
tp336
aasI47
(lp337
sI48
(lp338
(lp339
(Vaboslutly
p340
g4
tp341
a(Vamazing
p342
g108
tp343
aa(lp344
(Vlittle
p345
g4
tp346
a(Vanoying
p347
g108
tp348
aa(lp349
(Voverall
p350
g11
tp351
a(Vgreat
p352
g11
tp353
aasI49
(lp354
(lp355
(Vn't
p356
g4
tp357
a(Vgon
p358
g7
tp359
aa(lp360
(VNOT
p361
g4
tp362
a(Vdisappointed
p363
g53
tp364
aasI50
(lp365
(lp366
(Vhuge
p367
g11
tp368
a(Vhelp
p369
g14
tp370
aasI51
(lp371
(lp372
(Vn't
p373
g4
tp374
a(Vunlock
p375
g7
tp376
aa(lp377
(Valso
p378
g4
tp379
a(Vhappened
p380
g131
tp381
aa(lp382
(Vgood
p383
g11
tp384
a(Vgame
p385
g14
tp386
aasI52
(lp387
(lp388
(Vpretty
p389
g4
tp390
a(Vsweet
p391
g11
tp392
aasI53
(lp393
sI54
(lp394
(lp395
(Voriginal
p396
g11
tp397
a(Vangry
p398
g14
tp399
aa(lp400
(Vangry
p401
g11
tp402
a(Vbird
p403
g14
tp404
aasI55
(lp405
(lp406
(Vsame
p407
g11
tp408
a(Vthing
p409
g14
tp410
aasI56
(lp411
(lp412
(Vnot
p413
g4
tp414
a(Vworking
p415
g108
tp416
aa(lp417
(Vblack
p418
g11
tp419
a(Vscreen
p420
g14
tp421
aa(lp422
(Vn't
p423
g4
tp424
a(Vexist
p425
g7
tp426
aasI57
(lp427
sI58
(lp428
(lp429
(VAbsolutely
p430
g4
tp431
a(Vamazing
p432
g108
tp433
aasI59
(lp434
sI60
(lp435
(lp436
(Vn't
p437
g4
tp438
a(Vopen
p439
g7
tp440
aa(lp441
(V.I
p442
g11
tp443
a(Vneeeeed
p444
g14
tp445
aasI61
(lp446
(lp447
(Vangry
p448
g11
tp449
a(Vbirds
p450
g42
tp451
aasI62
(lp452
(lp453
(Vnot
p454
g4
tp455
a(Vwork
p456
g7
tp457
aasI63
(lp458
(lp459
(Vnot
p460
g4
tp461
a(Vdownload
p462
g7
tp463
aasI64
(lp464
sI65
(lp465
(lp466
(Vhardly
p467
g4
tp468
a(Vget
p469
g7
tp470
aasI66
(lp471
sI67
(lp472
(lp473
(Vnew
p474
g11
tp475
a(Vupdate
p476
g14
tp477
aa(lp478
(Vblack
p479
g11
tp480
a(Vsquares
p481
g42
tp482
aa(lp483
(Vactual
p484
g11
tp485
a(Vgraphics
p486
g42
tp487
aasI68
(lp488
(lp489
(Vn't
p490
g4
tp491
a(Vsay
p492
g7
tp493
aa(lp494
(Venough
p495
g11
tp496
a(Vgood
p497
g11
tp498
aa(lp499
g498
a(Vthings
p500
g42
tp501
aasI69
(lp502
(lp503
(Vn't
p504
g4
tp505
a(Vwant
p506
g7
tp507
aasI70
(lp508
sI71
(lp509
sI72
(lp510
sI73
(lp511
sI74
(lp512
sI75
(lp513
(lp514
(Vvery
p515
g4
tp516
a(Vstrategic
p517
g11
tp518
aa(lp519
g518
a(Vturn
p520
g14
tp521
aa(lp522
(Vonly
p523
g4
tp524
a(Vthrilled
p525
g53
tp526
aa(lp527
(Vyoung
p528
g11
tp529
a(Vones
p530
g42
tp531
aa(lp532
(Vvery
p533
g4
tp534
a(Vintuitive
p535
g11
tp536
aasI76
(lp537
(lp538
(Vrandomly
p539
g4
tp540
a(Vhave
p541
g7
tp542
aa(lp543
(Ventire
p544
g11
tp545
a(Vlevel
p546
g14
tp547
aa(lp548
(Vonly
p549
g4
tp550
a(Vshot
p551
g11
tp552
aasI77
(lp553
(lp554
(Vn't
p555
g4
tp556
a(Vthink
p557
g7
tp558
aa(lp559
(Vstill
p560
g4
tp561
a(Vbe
p562
g7
tp563
aa(lp564
(Vmuch
p565
g4
tp566
a(Vfun
p567
g53
tp568
aa(lp569
(Vgreat
p570
g11
tp571
a(Vfun
p572
g14
tp573
aasI78
(lp574
(lp575
(Vn't
p576
g4
tp577
a(Vgo
p578
g7
tp579
aasI79
(lp580
(lp581
(Vreally
p582
g4
tp583
a(Vdid
p584
g131
tp585
aasI80
(lp586
(lp587
(Vso
p588
g4
tp589
a(VAMAZING
p590
g108
tp591
aasI81
(lp592
(lp593
(Vn't
p594
g4
tp595
a(Vdownload
p596
g7
tp597
aa(lp598
(Vn't
p599
g4
tp600
a(Vwork
p601
g7
tp602
aasI82
(lp603
sI83
(lp604
sI84
(lp605
(lp606
(Vangry
p607
g11
tp608
a(Vbirds
p609
g42
tp610
aa(lp611
(Vjust
p612
g4
tp613
a(Vgot
p614
g131
tp615
aasI85
(lp616
sI86
(lp617
(lp618
(Vangry
p619
g11
tp620
a(Vbirds
p621
g42
tp622
aasI87
(lp623
(lp624
(Vfresh
p625
g11
tp626
a(V'another
p627
g11
tp628
aa(lp629
(Vfresh
p630
g11
tp631
a(Vtake
p632
g14
tp633
aasI88
(lp634
(lp635
(VReally
p636
g4
tp637
a(Vfun
p638
g53
tp639
aasI89
(lp640
(lp641
(Vnew
p642
g11
tp643
a(Vtheme
p644
g14
tp645
aa(lp646
(Vexciting
p647
g11
tp648
a(Vnew
p649
g11
tp650
aa(lp651
g650
a(Vabilities
p652
g42
tp653
aa(lp654
(Vn't
p655
g4
tp656
a(Vstop
p657
g7
tp658
aasI90
(lp659
(lp660
(VBrilliant
p661
g11
tp662
a(Vgameplay
p663
g14
tp664
aa(lp665
(Vwell
p666
g4
tp667
a(Vintergrated
p668
g53
tp669
aasI91
(lp670
(lp671
(Vn't
p672
g4
tp673
a(Vknow
p674
g7
tp675
aa(lp676
(Vlast
p677
g11
tp678
a(Vangry
p679
g14
tp680
aa(lp681
(Vever
p682
g4
tp683
a(Vbe
p684
g7
tp685
aasI92
(lp686
(lp687
(Vmobile
p688
g11
tp689
a(Vgame
p690
g14
tp691
aasI93
(lp692
sI94
(lp693
(lp694
(Vnew
p695
g11
tp696
a(Vlevels
p697
g42
tp698
aasI95
(lp699
(lp700
(Vinternal
p701
g11
tp702
a(Vmemory
p703
g14
tp704
aa(lp705
(Vdownload
p706
g11
tp707
a(Vangry
p708
g14
tp709
aa(lp710
(Voriginal
p711
g11
tp712
a(Vangry
p713
g14
tp714
aasI96
(lp715
(lp716
(Vunlockable
p717
g11
tp718
a(Varea
p719
g14
tp720
aa(lp721
(Vnot
p722
g4
tp723
a(Vaccess
p724
g7
tp725
aasI97
(lp726
(lp727
(Vn't
p728
g4
tp729
a(Vknow
p730
g7
tp731
aasI98
(lp732
(lp733
(Vextra
p734
g11
tp735
a(Vmissions
p736
g42
tp737
aa(lp738
(Vnot
p739
g4
tp740
a(Vget
p741
g7
tp742
aa(lp743
(Vextra
p744
g11
tp745
a(Vlevels
p746
g42
tp747
aa(lp748
(Vjust
p749
g4
tp750
a(Vrocking
p751
g108
tp752
aasI99
(lp753
(lp754
(Vfinally
p755
g4
tp756
a(Vchanged
p757
g131
tp758
aa(lp759
(Vnormal
p760
g11
tp761
a(Vsized
p762
g11
tp763
aasI100
(lp764
(lp765
(Vso
p766
g4
tp767
a(Vintrusive
p768
g11
tp769
aasI101
(lp770
sI102
(lp771
sI103
(lp772
sI104
(lp773
(lp774
(Vn't
p775
g4
tp776
a(Vfinish
p777
g7
tp778
aasI105
(lp779
sI106
(lp780
(lp781
(Vvisually
p782
g4
tp783
a(Vnoisy
p784
g11
tp785
aa(lp786
g785
a(Vad
p787
g14
tp788
aa(lp789
(Vnot
p790
g4
tp791
a(Vbe
p792
g7
tp793
aasI107
(lp794
(lp795
(Vbad
p796
g11
tp797
a(Vpiggies
p798
g42
tp799
aasI108
(lp800
sI109
(lp801
(lp802
(Vvery
p803
g4
tp804
a(Vaddictive
p805
g11
tp806
aasI110
(lp807
(lp808
(Vn't
p809
g4
tp810
a(Vstop
p811
g7
tp812
aasI111
(lp813
sI112
(lp814
(lp815
(Vnot
p816
g4
tp817
a(Vallowing
p818
g108
tp819
aa(lp820
(Vdefinitely
p821
g4
tp822
a(Vbe
p823
g7
tp824
aasI113
(lp825
sI114
(lp826
(lp827
(Vmany
p828
g11
tp829
a(Vothers
p830
g42
tp831
aa(lp832
(Vother
p833
g11
tp834
a(Vlevel
p835
g14
tp836
aa(lp837
(Vnot
p838
g4
tp839
a(Vgain
p840
g7
tp841
aasI115
(lp842
(lp843
(VNot
p844
g4
tp845
a(Vmany
p846
g11
tp847
aa(lp848
(Vreally
p849
g4
tp850
a(Vdifferent
p851
g11
tp852
aasI116
(lp853
(lp854
(Vgreen
p855
g11
tp856
a(Vlight
p857
g14
tp858
aasI117
(lp859
(lp860
(Vn't
p861
g4
tp862
a(Vever
p863
g7
tp864
aa(lp865
(Vtime
p866
g14
tp867
a(Vgreat
p868
g11
tp869
aasI118
(lp870
(lp871
(Vn't
p872
g4
tp873
a(Vhave
p874
g7
tp875
aa(lp876
(Venough
p877
g11
tp878
a(Vspace
p879
g14
tp880
aasI119
(lp881
(lp882
(Vnew
p883
g11
tp884
a(Vangry
p885
g14
tp886
aasI120
(lp887
(lp888
(Vthen
p889
g4
tp890
a(Vreload
p891
g7
tp892
aa(lp893
(Vlast
p894
g11
tp895
a(Vapp
p896
g14
tp897
aa(lp898
(Valso
p899
g4
tp900
a(Vtask
p901
g7
tp902
aasI121
(lp903
sI122
(lp904
sI123
(lp905
(lp906
(Vtotally
p907
g4
tp908
a(Vmessed
p909
g131
tp910
aa(lp911
(Vreally
p912
g4
tp913
a(Vupset
p914
g53
tp915
aasI124
(lp916
(lp917
(Vinnovative
p918
g11
tp919
a(Vtheme
p920
g14
tp921
aa(lp922
(Voriginal
p923
g11
tp924
a(Vbird-slinging
p925
g11
tp926
aa(lp927
g926
a(Vgame
p928
g14
tp929
aa(lp930
(Vnew
p931
g11
tp932
a(Vpowers
p933
g42
tp934
aa(lp935
(Vcriminal
p936
g11
tp937
a(Voffence
p938
g14
tp939
aasI125
(lp940
(lp941
(VC'mon
p942
g11
tp943
a(Vstar
p944
g14
tp945
aa(lp946
(Vangry
p947
g11
tp948
a(Vbirds
p949
g42
tp950
aa(lp951
(Vwhole
p952
g11
tp953
a(Vnutha
p954
g14
tp955
aasI126
(lp956
sI127
(lp957
sI128
(lp958
sI129
(lp959
(lp960
(Vso
p961
g4
tp962
a(Vstop
p963
g7
tp964
aa(lp965
(Vnot
p966
g4
tp967
a(Vhave
p968
g7
tp969
aasI130
(lp970
(lp971
(Vbig
p972
g11
tp973
a(Vfan
p974
g14
tp975
aa(lp976
(Vquite
p977
g4
tp978
a(Vgood
p979
g11
tp980
aa(lp981
(Vso
p982
g4
tp983
a(Vyeah
p984
g11
tp985
aa(lp986
(Vdefinitely
p987
g4
tp988
a(Vworth
p989
g11
tp990
aasI131
(lp991
(lp992
(VDefinitely
p993
g4
tp994
a(Vworth
p995
g11
tp996
aasI132
(lp997
(lp998
(Vother
p999
g11
tp1000
a(Vangry
p1001
g14
tp1002
aasI133
(lp1003
(lp1004
(Vyears
p1005
g42
tp1006
a(Vold
p1007
g11
tp1008
aasI134
(lp1009
sI135
(lp1010
(lp1011
(Vjust
p1012
g4
tp1013
a(Vdosent
p1014
g11
tp1015
aa(lp1016
g1015
a(Vfeel
p1017
g14
tp1018
aa(lp1019
(Vblack
p1020
g11
tp1021
a(Vbird
p1022
g14
tp1023
aasI136
(lp1024
sI137
(lp1025
(lp1026
(Vgreat
p1027
g11
tp1028
a(Vgame
p1029
g14
tp1030
aasI138
(lp1031
sI139
(lp1032
sI140
(lp1033
(lp1034
(Vangry
p1035
g11
tp1036
a(Vbirds
p1037
g42
tp1038
aa(lp1039
(VNOT
p1040
g4
tp1041
a(VBE
p1042
g7
tp1043
aa(lp1044
(Vn't
p1045
g4
tp1046
a(Vlike
p1047
g7
tp1048
aa(lp1049
(Vnow
p1050
g4
tp1051
a(Vplastering
p1052
g108
tp1053
aa(lp1054
(Vnew
p1055
g11
tp1056
a(Vgames
p1057
g42
tp1058
aa(lp1059
(Vother
p1060
g11
tp1061
a(Vversions
p1062
g42
tp1063
aa(lp1064
(Vangry
p1065
g11
tp1066
a(Vbirds
p1067
g42
tp1068
aa(lp1069
(Veven
p1070
g4
tp1071
a(Vupdating
p1072
g108
tp1073
aa(lp1074
(Vonly
p1075
g4
tp1076
a(Vintrusive
p1077
g11
tp1078
aa(lp1079
(Vrather
p1080
g4
tp1081
a(Vuse
p1082
g7
tp1083
aa(lp1084
(Vpretty
p1085
g4
tp1086
a(Vboring
p1087
g108
tp1088
aa(lp1089
(Vsimply
p1090
g4
tp1091
a(Vgoing
p1092
g108
tp1093
aa(lp1094
(Vn't
p1095
g4
tp1096
a(Vget
p1097
g7
tp1098
aa(lp1099
(Vnow
p1100
g4
tp1101
a(Vbeing
p1102
g108
tp1103
aasI141
(lp1104
sI142
(lp1105
(lp1106
(Vn't
p1107
g4
tp1108
a(Vclose
p1109
g11
tp1110
aasI143
(lp1111
sI144
(lp1112
sI145
(lp1113
(lp1114
(Val
p1115
g11
tp1116
a(Vcomes
p1117
g42
tp1118
aa(lp1119
(Vgreat
p1120
g11
tp1121
a(Vgame
p1122
g14
tp1123
aa(lp1124
(Vother
p1125
g11
tp1126
a(Vlevels
p1127
g42
tp1128
aasI146
(lp1129
(lp1130
(Vlovable
p1131
g11
tp1132
a(Vgame
p1133
g14
tp1134
aasI147
(lp1135
sI148
(lp1136
sI149
(lp1137
(lp1138
(Vmore
p1139
S'RBR'
p1140
tp1141
a(Vfun
p1142
g11
tp1143
aasI150
(lp1144
(lp1145
(Vother
p1146
g11
tp1147
a(Vangry
p1148
g14
tp1149
aasI151
(lp1150
(lp1151
(Vnot
p1152
g4
tp1153
a(Vwork
p1154
g7
tp1155
aasI152
(lp1156
(lp1157
(VJust
p1158
g4
tp1159
a(Vupdated
p1160
g53
tp1161
aa(lp1162
(Vnew
p1163
g11
tp1164
a(Vlevels
p1165
g42
tp1166
aasI153
(lp1167
(lp1168
(VJust
p1169
g4
tp1170
a(Vcurious
p1171
g11
tp1172
aasI154
(lp1173
(lp1174
(Vcant
p1175
g11
tp1176
a(Vinstall
p1177
g14
tp1178
aasI155
(lp1179
(lp1180
(Vnot
p1181
g4
tp1182
a(Vable
p1183
g11
tp1184
aa(lp1185
(Vn't
p1186
g4
tp1187
a(Vget
p1188
g7
tp1189
aasI156
(lp1190
(lp1191
(Valways
p1192
g4
tp1193
a(Vliked
p1194
g131
tp1195
aa(lp1196
(Vtotally
p1197
g4
tp1198
a(Vaddictive
p1199
g11
tp1200
aasI157
(lp1201
sI158
(lp1202
sI159
(lp1203
sI160
(lp1204
sI161
(lp1205
sI162
(lp1206
(lp1207
(Vangry
p1208
g11
tp1209
a(Vbirds
p1210
g42
tp1211
aasI163
(lp1212
sI164
(lp1213
(lp1214
(Vreally
p1215
g4
tp1216
a(Vgreat
p1217
g11
tp1218
aa(lp1219
g1218
a(Vgame
p1220
g14
tp1221
aasI165
(lp1222
(lp1223
(Vwell
p1224
g4
tp1225
a(Vworth
p1226
g11
tp1227
aa(lp1228
(Vonly
p1229
g4
tp1230
a(Vwant
p1231
g7
tp1232
aa(lp1233
(Voriginal
p1234
g11
tp1235
a(Vtrilogy
p1236
g14
tp1237
aasI166
(lp1238
(lp1239
(Vsuper-duper
p1240
g11
tp1241
a(Vlightsaber
p1242
g14
tp1243
aasI167
(lp1244
sI168
(lp1245
(lp1246
(Vfavorite
p1247
g11
tp1248
a(Vangry
p1249
g14
tp1250
aasI169
(lp1251
(lp1252
(V.must
p1253
g11
tp1254
a(Vplay
p1255
g14
tp1256
aasI170
(lp1257
sI171
(lp1258
sI172
(lp1259
sI173
(lp1260
(lp1261
(Vjust
p1262
g4
tp1263
a(Vcompleted
p1264
g131
tp1265
aa(lp1266
(Vnot
p1267
g4
tp1268
a(Vopened
p1269
g53
tp1270
aasI174
(lp1271
(lp1272
(Vangry
p1273
g11
tp1274
a(Vbirds
p1275
g42
tp1276
aasI175
(lp1277
sI176
(lp1278
sI177
(lp1279
sI178
(lp1280
sI179
(lp1281
(lp1282
(Vlight
p1283
g11
tp1284
a(Vsabers
p1285
g42
tp1286
aasI180
(lp1287
sI181
(lp1288
sI182
(lp1289
(lp1290
(Vseveral
p1291
g11
tp1292
a(Vtimes
p1293
g42
tp1294
aa(lp1295
(Vn't
p1296
g4
tp1297
a(Vload
p1298
g7
tp1299
aasI183
(lp1300
sI184
(lp1301
(lp1302
(Vgreat
p1303
g11
tp1304
a(Vfun
p1305
g14
tp1306
aa(lp1307
(Vn't
p1308
g4
tp1309
a(Vdowlond
p1310
g7
tp1311
aa(lp1312
(Vn't
p1313
g4
tp1314
a(Vdowlond
p1315
g7
tp1316
aa(lp1317
(Vjust
p1318
g4
tp1319
a(Vdid
p1320
g131
tp1321
aa(lp1322
(Vfirst
p1323
g11
tp1324
a(Vbit
p1325
g14
tp1326
aa(lp1327
(Vlong
p1328
g11
tp1329
a(Vtime
p1330
g14
tp1331
aa(lp1332
(Vso
p1333
g4
tp1334
a(Vgood
p1335
g11
tp1336
aa(lp1337
g1336
a(Vapp
p1338
g14
tp1339
aasI185
(lp1340
(lp1341
(Vn't
p1342
g4
tp1343
a(Vrate
p1344
g7
tp1345
aa(lp1346
(Vn't
p1347
g4
tp1348
a(Vplay
p1349
g7
tp1350
aa(lp1351
(Vangry
p1352
g11
tp1353
a(Vbirds
p1354
g42
tp1355
aa(lp1356
(Vnot
p1357
g4
tp1358
a(Vnecessary
p1359
g11
tp1360
aasI186
(lp1361
(lp1362
(Vvery
p1363
g4
tp1364
a(Vfun
p1365
g11
tp1366
aasI187
(lp1367
(lp1368
(Vnever
p1369
g4
tp1370
a(Vdid
p1371
g131
tp1372
aa(lp1373
(Vthere
p1374
g4
tp1375
a(Vwas
p1376
g131
tp1377
aa(lp1378
(Vnot
p1379
g4
tp1380
a(Vrefuse
p1381
g7
tp1382
aa(lp1383
(Vn't
p1384
g4
tp1385
a(Vwait
p1386
g7
tp1387
aa(lp1388
(Vmore
p1389
g1140
tp1390
a(Vstar
p1391
g11
tp1392
aa(lp1393
g1392
a(Vwars
p1394
g42
tp1395
aasI188
(lp1396
sI189
(lp1397
(lp1398
(Vwonderful
p1399
g11
tp1400
a(Vabilities
p1401
g42
tp1402
aa(lp1403
(Vonly
p1404
g11
tp1405
a(Vdisappointing
p1406
g11
tp1407
aa(lp1408
g1407
a(Vfactor
p1409
g14
tp1410
aa(lp1411
(Vtrue
p1412
g11
tp1413
a(Vstart
p1414
g14
tp1415
aasI190
(lp1416
sI191
(lp1417
(lp1418
(Vreally
p1419
g4
tp1420
a(Vappreciate
p1421
g11
tp1422
aa(lp1423
(Vwhole
p1424
g11
tp1425
a(Vfamily
p1426
g14
tp1427
aa(lp1428
(Vvery
p1429
g4
tp1430
a(Vfair
p1431
g11
tp1432
aa(lp1433
(Vn't
p1434
g4
tp1435
a(Vhave
p1436
g7
tp1437
aa(lp1438
(Vgood
p1439
g11
tp1440
a(Vtime
p1441
g14
tp1442
aa(lp1443
(Vn't
p1444
g4
tp1445
a(Vmake
p1446
g7
tp1447
aa(lp1448
(Voriginal
p1449
g11
tp1450
a(Vangry
p1451
g14
tp1452
aa(lp1453
(Vincredible
p1454
g11
tp1455
a(Vlittle
p1456
g14
tp1457
aasI192
(lp1458
(lp1459
(Vepic
p1460
g11
tp1461
a(Vintegalactic
p1462
g11
tp1463
aa(lp1464
(Vcomplete
p1465
g11
tp1466
a(Vepisode
p1467
g14
tp1468
aasI193
(lp1469
(lp1470
(Vvery
p1471
g4
tp1472
a(Vgood
p1473
g11
tp1474
aa(lp1475
(Vlast
p1476
g11
tp1477
a(Vupdate
p1478
g14
tp1479
aasI194
(lp1480
(lp1481
(Vvery
p1482
g4
tp1483
a(Vmuch
p1484
g11
tp1485
aasI195
(lp1486
(lp1487
(Vnot
p1488
g4
tp1489
a(Vget
p1490
g7
tp1491
aasI196
(lp1492
(lp1493
(Vplay
p1494
g14
tp1495
a(Vother
p1496
g11
tp1497
aa(lp1498
g1497
a(Vlevels
p1499
g42
tp1500
aa(lp1501
(Vrich
p1502
g11
tp1503
a(Venough
p1504
g11
tp1505
aa(lp1506
g1505
a(Vcome
p1507
g14
tp1508
aasI197
(lp1509
sI198
(lp1510
sI199
(lp1511
sI200
(lp1512
sI201
(lp1513
sI202
(lp1514
(lp1515
(Vperfect
p1516
g11
tp1517
a(Vstar
p1518
g14
tp1519
aa(lp1520
(Vangry
p1521
g11
tp1522
a(Vbirds
p1523
g42
tp1524
aasI203
(lp1525
(lp1526
(Vvery
p1527
g4
tp1528
a(Vgood
p1529
g11
tp1530
aa(lp1531
(Vlast
p1532
g11
tp1533
a(Vupdate
p1534
g14
tp1535
aasI204
(lp1536
(lp1537
(Vplay
p1538
g14
tp1539
a(Vother
p1540
g11
tp1541
aa(lp1542
g1541
a(Vlevels
p1543
g42
tp1544
aa(lp1545
(Vrich
p1546
g11
tp1547
a(Venough
p1548
g11
tp1549
aa(lp1550
g1549
a(Vcome
p1551
g14
tp1552
aasI205
(lp1553
(lp1554
(Vnot
p1555
g4
tp1556
a(Vget
p1557
g7
tp1558
aasI206
(lp1559
sI207
(lp1560
(lp1561
(Vnot
p1562
g4
tp1563
a(Vopen
p1564
g7
tp1565
aa(lp1566
(Vsecond
p1567
g11
tp1568
a(Vtime
p1569
g14
tp1570
aasI208
(lp1571
sI209
(lp1572
sI210
(lp1573
sI211
(lp1574
(lp1575
(Vnext
p1576
g11
tp1577
a(Vplanet
p1578
g14
tp1579
aasI212
(lp1580
(lp1581
(Vactually
p1582
g4
tp1583
a(Vpay
p1584
g7
tp1585
aa(lp1586
(Vown
p1587
g11
tp1588
a(Vlevels
p1589
g42
tp1590
aa(lp1591
(Vown
p1592
g11
tp1593
a(Vfort
p1594
g14
tp1595
aasI213
(lp1596
sI214
(lp1597
sI215
(lp1598
sI216
(lp1599
sI217
(lp1600
(lp1601
(Vnot
p1602
g4
tp1603
a(Vopen
p1604
g7
tp1605
aa(lp1606
(Vsecond
p1607
g11
tp1608
a(Vtime
p1609
g14
tp1610
aasI218
(lp1611
(lp1612
(Vnext
p1613
g11
tp1614
a(Vlevel
p1615
g14
tp1616
aa(lp1617
(Vnot
p1618
g4
tp1619
a(Vunlock
p1620
g7
tp1621
aasI219
(lp1622
sI220
(lp1623
(lp1624
(Vnext
p1625
g11
tp1626
a(Vplanet
p1627
g14
tp1628
aasI221
(lp1629
sI222
(lp1630
(lp1631
(Vactually
p1632
g4
tp1633
a(Vpay
p1634
g7
tp1635
aa(lp1636
(Vown
p1637
g11
tp1638
a(Vlevels
p1639
g42
tp1640
aa(lp1641
(Vown
p1642
g11
tp1643
a(Vfort
p1644
g14
tp1645
aasI223
(lp1646
sI224
(lp1647
(lp1648
(Vjust
p1649
g4
tp1650
a(Vplain
p1651
g7
tp1652
aasI225
(lp1653
sI226
(lp1654
sI227
(lp1655
(lp1656
(Veven
p1657
g4
tp1658
a(Vopen
p1659
g11
tp1660
aasI228
(lp1661
sI229
(lp1662
sI230
(lp1663
(lp1664
(Vnot
p1665
g4
tp1666
a(Vopen
p1667
g7
tp1668
aa(lp1669
(Vsecond
p1670
g11
tp1671
a(Vtime
p1672
g14
tp1673
aasI231
(lp1674
(lp1675
(Vnext
p1676
g11
tp1677
a(Vlevel
p1678
g14
tp1679
aa(lp1680
(Vnot
p1681
g4
tp1682
a(Vunlock
p1683
g7
tp1684
aasI232
(lp1685
(lp1686
(Vnext
p1687
g11
tp1688
a(Vplanet
p1689
g14
tp1690
aasI233
(lp1691
sI234
(lp1692
sI235
(lp1693
(lp1694
(Vjust
p1695
g4
tp1696
a(Vplain
p1697
g7
tp1698
aasI236
(lp1699
sI237
(lp1700
sI238
(lp1701
sI239
(lp1702
(lp1703
(Veven
p1704
g4
tp1705
a(Vopen
p1706
g11
tp1707
aasI240
(lp1708
sI241
(lp1709
sI242
(lp1710
sI243
(lp1711
sI244
(lp1712
sI245
(lp1713
(lp1714
(Veven
p1715
g4
tp1716
a(Vopen
p1717
g11
tp1718
aasI246
(lp1719
sI247
(lp1720
sI248
(lp1721
(lp1722
(Vnot
p1723
g4
tp1724
a(Vgood
p1725
g11
tp1726
aa(lp1727
g1726
a(Vfreezes
p1728
g42
tp1729
aasI249
(lp1730
sI250
(lp1731
sI251
(lp1732
sI252
(lp1733
sI253
(lp1734
sI254
(lp1735
sI255
(lp1736
sI256
(lp1737
(lp1738
(Vnot
p1739
g4
tp1740
a(Vgood
p1741
g11
tp1742
aa(lp1743
g1742
a(Vfreezes
p1744
g42
tp1745
aasI257
(lp1746
sI258
(lp1747
sI259
(lp1748
sI260
(lp1749
sI261
(lp1750
sI262
(lp1751
sI263
(lp1752
(lp1753
(Vbird
p1754
g11
tp1755
a(Vpreview
p1756
g14
tp1757
aa(lp1758
(Vmany
p1759
g11
tp1760
a(Vnew
p1761
g11
tp1762
aa(lp1763
g1762
a(Vones
p1764
g42
tp1765
aasI264
(lp1766
sI265
(lp1767
sI266
(lp1768
sI267
(lp1769
sI268
(lp1770
(lp1771
(Vnot
p1772
g4
tp1773
a(Vgood
p1774
g11
tp1775
aa(lp1776
g1775
a(Vfreezes
p1777
g42
tp1778
aasI269
(lp1779
sI270
(lp1780
(lp1781
(VNot
p1782
g4
tp1783
a(Vhappy
p1784
g11
tp1785
aasI271
(lp1786
(lp1787
(Vnext
p1788
g11
tp1789
a(Vangry
p1790
g14
tp1791
aasI272
(lp1792
sI273
(lp1793
sI274
(lp1794
sI275
(lp1795
sI276
(lp1796
sI277
(lp1797
sI278
(lp1798
(lp1799
(VNot
p1800
g4
tp1801
a(Vhappy
p1802
g11
tp1803
aasI279
(lp1804
(lp1805
(Veasiest
p1806
g11
tp1807
a(Vangry
p1808
g14
tp1809
aasI280
(lp1810
(lp1811
(Vnext
p1812
g11
tp1813
a(Vangry
p1814
g14
tp1815
aasI281
(lp1816
sI282
(lp1817
sI283
(lp1818
sI284
(lp1819
sI285
(lp1820
sI286
(lp1821
sI287
(lp1822
sI288
(lp1823
(lp1824
(VNot
p1825
g4
tp1826
a(Vhappy
p1827
g11
tp1828
aasI289
(lp1829
(lp1830
(Veasiest
p1831
g11
tp1832
a(Vangry
p1833
g14
tp1834
aasI290
(lp1835
(lp1836
(Vnext
p1837
g11
tp1838
a(Vangry
p1839
g14
tp1840
aasI291
(lp1841
sI292
(lp1842
sI293
(lp1843
sI294
(lp1844
sI295
(lp1845
sI296
(lp1846
(lp1847
(VAbsolutely
p1848
g4
tp1849
a(Ventertaining
p1850
g108
tp1851
aa(lp1852
(Vcompletely
p1853
g4
tp1854
a(Vhappy
p1855
g11
tp1856
aasI297
(lp1857
sI298
(lp1858
(lp1859
(Veasiest
p1860
g11
tp1861
a(Vangry
p1862
g14
tp1863
aasI299
(lp1864
sI300
(lp1865
(lp1866
(Vnext
p1867
g11
tp1868
a(Vangry
p1869
g14
tp1870
aasI301
(lp1871
sI302
(lp1872
sI303
(lp1873
sI304
(lp1874
sI305
(lp1875
sI306
(lp1876
sI307
(lp1877
sI308
(lp1878
(lp1879
(VAbsolutely
p1880
g4
tp1881
a(Ventertaining
p1882
g108
tp1883
aa(lp1884
(Vcompletely
p1885
g4
tp1886
a(Vhappy
p1887
g11
tp1888
aasI309
(lp1889
(lp1890
(Vespecially
p1891
g4
tp1892
a(Vlove
p1893
g7
tp1894
aa(lp1895
(Vn't
p1896
g4
tp1897
a(Vlet
p1898
g7
tp1899
aasI310
(lp1900
(lp1901
(Veasiest
p1902
g11
tp1903
a(Vangry
p1904
g14
tp1905
aasI311
(lp1906
(lp1907
(Veven
p1908
g4
tp1909
a(Vhave
p1910
g7
tp1911
aasI312
(lp1912
sI313
(lp1913
sI314
(lp1914
(lp1915
(Vfree
p1916
g11
tp1917
a(Vparts
p1918
g42
tp1919
aasI315
(lp1920
sI316
(lp1921
sI317
(lp1922
(lp1923
(VAbsolutely
p1924
g4
tp1925
a(Ventertaining
p1926
g108
tp1927
aa(lp1928
(Vcompletely
p1929
g4
tp1930
a(Vhappy
p1931
g11
tp1932
aasI318
(lp1933
sI319
(lp1934
(lp1935
(Vn't
p1936
g4
tp1937
a(Vlet
p1938
g7
tp1939
aasI320
(lp1940
(lp1941
(Vespecially
p1942
g4
tp1943
a(Vlove
p1944
g7
tp1945
aa(lp1946
(Vn't
p1947
g4
tp1948
a(Vlet
p1949
g7
tp1950
aasI321
(lp1951
(lp1952
(Veven
p1953
g4
tp1954
a(Vhave
p1955
g7
tp1956
aasI322
(lp1957
sI323
(lp1958
sI324
(lp1959
sI325
(lp1960
(lp1961
(Vn't
p1962
g4
tp1963
a(Vclose
p1964
g11
tp1965
aa(lp1966
g1965
a(Vads
p1967
g42
tp1968
aasI326
(lp1969
sI327
(lp1970
sI328
(lp1971
(lp1972
(Vn't
p1973
g4
tp1974
a(Vlet
p1975
g7
tp1976
aasI329
(lp1977
(lp1978
(Vespecially
p1979
g4
tp1980
a(Vlove
p1981
g7
tp1982
aa(lp1983
(Vn't
p1984
g4
tp1985
a(Vlet
p1986
g7
tp1987
aasI330
(lp1988
(lp1989
(Vother
p1990
g11
tp1991
a(Vangry
p1992
g14
tp1993
aasI331
(lp1994
sI332
(lp1995
sI333
(lp1996
sI334
(lp1997
(lp1998
(Vfun
p1999
g14
tp2000
a(Vnew
p2001
g11
tp2002
aa(lp2003
g2002
a(Vtrust
p2004
g14
tp2005
aasI335
(lp2006
sI336
(lp2007
(lp2008
(Vn't
p2009
g4
tp2010
a(Vlet
p2011
g7
tp2012
aasI337
(lp2013
sI338
(lp2014
sI339
(lp2015
(lp2016
(Vother
p2017
g11
tp2018
a(Vangry
p2019
g14
tp2020
aasI340
(lp2021
sI341
(lp2022
sI342
(lp2023
sI343
(lp2024
sI344
(lp2025
(lp2026
(Vnot
p2027
g4
tp2028
a(Vwork
p2029
g7
tp2030
aa(lp2031
(Vnot
p2032
g4
tp2033
a(Vwork
p2034
g7
tp2035
aasI345
(lp2036
sI346
(lp2037
sI347
(lp2038
(lp2039
(Vother
p2040
g11
tp2041
a(Vangry
p2042
g14
tp2043
aasI348
(lp2044
sI349
(lp2045
sI350
(lp2046
sI351
(lp2047
sI352
(lp2048
sI353
(lp2049
sI354
(lp2050
sI355
(lp2051
sI356
(lp2052
sI357
(lp2053
sI358
(lp2054
sI359
(lp2055
sI360
(lp2056
sI361
(lp2057
(lp2058
(Vepic
p2059
g11
tp2060
a(Vgame
p2061
g14
tp2062
aasI362
(lp2063
sI363
(lp2064
sI364
(lp2065
sI365
(lp2066
sI366
(lp2067
sI367
(lp2068
sI368
(lp2069
sI369
(lp2070
sI370
(lp2071
sI371
(lp2072
(lp2073
(Vepic
p2074
g11
tp2075
a(Vgame
p2076
g14
tp2077
aasI372
(lp2078
sI373
(lp2079
sI374
(lp2080
sI375
(lp2081
sI376
(lp2082
sI377
(lp2083
sI378
(lp2084
sI379
(lp2085
sI380
(lp2086
(lp2087
(Vdifferent
p2088
g11
tp2089
a(Vview
p2090
g14
tp2091
aasI381
(lp2092
sI382
(lp2093
sI383
(lp2094
sI384
(lp2095
sI385
(lp2096
sI386
(lp2097
sI387
(lp2098
sI388
(lp2099
sI389
(lp2100
(lp2101
(Vdifferent
p2102
g11
tp2103
a(Vview
p2104
g14
tp2105
aasI390
(lp2106
sI391
(lp2107
sI392
(lp2108
sI393
(lp2109
(lp2110
(Vad
p2111
g14
tp2112
a(Vfree
p2113
g11
tp2114
aa(lp2115
(Vstill
p2116
g4
tp2117
a(Vgetting
p2118
g108
tp2119
aasI394
(lp2120
sI395
(lp2121
sI396
(lp2122
sI397
(lp2123
(lp2124
(Vdifferent
p2125
g11
tp2126
a(Vview
p2127
g14
tp2128
aasI398
(lp2129
sI399
(lp2130
(lp2131
(VJust
p2132
g4
tp2133
a(Vgot
p2134
g131
tp2135
aasI400
(lp2136
sI401
(lp2137
sI402
(lp2138
sI403
(lp2139
sI404
(lp2140
(lp2141
(Vangry
p2142
g11
tp2143
a(Vbirds
p2144
g42
tp2145
aa(lp2146
(Vangry
p2147
g11
tp2148
a(Vbirds
p2149
g42
tp2150
aasI405
(lp2151
sI406
(lp2152
(lp2153
(Vad
p2154
g14
tp2155
a(Vfree
p2156
g11
tp2157
aa(lp2158
(Vstill
p2159
g4
tp2160
a(Vgetting
p2161
g108
tp2162
aasI407
(lp2163
sI408
(lp2164
sI409
(lp2165
sI410
(lp2166
sI411
(lp2167
(lp2168
(Vmuch
p2169
g4
tp2170
a(Vfun
p2171
g53
tp2172
aasI412
(lp2173
(lp2174
(VJust
p2175
g4
tp2176
a(Vgot
p2177
g131
tp2178
aasI413
(lp2179
sI414
(lp2180
sI415
(lp2181
sI416
(lp2182
sI417
(lp2183
(lp2184
(Vangry
p2185
g11
tp2186
a(Vbirds
p2187
g42
tp2188
aa(lp2189
(Vangry
p2190
g11
tp2191
a(Vbirds
p2192
g42
tp2193
aasI418
(lp2194
sI419
(lp2195
sI420
(lp2196
sI421
(lp2197
sI422
(lp2198
(lp2199
(Vmuch
p2200
g4
tp2201
a(Vfun
p2202
g53
tp2203
aasI423
(lp2204
sI424
(lp2205
sI425
(lp2206
sI426
(lp2207
sI427
(lp2208
(lp2209
(Vangry
p2210
g11
tp2211
a(Vbirds
p2212
g42
tp2213
aa(lp2214
(Vangry
p2215
g11
tp2216
a(Vbirds
p2217
g42
tp2218
aasI428
(lp2219
sI429
(lp2220
sI430
(lp2221
sI431
(lp2222
sI432
(lp2223
(lp2224
(Vmuch
p2225
g4
tp2226
a(Vfun
p2227
g53
tp2228
aasI433
(lp2229
sI434
(lp2230
sI435
(lp2231
(lp2232
(Vnew
p2233
g11
tp2234
a(Vpink
p2235
g14
tp2236
aa(lp2237
(Vpretty
p2238
g4
tp2239
a(Vcool
p2240
g11
tp2241
aa(lp2242
(Vnew
p2243
g11
tp2244
a(Vpower
p2245
g14
tp2246
aasI436
(lp2247
(lp2248
(V3yr
p2249
g11
tp2250
a(Vold
p2251
g11
tp2252
aa(lp2253
g2252
a(Vgson
p2254
g14
tp2255
aasI437
(lp2256
(lp2257
(Vvery
p2258
g4
tp2259
a(Vnice
p2260
g11
tp2261
aasI438
(lp2262
sI439
(lp2263
sI440
(lp2264
sI441
(lp2265
sI442
(lp2266
sI443
(lp2267
sI444
(lp2268
(lp2269
(Vnew
p2270
g11
tp2271
a(Vgame
p2272
g14
tp2273
aasI445
(lp2274
sI446
(lp2275
sI447
(lp2276
(lp2277
(Vnew
p2278
g11
tp2279
a(Vpink
p2280
g14
tp2281
aa(lp2282
(Vpretty
p2283
g4
tp2284
a(Vcool
p2285
g11
tp2286
aa(lp2287
(Vnew
p2288
g11
tp2289
a(Vpower
p2290
g14
tp2291
aasI448
(lp2292
(lp2293
(V3yr
p2294
g11
tp2295
a(Vold
p2296
g11
tp2297
aa(lp2298
g2297
a(Vgson
p2299
g14
tp2300
aasI449
(lp2301
(lp2302
(Vvery
p2303
g4
tp2304
a(Vnice
p2305
g11
tp2306
aasI450
(lp2307
sI451
(lp2308
sI452
(lp2309
sI453
(lp2310
sI454
(lp2311
sI455
(lp2312
(lp2313
(Vnew
p2314
g11
tp2315
a(Vgame
p2316
g14
tp2317
aasI456
(lp2318
sI457
(lp2319
(lp2320
(Vn't
p2321
g4
tp2322
a(Vmove
p2323
g7
tp2324
aa(lp2325
(Vsecond
p2326
g11
tp2327
a(Vlevel
p2328
g14
tp2329
aasI458
(lp2330
sI459
(lp2331
(lp2332
(Vnew
p2333
g11
tp2334
a(Vpink
p2335
g14
tp2336
aa(lp2337
(Vpretty
p2338
g4
tp2339
a(Vcool
p2340
g11
tp2341
aa(lp2342
(Vnew
p2343
g11
tp2344
a(Vpower
p2345
g14
tp2346
aasI460
(lp2347
sI461
(lp2348
(lp2349
(Vvery
p2350
g4
tp2351
a(Vnice
p2352
g11
tp2353
aasI462
(lp2354
sI463
(lp2355
sI464
(lp2356
sI465
(lp2357
sI466
(lp2358
(lp2359
(Vn't
p2360
g4
tp2361
a(Vmove
p2362
g7
tp2363
aa(lp2364
(Vsecond
p2365
g11
tp2366
a(Vlevel
p2367
g14
tp2368
aasI467
(lp2369
(lp2370
(Vcharacters
p2371
g42
tp2372
a(Vnew
p2373
g11
tp2374
aasI468
(lp2375
sI469
(lp2376
sI470
(lp2377
sI471
(lp2378
sI472
(lp2379
sI473
(lp2380
sI474
(lp2381
(lp2382
(Vn't
p2383
g4
tp2384
a(Vmove
p2385
g7
tp2386
aa(lp2387
(Vsecond
p2388
g11
tp2389
a(Vlevel
p2390
g14
tp2391
aasI475
(lp2392
(lp2393
(Vcharacters
p2394
g42
tp2395
a(Vnew
p2396
g11
tp2397
aasI476
(lp2398
sI477
(lp2399
sI478
(lp2400
sI479
(lp2401
sI480
(lp2402
sI481
(lp2403
sI482
(lp2404
sI483
(lp2405
sI484
(lp2406
sI485
(lp2407
(lp2408
(Vvery
p2409
g4
tp2410
a(Vaddictive
p2411
g11
tp2412
aa(lp2413
g2412
a(Vgame
p2414
g14
tp2415
aasI486
(lp2416
sI487
(lp2417
(lp2418
(Vcharacters
p2419
g42
tp2420
a(Vnew
p2421
g11
tp2422
aasI488
(lp2423
sI489
(lp2424
sI490
(lp2425
sI491
(lp2426
sI492
(lp2427
sI493
(lp2428
sI494
(lp2429
sI495
(lp2430
sI496
(lp2431
(lp2432
(Vnew
p2433
g11
tp2434
a(Vpowers
p2435
g42
tp2436
aasI497
(lp2437
(lp2438
(Vvery
p2439
g4
tp2440
a(Vaddictive
p2441
g11
tp2442
aa(lp2443
g2442
a(Vgame
p2444
g14
tp2445
aasI498
(lp2446
sI499
(lp2447
sI500
(lp2448
sI501
(lp2449
sI502
(lp2450
sI503
(lp2451
(lp2452
(Vn't
p2453
g4
tp2454
a(Vcuz
p2455
g7
tp2456
aa(lp2457
(Vvery
p2458
g11
tp2459
a(Vannoying
p2460
g14
tp2461
aasI504
(lp2462
(lp2463
(Vthen
p2464
g4
tp2465
a(Vexit
p2466
g7
tp2467
aa(lp2468
(Vonly
p2469
g4
tp2470
a(Vtake
p2471
g7
tp2472
aa(lp2473
(Vnot
p2474
g4
tp2475
a(Vlet
p2476
g7
tp2477
aasI505
(lp2478
(lp2479
(Vvery
p2480
g4
tp2481
a(Vgood
p2482
g11
tp2483
aa(lp2484
(Vprevious
p2485
g11
tp2486
a(Vgames
p2487
g42
tp2488
aa(lp2489
(Vn't
p2490
g4
tp2491
a(Vbeat
p2492
g7
tp2493
aa(lp2494
(Vvery
p2495
g4
tp2496
a(Vfun
p2497
g53
tp2498
aasI506
(lp2499
(lp2500
(Vn't
p2501
g4
tp2502
a(Vcuz
p2503
g7
tp2504
aa(lp2505
(Vvery
p2506
g11
tp2507
a(Vannoying
p2508
g14
tp2509
aasI507
(lp2510
(lp2511
(Vthen
p2512
g4
tp2513
a(Vexit
p2514
g7
tp2515
aa(lp2516
(Vonly
p2517
g4
tp2518
a(Vtake
p2519
g7
tp2520
aa(lp2521
(Vnot
p2522
g4
tp2523
a(Vlet
p2524
g7
tp2525
aasI508
(lp2526
(lp2527
(Vvery
p2528
g4
tp2529
a(Vgood
p2530
g11
tp2531
aa(lp2532
(Vprevious
p2533
g11
tp2534
a(Vgames
p2535
g42
tp2536
aa(lp2537
(Vn't
p2538
g4
tp2539
a(Vbeat
p2540
g7
tp2541
aa(lp2542
(Vvery
p2543
g4
tp2544
a(Vfun
p2545
g53
tp2546
aasI509
(lp2547
(lp2548
(Vpretty
p2549
g4
tp2550
a(Vfreaking
p2551
g108
tp2552
aa(lp2553
(Vsomething
p2554
g14
tp2555
a(Vnew
p2556
g11
tp2557
aasI510
(lp2558
(lp2559
(VReally
p2560
g4
tp2561
a(Vloving
p2562
g108
tp2563
aasI511
(lp2564
(lp2565
(Vangry
p2566
g11
tp2567
a(Vbirds
p2568
g42
tp2569
aa(lp2570
(Veventually
p2571
g4
tp2572
a(Vgot
p2573
g131
tp2574
aa(lp2575
(Vnext
p2576
g11
tp2577
a(Vupdate
p2578
g14
tp2579
aasI512
(lp2580
(lp2581
(Vgood
p2582
g11
tp2583
a(Vangry
p2584
g14
tp2585
aasI513
(lp2586
(lp2587
(Vlast
p2588
g11
tp2589
a(Vupdate
p2590
g14
tp2591
aasI514
(lp2592
(lp2593
(Vsame
p2594
g11
tp2595
a(Vresult
p2596
g14
tp2597
aasI515
(lp2598
sI516
(lp2599
sI517
(lp2600
(lp2601
(Vmost
p2602
g161
tp2603
a(Vinteresting
p2604
g11
tp2605
aasI518
(lp2606
sI519
(lp2607
sI520
(lp2608
sI521
(lp2609
sI522
(lp2610
sI523
(lp2611
(lp2612
(Vstill
p2613
g4
tp2614
a(Vawful
p2615
g11
tp2616
aa(lp2617
(Vlow
p2618
g11
tp2619
a(Vrate
p2620
g14
tp2621
aasI524
(lp2622
sI525
(lp2623
(lp2624
(Vn't
p2625
g4
tp2626
a(Vplay
p2627
g7
tp2628
aasI526
(lp2629
(lp2630
(Vreluctantly
p2631
g4
tp2632
a(Vspent
p2633
g131
tp2634
aa(lp2635
(Vnever
p2636
g4
tp2637
a(Vgot
p2638
g131
tp2639
aasI527
(lp2640
(lp2641
(Vvery
p2642
g4
tp2643
a(Vaddictive
p2644
g11
tp2645
aa(lp2646
(Vvery
p2647
g4
tp2648
a(Vfun
p2649
g11
tp2650
aasI528
(lp2651
sI529
(lp2652
sI530
(lp2653
(lp2654
(Vclassic
p2655
g11
tp2656
a(Vcharacters
p2657
g42
tp2658
aasI531
(lp2659
(lp2660
(Vn't
p2661
g4
tp2662
a(Vhave
p2663
g7
tp2664
aasI532
(lp2665
(lp2666
(VReally
p2667
g4
tp2668
a(Vfun
p2669
g53
tp2670
aasI533
(lp2671
sI534
(lp2672
sI535
(lp2673
(lp2674
(Ventertaining
p2675
g11
tp2676
a(Vgame
p2677
g14
tp2678
aasI536
(lp2679
sI537
(lp2680
(lp2681
(Vn't
p2682
g4
tp2683
a(Vget
p2684
g7
tp2685
aasI538
(lp2686
(lp2687
(Vangry
p2688
g11
tp2689
a(Vbirds
p2690
g42
tp2691
aa(lp2692
(Vnot
p2693
g4
tp2694
a(Vusing
p2695
g108
tp2696
aasI539
(lp2697
sI540
(lp2698
(lp2699
(Vnext
p2700
g11
tp2701
a(Vangry
p2702
g14
tp2703
aasI541
(lp2704
(lp2705
(Vangry
p2706
g11
tp2707
a(Vbirds
p2708
g42
tp2709
aasI542
(lp2710
sI543
(lp2711
sI544
(lp2712
(lp2713
(Vtoo
p2714
g4
tp2715
a(Vbig
p2716
g11
tp2717
aasI545
(lp2718
(lp2719
(Vvery
p2720
g4
tp2721
a(Vcute
p2722
g11
tp2723
aa(lp2724
(Vvarious
p2725
g11
tp2726
a(Vfeatures
p2727
g42
tp2728
aasI546
(lp2729
(lp2730
(Vbig
p2731
g11
tp2732
a(Vboss
p2733
g14
tp2734
aa(lp2735
(Vdarth
p2736
g11
tp2737
a(Vpig
p2738
g14
tp2739
aasI547
(lp2740
(lp2741
(Vfunny
p2742
g11
tp2743
a(Vstar
p2744
g14
tp2745
aasI548
(lp2746
(lp2747
(Vmany
p2748
g11
tp2749
a(Vfresh
p2750
g11
tp2751
aa(lp2752
(Venjoyable
p2753
g11
tp2754
a(Videas
p2755
g42
tp2756
aasI549
(lp2757
(lp2758
(Vreally
p2759
g4
tp2760
a(Vexcited
p2761
g53
tp2762
aa(lp2763
(Veven
p2764
g4
tp2765
a(Vload
p2766
g7
tp2767
aa(lp2768
(Vn't
p2769
g4
tp2770
a(Vplay
p2771
g7
tp2772
aa(lp2773
(Vn't
p2774
g4
tp2775
a(Vshow
p2776
g7
tp2777
aasI550
(lp2778
sI551
(lp2779
(lp2780
(Vaboslutly
p2781
g4
tp2782
a(Vamazing
p2783
g108
tp2784
aa(lp2785
(Vlittle
p2786
g4
tp2787
a(Vanoying
p2788
g108
tp2789
aa(lp2790
(Voverall
p2791
g11
tp2792
a(Vgreat
p2793
g11
tp2794
aasI552
(lp2795
(lp2796
(Vn't
p2797
g4
tp2798
a(Vgon
p2799
g7
tp2800
aa(lp2801
(VNOT
p2802
g4
tp2803
a(Vdisappointed
p2804
g53
tp2805
aasI553
(lp2806
(lp2807
(Vhuge
p2808
g11
tp2809
a(Vhelp
p2810
g14
tp2811
aasI554
(lp2812
(lp2813
(Vn't
p2814
g4
tp2815
a(Vunlock
p2816
g7
tp2817
aa(lp2818
(Valso
p2819
g4
tp2820
a(Vhappened
p2821
g131
tp2822
aa(lp2823
(Vgood
p2824
g11
tp2825
a(Vgame
p2826
g14
tp2827
aasI555
(lp2828
(lp2829
(Vpretty
p2830
g4
tp2831
a(Vsweet
p2832
g11
tp2833
aasI556
(lp2834
sI557
(lp2835
(lp2836
(Voriginal
p2837
g11
tp2838
a(Vangry
p2839
g14
tp2840
aa(lp2841
(Vangry
p2842
g11
tp2843
a(Vbird
p2844
g14
tp2845
aasI558
(lp2846
(lp2847
(Vsame
p2848
g11
tp2849
a(Vthing
p2850
g14
tp2851
aasI559
(lp2852
(lp2853
(Vnot
p2854
g4
tp2855
a(Vworking
p2856
g108
tp2857
aa(lp2858
(Vblack
p2859
g11
tp2860
a(Vscreen
p2861
g14
tp2862
aa(lp2863
(Vn't
p2864
g4
tp2865
a(Vexist
p2866
g7
tp2867
aasI560
(lp2868
sI561
(lp2869
(lp2870
(VAbsolutely
p2871
g4
tp2872
a(Vamazing
p2873
g108
tp2874
aasI562
(lp2875
sI563
(lp2876
(lp2877
(Vn't
p2878
g4
tp2879
a(Vopen
p2880
g7
tp2881
aa(lp2882
(V.I
p2883
g11
tp2884
a(Vneeeeed
p2885
g14
tp2886
aasI564
(lp2887
(lp2888
(Vangry
p2889
g11
tp2890
a(Vbirds
p2891
g42
tp2892
aasI565
(lp2893
(lp2894
(Vnot
p2895
g4
tp2896
a(Vwork
p2897
g7
tp2898
aasI566
(lp2899
(lp2900
(Vnot
p2901
g4
tp2902
a(Vdownload
p2903
g7
tp2904
aasI567
(lp2905
sI568
(lp2906
(lp2907
(Vhardly
p2908
g4
tp2909
a(Vget
p2910
g7
tp2911
aasI569
(lp2912
sI570
(lp2913
(lp2914
(Vnew
p2915
g11
tp2916
a(Vupdate
p2917
g14
tp2918
aa(lp2919
(Vblack
p2920
g11
tp2921
a(Vsquares
p2922
g42
tp2923
aa(lp2924
(Vactual
p2925
g11
tp2926
a(Vgraphics
p2927
g42
tp2928
aasI571
(lp2929
(lp2930
(Vn't
p2931
g4
tp2932
a(Vsay
p2933
g7
tp2934
aa(lp2935
(Venough
p2936
g11
tp2937
a(Vgood
p2938
g11
tp2939
aa(lp2940
g2939
a(Vthings
p2941
g42
tp2942
aasI572
(lp2943
(lp2944
(Vn't
p2945
g4
tp2946
a(Vwant
p2947
g7
tp2948
aasI573
(lp2949
sI574
(lp2950
sI575
(lp2951
sI576
(lp2952
sI577
(lp2953
sI578
(lp2954
(lp2955
(Vvery
p2956
g4
tp2957
a(Vstrategic
p2958
g11
tp2959
aa(lp2960
g2959
a(Vturn
p2961
g14
tp2962
aa(lp2963
(Vonly
p2964
g4
tp2965
a(Vthrilled
p2966
g53
tp2967
aa(lp2968
(Vyoung
p2969
g11
tp2970
a(Vones
p2971
g42
tp2972
aa(lp2973
(Vvery
p2974
g4
tp2975
a(Vintuitive
p2976
g11
tp2977
aasI579
(lp2978
(lp2979
(Vrandomly
p2980
g4
tp2981
a(Vhave
p2982
g7
tp2983
aa(lp2984
(Ventire
p2985
g11
tp2986
a(Vlevel
p2987
g14
tp2988
aa(lp2989
(Vonly
p2990
g4
tp2991
a(Vshot
p2992
g11
tp2993
aasI580
(lp2994
(lp2995
(Vn't
p2996
g4
tp2997
a(Vthink
p2998
g7
tp2999
aa(lp3000
(Vstill
p3001
g4
tp3002
a(Vbe
p3003
g7
tp3004
aa(lp3005
(Vmuch
p3006
g4
tp3007
a(Vfun
p3008
g53
tp3009
aa(lp3010
(Vgreat
p3011
g11
tp3012
a(Vfun
p3013
g14
tp3014
aasI581
(lp3015
(lp3016
(Vn't
p3017
g4
tp3018
a(Vgo
p3019
g7
tp3020
aasI582
(lp3021
(lp3022
(Vreally
p3023
g4
tp3024
a(Vdid
p3025
g131
tp3026
aasI583
(lp3027
(lp3028
(Vso
p3029
g4
tp3030
a(VAMAZING
p3031
g108
tp3032
aasI584
(lp3033
(lp3034
(Vn't
p3035
g4
tp3036
a(Vdownload
p3037
g7
tp3038
aa(lp3039
(Vn't
p3040
g4
tp3041
a(Vwork
p3042
g7
tp3043
aasI585
(lp3044
sI586
(lp3045
sI587
(lp3046
(lp3047
(Vangry
p3048
g11
tp3049
a(Vbirds
p3050
g42
tp3051
aa(lp3052
(Vjust
p3053
g4
tp3054
a(Vgot
p3055
g131
tp3056
aasI588
(lp3057
sI589
(lp3058
(lp3059
(Vangry
p3060
g11
tp3061
a(Vbirds
p3062
g42
tp3063
aasI590
(lp3064
(lp3065
(Vfresh
p3066
g11
tp3067
a(V'another
p3068
g11
tp3069
aa(lp3070
(Vfresh
p3071
g11
tp3072
a(Vtake
p3073
g14
tp3074
aasI591
(lp3075
(lp3076
(VReally
p3077
g4
tp3078
a(Vfun
p3079
g53
tp3080
aasI592
(lp3081
(lp3082
(Vnew
p3083
g11
tp3084
a(Vtheme
p3085
g14
tp3086
aa(lp3087
(Vexciting
p3088
g11
tp3089
a(Vnew
p3090
g11
tp3091
aa(lp3092
g3091
a(Vabilities
p3093
g42
tp3094
aa(lp3095
(Vn't
p3096
g4
tp3097
a(Vstop
p3098
g7
tp3099
aasI593
(lp3100
(lp3101
(VBrilliant
p3102
g11
tp3103
a(Vgameplay
p3104
g14
tp3105
aa(lp3106
(Vwell
p3107
g4
tp3108
a(Vintergrated
p3109
g53
tp3110
aasI594
(lp3111
(lp3112
(Vn't
p3113
g4
tp3114
a(Vknow
p3115
g7
tp3116
aa(lp3117
(Vlast
p3118
g11
tp3119
a(Vangry
p3120
g14
tp3121
aa(lp3122
(Vever
p3123
g4
tp3124
a(Vbe
p3125
g7
tp3126
aasI595
(lp3127
(lp3128
(Vmobile
p3129
g11
tp3130
a(Vgame
p3131
g14
tp3132
aasI596
(lp3133
sI597
(lp3134
(lp3135
(Vnew
p3136
g11
tp3137
a(Vlevels
p3138
g42
tp3139
aasI598
(lp3140
(lp3141
(Vinternal
p3142
g11
tp3143
a(Vmemory
p3144
g14
tp3145
aa(lp3146
(Vdownload
p3147
g11
tp3148
a(Vangry
p3149
g14
tp3150
aa(lp3151
(Voriginal
p3152
g11
tp3153
a(Vangry
p3154
g14
tp3155
aasI599
(lp3156
(lp3157
(Vunlockable
p3158
g11
tp3159
a(Varea
p3160
g14
tp3161
aa(lp3162
(Vnot
p3163
g4
tp3164
a(Vaccess
p3165
g7
tp3166
aasI600
(lp3167
(lp3168
(Vn't
p3169
g4
tp3170
a(Vknow
p3171
g7
tp3172
aasI601
(lp3173
(lp3174
(Vextra
p3175
g11
tp3176
a(Vmissions
p3177
g42
tp3178
aa(lp3179
(Vnot
p3180
g4
tp3181
a(Vget
p3182
g7
tp3183
aa(lp3184
(Vextra
p3185
g11
tp3186
a(Vlevels
p3187
g42
tp3188
aa(lp3189
(Vjust
p3190
g4
tp3191
a(Vrocking
p3192
g108
tp3193
aasI602
(lp3194
(lp3195
(Vfinally
p3196
g4
tp3197
a(Vchanged
p3198
g131
tp3199
aa(lp3200
(Vnormal
p3201
g11
tp3202
a(Vsized
p3203
g11
tp3204
aasI603
(lp3205
(lp3206
(Vso
p3207
g4
tp3208
a(Vintrusive
p3209
g11
tp3210
aasI604
(lp3211
sI605
(lp3212
sI606
(lp3213
sI607
(lp3214
(lp3215
(Vn't
p3216
g4
tp3217
a(Vfinish
p3218
g7
tp3219
aasI608
(lp3220
sI609
(lp3221
(lp3222
(Vvisually
p3223
g4
tp3224
a(Vnoisy
p3225
g11
tp3226
aa(lp3227
g3226
a(Vad
p3228
g14
tp3229
aa(lp3230
(Vnot
p3231
g4
tp3232
a(Vbe
p3233
g7
tp3234
aasI610
(lp3235
(lp3236
(Vbad
p3237
g11
tp3238
a(Vpiggies
p3239
g42
tp3240
aasI611
(lp3241
sI612
(lp3242
(lp3243
(Vvery
p3244
g4
tp3245
a(Vaddictive
p3246
g11
tp3247
aasI613
(lp3248
(lp3249
(Vn't
p3250
g4
tp3251
a(Vstop
p3252
g7
tp3253
aasI614
(lp3254
sI615
(lp3255
(lp3256
(Vnot
p3257
g4
tp3258
a(Vallowing
p3259
g108
tp3260
aa(lp3261
(Vdefinitely
p3262
g4
tp3263
a(Vbe
p3264
g7
tp3265
aasI616
(lp3266
sI617
(lp3267
(lp3268
(Vmany
p3269
g11
tp3270
a(Vothers
p3271
g42
tp3272
aa(lp3273
(Vother
p3274
g11
tp3275
a(Vlevel
p3276
g14
tp3277
aa(lp3278
(Vnot
p3279
g4
tp3280
a(Vgain
p3281
g7
tp3282
aasI618
(lp3283
(lp3284
(VNot
p3285
g4
tp3286
a(Vmany
p3287
g11
tp3288
aa(lp3289
(Vreally
p3290
g4
tp3291
a(Vdifferent
p3292
g11
tp3293
aasI619
(lp3294
(lp3295
(Vgreen
p3296
g11
tp3297
a(Vlight
p3298
g14
tp3299
aasI620
(lp3300
(lp3301
(Vn't
p3302
g4
tp3303
a(Vever
p3304
g7
tp3305
aa(lp3306
(Vtime
p3307
g14
tp3308
a(Vgreat
p3309
g11
tp3310
aasI621
(lp3311
(lp3312
(Vn't
p3313
g4
tp3314
a(Vhave
p3315
g7
tp3316
aa(lp3317
(Venough
p3318
g11
tp3319
a(Vspace
p3320
g14
tp3321
aasI622
(lp3322
(lp3323
(Vnew
p3324
g11
tp3325
a(Vangry
p3326
g14
tp3327
aasI623
(lp3328
(lp3329
(Vthen
p3330
g4
tp3331
a(Vreload
p3332
g7
tp3333
aa(lp3334
(Vlast
p3335
g11
tp3336
a(Vapp
p3337
g14
tp3338
aa(lp3339
(Valso
p3340
g4
tp3341
a(Vtask
p3342
g7
tp3343
aasI624
(lp3344
sI625
(lp3345
sI626
(lp3346
(lp3347
(Vtotally
p3348
g4
tp3349
a(Vmessed
p3350
g131
tp3351
aa(lp3352
(Vreally
p3353
g4
tp3354
a(Vupset
p3355
g53
tp3356
aasI627
(lp3357
(lp3358
(Vinnovative
p3359
g11
tp3360
a(Vtheme
p3361
g14
tp3362
aa(lp3363
(Voriginal
p3364
g11
tp3365
a(Vbird-slinging
p3366
g11
tp3367
aa(lp3368
g3367
a(Vgame
p3369
g14
tp3370
aa(lp3371
(Vnew
p3372
g11
tp3373
a(Vpowers
p3374
g42
tp3375
aa(lp3376
(Vcriminal
p3377
g11
tp3378
a(Voffence
p3379
g14
tp3380
aasI628
(lp3381
(lp3382
(VC'mon
p3383
g11
tp3384
a(Vstar
p3385
g14
tp3386
aa(lp3387
(Vangry
p3388
g11
tp3389
a(Vbirds
p3390
g42
tp3391
aa(lp3392
(Vwhole
p3393
g11
tp3394
a(Vnutha
p3395
g14
tp3396
aasI629
(lp3397
sI630
(lp3398
sI631
(lp3399
sI632
(lp3400
(lp3401
(Vso
p3402
g4
tp3403
a(Vstop
p3404
g7
tp3405
aa(lp3406
(Vnot
p3407
g4
tp3408
a(Vhave
p3409
g7
tp3410
aasI633
(lp3411
(lp3412
(Vbig
p3413
g11
tp3414
a(Vfan
p3415
g14
tp3416
aa(lp3417
(Vquite
p3418
g4
tp3419
a(Vgood
p3420
g11
tp3421
aa(lp3422
(Vso
p3423
g4
tp3424
a(Vyeah
p3425
g11
tp3426
aa(lp3427
(Vdefinitely
p3428
g4
tp3429
a(Vworth
p3430
g11
tp3431
aasI634
(lp3432
(lp3433
(VDefinitely
p3434
g4
tp3435
a(Vworth
p3436
g11
tp3437
aasI635
(lp3438
(lp3439
(Vother
p3440
g11
tp3441
a(Vangry
p3442
g14
tp3443
aasI636
(lp3444
(lp3445
(Vyears
p3446
g42
tp3447
a(Vold
p3448
g11
tp3449
aasI637
(lp3450
sI638
(lp3451
(lp3452
(Vjust
p3453
g4
tp3454
a(Vdosent
p3455
g11
tp3456
aa(lp3457
g3456
a(Vfeel
p3458
g14
tp3459
aa(lp3460
(Vblack
p3461
g11
tp3462
a(Vbird
p3463
g14
tp3464
aasI639
(lp3465
sI640
(lp3466
(lp3467
(Vgreat
p3468
g11
tp3469
a(Vgame
p3470
g14
tp3471
aasI641
(lp3472
sI642
(lp3473
sI643
(lp3474
(lp3475
(Vangry
p3476
g11
tp3477
a(Vbirds
p3478
g42
tp3479
aa(lp3480
(VNOT
p3481
g4
tp3482
a(VBE
p3483
g7
tp3484
aa(lp3485
(Vn't
p3486
g4
tp3487
a(Vlike
p3488
g7
tp3489
aa(lp3490
(Vnow
p3491
g4
tp3492
a(Vplastering
p3493
g108
tp3494
aa(lp3495
(Vnew
p3496
g11
tp3497
a(Vgames
p3498
g42
tp3499
aa(lp3500
(Vother
p3501
g11
tp3502
a(Vversions
p3503
g42
tp3504
aa(lp3505
(Vangry
p3506
g11
tp3507
a(Vbirds
p3508
g42
tp3509
aa(lp3510
(Veven
p3511
g4
tp3512
a(Vupdating
p3513
g108
tp3514
aa(lp3515
(Vonly
p3516
g4
tp3517
a(Vintrusive
p3518
g11
tp3519
aa(lp3520
(Vrather
p3521
g4
tp3522
a(Vuse
p3523
g7
tp3524
aa(lp3525
(Vpretty
p3526
g4
tp3527
a(Vboring
p3528
g108
tp3529
aa(lp3530
(Vsimply
p3531
g4
tp3532
a(Vgoing
p3533
g108
tp3534
aa(lp3535
(Vn't
p3536
g4
tp3537
a(Vget
p3538
g7
tp3539
aa(lp3540
(Vnow
p3541
g4
tp3542
a(Vbeing
p3543
g108
tp3544
aasI644
(lp3545
sI645
(lp3546
(lp3547
(Vn't
p3548
g4
tp3549
a(Vclose
p3550
g11
tp3551
aasI646
(lp3552
sI647
(lp3553
sI648
(lp3554
(lp3555
(Val
p3556
g11
tp3557
a(Vcomes
p3558
g42
tp3559
aa(lp3560
(Vgreat
p3561
g11
tp3562
a(Vgame
p3563
g14
tp3564
aa(lp3565
(Vother
p3566
g11
tp3567
a(Vlevels
p3568
g42
tp3569
aasI649
(lp3570
(lp3571
(Vlovable
p3572
g11
tp3573
a(Vgame
p3574
g14
tp3575
aasI650
(lp3576
sI651
(lp3577
sI652
(lp3578
(lp3579
(Vmore
p3580
g1140
tp3581
a(Vfun
p3582
g11
tp3583
aasI653
(lp3584
(lp3585
(Vother
p3586
g11
tp3587
a(Vangry
p3588
g14
tp3589
aasI654
(lp3590
(lp3591
(Vnot
p3592
g4
tp3593
a(Vwork
p3594
g7
tp3595
aasI655
(lp3596
(lp3597
(VJust
p3598
g4
tp3599
a(Vupdated
p3600
g53
tp3601
aa(lp3602
(Vnew
p3603
g11
tp3604
a(Vlevels
p3605
g42
tp3606
aasI656
(lp3607
(lp3608
(VJust
p3609
g4
tp3610
a(Vcurious
p3611
g11
tp3612
aasI657
(lp3613
(lp3614
(Vcant
p3615
g11
tp3616
a(Vinstall
p3617
g14
tp3618
aasI658
(lp3619
(lp3620
(Vnot
p3621
g4
tp3622
a(Vable
p3623
g11
tp3624
aa(lp3625
(Vn't
p3626
g4
tp3627
a(Vget
p3628
g7
tp3629
aasI659
(lp3630
(lp3631
(Valways
p3632
g4
tp3633
a(Vliked
p3634
g131
tp3635
aa(lp3636
(Vtotally
p3637
g4
tp3638
a(Vaddictive
p3639
g11
tp3640
aasI660
(lp3641
sI661
(lp3642
sI662
(lp3643
sI663
(lp3644
sI664
(lp3645
sI665
(lp3646
(lp3647
(Vangry
p3648
g11
tp3649
a(Vbirds
p3650
g42
tp3651
aasI666
(lp3652
sI667
(lp3653
(lp3654
(Vreally
p3655
g4
tp3656
a(Vgreat
p3657
g11
tp3658
aa(lp3659
g3658
a(Vgame
p3660
g14
tp3661
aasI668
(lp3662
(lp3663
(Vwell
p3664
g4
tp3665
a(Vworth
p3666
g11
tp3667
aa(lp3668
(Vonly
p3669
g4
tp3670
a(Vwant
p3671
g7
tp3672
aa(lp3673
(Voriginal
p3674
g11
tp3675
a(Vtrilogy
p3676
g14
tp3677
aasI669
(lp3678
(lp3679
(Vsuper-duper
p3680
g11
tp3681
a(Vlightsaber
p3682
g14
tp3683
aasI670
(lp3684
sI671
(lp3685
(lp3686
(Vfavorite
p3687
g11
tp3688
a(Vangry
p3689
g14
tp3690
aasI672
(lp3691
(lp3692
(V.must
p3693
g11
tp3694
a(Vplay
p3695
g14
tp3696
aasI673
(lp3697
sI674
(lp3698
sI675
(lp3699
sI676
(lp3700
(lp3701
(Vjust
p3702
g4
tp3703
a(Vcompleted
p3704
g131
tp3705
aa(lp3706
(Vnot
p3707
g4
tp3708
a(Vopened
p3709
g53
tp3710
aasI677
(lp3711
(lp3712
(Vangry
p3713
g11
tp3714
a(Vbirds
p3715
g42
tp3716
aasI678
(lp3717
sI679
(lp3718
sI680
(lp3719
sI681
(lp3720
sI682
(lp3721
(lp3722
(Vlight
p3723
g11
tp3724
a(Vsabers
p3725
g42
tp3726
aasI683
(lp3727
sI684
(lp3728
sI685
(lp3729
(lp3730
(Vseveral
p3731
g11
tp3732
a(Vtimes
p3733
g42
tp3734
aa(lp3735
(Vn't
p3736
g4
tp3737
a(Vload
p3738
g7
tp3739
aasI686
(lp3740
sI687
(lp3741
(lp3742
(Vgreat
p3743
g11
tp3744
a(Vfun
p3745
g14
tp3746
aa(lp3747
(Vn't
p3748
g4
tp3749
a(Vdowlond
p3750
g7
tp3751
aa(lp3752
(Vn't
p3753
g4
tp3754
a(Vdowlond
p3755
g7
tp3756
aa(lp3757
(Vjust
p3758
g4
tp3759
a(Vdid
p3760
g131
tp3761
aa(lp3762
(Vfirst
p3763
g11
tp3764
a(Vbit
p3765
g14
tp3766
aa(lp3767
(Vlong
p3768
g11
tp3769
a(Vtime
p3770
g14
tp3771
aa(lp3772
(Vso
p3773
g4
tp3774
a(Vgood
p3775
g11
tp3776
aa(lp3777
g3776
a(Vapp
p3778
g14
tp3779
aasI688
(lp3780
(lp3781
(Vn't
p3782
g4
tp3783
a(Vrate
p3784
g7
tp3785
aa(lp3786
(Vn't
p3787
g4
tp3788
a(Vplay
p3789
g7
tp3790
aa(lp3791
(Vangry
p3792
g11
tp3793
a(Vbirds
p3794
g42
tp3795
aa(lp3796
(Vnot
p3797
g4
tp3798
a(Vnecessary
p3799
g11
tp3800
aasI689
(lp3801
(lp3802
(Vvery
p3803
g4
tp3804
a(Vfun
p3805
g11
tp3806
aasI690
(lp3807
(lp3808
(Vnever
p3809
g4
tp3810
a(Vdid
p3811
g131
tp3812
aa(lp3813
(Vthere
p3814
g4
tp3815
a(Vwas
p3816
g131
tp3817
aa(lp3818
(Vnot
p3819
g4
tp3820
a(Vrefuse
p3821
g7
tp3822
aa(lp3823
(Vn't
p3824
g4
tp3825
a(Vwait
p3826
g7
tp3827
aa(lp3828
(Vmore
p3829
g1140
tp3830
a(Vstar
p3831
g11
tp3832
aa(lp3833
g3832
a(Vwars
p3834
g42
tp3835
aasI691
(lp3836
sI692
(lp3837
(lp3838
(Vwonderful
p3839
g11
tp3840
a(Vabilities
p3841
g42
tp3842
aa(lp3843
(Vonly
p3844
g11
tp3845
a(Vdisappointing
p3846
g11
tp3847
aa(lp3848
g3847
a(Vfactor
p3849
g14
tp3850
aa(lp3851
(Vtrue
p3852
g11
tp3853
a(Vstart
p3854
g14
tp3855
aasI693
(lp3856
sI694
(lp3857
(lp3858
(Vreally
p3859
g4
tp3860
a(Vappreciate
p3861
g11
tp3862
aa(lp3863
(Vwhole
p3864
g11
tp3865
a(Vfamily
p3866
g14
tp3867
aa(lp3868
(Vvery
p3869
g4
tp3870
a(Vfair
p3871
g11
tp3872
aa(lp3873
(Vn't
p3874
g4
tp3875
a(Vhave
p3876
g7
tp3877
aa(lp3878
(Vgood
p3879
g11
tp3880
a(Vtime
p3881
g14
tp3882
aa(lp3883
(Vn't
p3884
g4
tp3885
a(Vmake
p3886
g7
tp3887
aa(lp3888
(Voriginal
p3889
g11
tp3890
a(Vangry
p3891
g14
tp3892
aa(lp3893
(Vincredible
p3894
g11
tp3895
a(Vlittle
p3896
g14
tp3897
aasI695
(lp3898
(lp3899
(Vepic
p3900
g11
tp3901
a(Vintegalactic
p3902
g11
tp3903
aa(lp3904
(Vcomplete
p3905
g11
tp3906
a(Vepisode
p3907
g14
tp3908
aasI696
(lp3909
(lp3910
(Vvery
p3911
g4
tp3912
a(Vgood
p3913
g11
tp3914
aa(lp3915
(Vlast
p3916
g11
tp3917
a(Vupdate
p3918
g14
tp3919
aasI697
(lp3920
(lp3921
(Vvery
p3922
g4
tp3923
a(Vmuch
p3924
g11
tp3925
aasI698
(lp3926
(lp3927
(Vnot
p3928
g4
tp3929
a(Vget
p3930
g7
tp3931
aasI699
(lp3932
(lp3933
(Vplay
p3934
g14
tp3935
a(Vother
p3936
g11
tp3937
aa(lp3938
g3937
a(Vlevels
p3939
g42
tp3940
aa(lp3941
(Vrich
p3942
g11
tp3943
a(Venough
p3944
g11
tp3945
aa(lp3946
g3945
a(Vcome
p3947
g14
tp3948
aasI700
(lp3949
sI701
(lp3950
sI702
(lp3951
sI703
(lp3952
sI704
(lp3953
sI705
(lp3954
(lp3955
(Vperfect
p3956
g11
tp3957
a(Vstar
p3958
g14
tp3959
aa(lp3960
(Vangry
p3961
g11
tp3962
a(Vbirds
p3963
g42
tp3964
aasI706
(lp3965
(lp3966
(Vvery
p3967
g4
tp3968
a(Vgood
p3969
g11
tp3970
aa(lp3971
(Vlast
p3972
g11
tp3973
a(Vupdate
p3974
g14
tp3975
aasI707
(lp3976
(lp3977
(Vplay
p3978
g14
tp3979
a(Vother
p3980
g11
tp3981
aa(lp3982
g3981
a(Vlevels
p3983
g42
tp3984
aa(lp3985
(Vrich
p3986
g11
tp3987
a(Venough
p3988
g11
tp3989
aa(lp3990
g3989
a(Vcome
p3991
g14
tp3992
aasI708
(lp3993
(lp3994
(Vnot
p3995
g4
tp3996
a(Vget
p3997
g7
tp3998
aasI709
(lp3999
sI710
(lp4000
(lp4001
(Vnot
p4002
g4
tp4003
a(Vopen
p4004
g7
tp4005
aa(lp4006
(Vsecond
p4007
g11
tp4008
a(Vtime
p4009
g14
tp4010
aasI711
(lp4011
sI712
(lp4012
sI713
(lp4013
sI714
(lp4014
(lp4015
(Vnext
p4016
g11
tp4017
a(Vplanet
p4018
g14
tp4019
aasI715
(lp4020
(lp4021
(Vactually
p4022
g4
tp4023
a(Vpay
p4024
g7
tp4025
aa(lp4026
(Vown
p4027
g11
tp4028
a(Vlevels
p4029
g42
tp4030
aa(lp4031
(Vown
p4032
g11
tp4033
a(Vfort
p4034
g14
tp4035
aasI716
(lp4036
sI717
(lp4037
sI718
(lp4038
sI719
(lp4039
sI720
(lp4040
(lp4041
(Vnot
p4042
g4
tp4043
a(Vopen
p4044
g7
tp4045
aa(lp4046
(Vsecond
p4047
g11
tp4048
a(Vtime
p4049
g14
tp4050
aasI721
(lp4051
(lp4052
(Vnext
p4053
g11
tp4054
a(Vlevel
p4055
g14
tp4056
aa(lp4057
(Vnot
p4058
g4
tp4059
a(Vunlock
p4060
g7
tp4061
aasI722
(lp4062
sI723
(lp4063
(lp4064
(Vnext
p4065
g11
tp4066
a(Vplanet
p4067
g14
tp4068
aasI724
(lp4069
sI725
(lp4070
(lp4071
(Vactually
p4072
g4
tp4073
a(Vpay
p4074
g7
tp4075
aa(lp4076
(Vown
p4077
g11
tp4078
a(Vlevels
p4079
g42
tp4080
aa(lp4081
(Vown
p4082
g11
tp4083
a(Vfort
p4084
g14
tp4085
aasI726
(lp4086
sI727
(lp4087
(lp4088
(Vjust
p4089
g4
tp4090
a(Vplain
p4091
g7
tp4092
aasI728
(lp4093
sI729
(lp4094
sI730
(lp4095
(lp4096
(Veven
p4097
g4
tp4098
a(Vopen
p4099
g11
tp4100
aasI731
(lp4101
sI732
(lp4102
sI733
(lp4103
(lp4104
(Vnot
p4105
g4
tp4106
a(Vopen
p4107
g7
tp4108
aa(lp4109
(Vsecond
p4110
g11
tp4111
a(Vtime
p4112
g14
tp4113
aasI734
(lp4114
(lp4115
(Vnext
p4116
g11
tp4117
a(Vlevel
p4118
g14
tp4119
aa(lp4120
(Vnot
p4121
g4
tp4122
a(Vunlock
p4123
g7
tp4124
aasI735
(lp4125
(lp4126
(Vnext
p4127
g11
tp4128
a(Vplanet
p4129
g14
tp4130
aasI736
(lp4131
sI737
(lp4132
sI738
(lp4133
(lp4134
(Vjust
p4135
g4
tp4136
a(Vplain
p4137
g7
tp4138
aasI739
(lp4139
sI740
(lp4140
sI741
(lp4141
sI742
(lp4142
(lp4143
(Veven
p4144
g4
tp4145
a(Vopen
p4146
g11
tp4147
aasI743
(lp4148
sI744
(lp4149
sI745
(lp4150
sI746
(lp4151
sI747
(lp4152
sI748
(lp4153
(lp4154
(Veven
p4155
g4
tp4156
a(Vopen
p4157
g11
tp4158
aasI749
(lp4159
sI750
(lp4160
sI751
(lp4161
(lp4162
(Vnot
p4163
g4
tp4164
a(Vgood
p4165
g11
tp4166
aa(lp4167
g4166
a(Vfreezes
p4168
g42
tp4169
aasI752
(lp4170
sI753
(lp4171
sI754
(lp4172
sI755
(lp4173
sI756
(lp4174
sI757
(lp4175
sI758
(lp4176
sI759
(lp4177
(lp4178
(Vnot
p4179
g4
tp4180
a(Vgood
p4181
g11
tp4182
aa(lp4183
g4182
a(Vfreezes
p4184
g42
tp4185
aasI760
(lp4186
sI761
(lp4187
sI762
(lp4188
sI763
(lp4189
sI764
(lp4190
sI765
(lp4191
sI766
(lp4192
(lp4193
(Vbird
p4194
g11
tp4195
a(Vpreview
p4196
g14
tp4197
aa(lp4198
(Vmany
p4199
g11
tp4200
a(Vnew
p4201
g11
tp4202
aa(lp4203
g4202
a(Vones
p4204
g42
tp4205
aasI767
(lp4206
sI768
(lp4207
sI769
(lp4208
sI770
(lp4209
sI771
(lp4210
(lp4211
(Vnot
p4212
g4
tp4213
a(Vgood
p4214
g11
tp4215
aa(lp4216
g4215
a(Vfreezes
p4217
g42
tp4218
aasI772
(lp4219
sI773
(lp4220
(lp4221
(VNot
p4222
g4
tp4223
a(Vhappy
p4224
g11
tp4225
aasI774
(lp4226
(lp4227
(Vnext
p4228
g11
tp4229
a(Vangry
p4230
g14
tp4231
aasI775
(lp4232
sI776
(lp4233
sI777
(lp4234
sI778
(lp4235
sI779
(lp4236
sI780
(lp4237
sI781
(lp4238
(lp4239
(VNot
p4240
g4
tp4241
a(Vhappy
p4242
g11
tp4243
aasI782
(lp4244
(lp4245
(Veasiest
p4246
g11
tp4247
a(Vangry
p4248
g14
tp4249
aasI783
(lp4250
(lp4251
(Vnext
p4252
g11
tp4253
a(Vangry
p4254
g14
tp4255
aasI784
(lp4256
sI785
(lp4257
sI786
(lp4258
sI787
(lp4259
sI788
(lp4260
sI789
(lp4261
sI790
(lp4262
sI791
(lp4263
(lp4264
(VNot
p4265
g4
tp4266
a(Vhappy
p4267
g11
tp4268
aasI792
(lp4269
(lp4270
(Veasiest
p4271
g11
tp4272
a(Vangry
p4273
g14
tp4274
aasI793
(lp4275
(lp4276
(Vnext
p4277
g11
tp4278
a(Vangry
p4279
g14
tp4280
aasI794
(lp4281
sI795
(lp4282
sI796
(lp4283
sI797
(lp4284
sI798
(lp4285
sI799
(lp4286
(lp4287
(VAbsolutely
p4288
g4
tp4289
a(Ventertaining
p4290
g108
tp4291
aa(lp4292
(Vcompletely
p4293
g4
tp4294
a(Vhappy
p4295
g11
tp4296
aasI800
(lp4297
sI801
(lp4298
(lp4299
(Veasiest
p4300
g11
tp4301
a(Vangry
p4302
g14
tp4303
aasI802
(lp4304
sI803
(lp4305
(lp4306
(Vnext
p4307
g11
tp4308
a(Vangry
p4309
g14
tp4310
aasI804
(lp4311
sI805
(lp4312
sI806
(lp4313
sI807
(lp4314
sI808
(lp4315
sI809
(lp4316
sI810
(lp4317
sI811
(lp4318
(lp4319
(VAbsolutely
p4320
g4
tp4321
a(Ventertaining
p4322
g108
tp4323
aa(lp4324
(Vcompletely
p4325
g4
tp4326
a(Vhappy
p4327
g11
tp4328
aasI812
(lp4329
(lp4330
(Vespecially
p4331
g4
tp4332
a(Vlove
p4333
g7
tp4334
aa(lp4335
(Vn't
p4336
g4
tp4337
a(Vlet
p4338
g7
tp4339
aasI813
(lp4340
(lp4341
(Veasiest
p4342
g11
tp4343
a(Vangry
p4344
g14
tp4345
aasI814
(lp4346
(lp4347
(Veven
p4348
g4
tp4349
a(Vhave
p4350
g7
tp4351
aasI815
(lp4352
sI816
(lp4353
sI817
(lp4354
(lp4355
(Vfree
p4356
g11
tp4357
a(Vparts
p4358
g42
tp4359
aasI818
(lp4360
sI819
(lp4361
sI820
(lp4362
(lp4363
(VAbsolutely
p4364
g4
tp4365
a(Ventertaining
p4366
g108
tp4367
aa(lp4368
(Vcompletely
p4369
g4
tp4370
a(Vhappy
p4371
g11
tp4372
aasI821
(lp4373
sI822
(lp4374
(lp4375
(Vn't
p4376
g4
tp4377
a(Vlet
p4378
g7
tp4379
aasI823
(lp4380
(lp4381
(Vespecially
p4382
g4
tp4383
a(Vlove
p4384
g7
tp4385
aa(lp4386
(Vn't
p4387
g4
tp4388
a(Vlet
p4389
g7
tp4390
aasI824
(lp4391
(lp4392
(Veven
p4393
g4
tp4394
a(Vhave
p4395
g7
tp4396
aasI825
(lp4397
sI826
(lp4398
sI827
(lp4399
sI828
(lp4400
(lp4401
(Vn't
p4402
g4
tp4403
a(Vclose
p4404
g11
tp4405
aa(lp4406
g4405
a(Vads
p4407
g42
tp4408
aasI829
(lp4409
sI830
(lp4410
sI831
(lp4411
(lp4412
(Vn't
p4413
g4
tp4414
a(Vlet
p4415
g7
tp4416
aasI832
(lp4417
(lp4418
(Vespecially
p4419
g4
tp4420
a(Vlove
p4421
g7
tp4422
aa(lp4423
(Vn't
p4424
g4
tp4425
a(Vlet
p4426
g7
tp4427
aasI833
(lp4428
(lp4429
(Vother
p4430
g11
tp4431
a(Vangry
p4432
g14
tp4433
aasI834
(lp4434
sI835
(lp4435
sI836
(lp4436
sI837
(lp4437
(lp4438
(Vfun
p4439
g14
tp4440
a(Vnew
p4441
g11
tp4442
aa(lp4443
g4442
a(Vtrust
p4444
g14
tp4445
aasI838
(lp4446
sI839
(lp4447
(lp4448
(Vn't
p4449
g4
tp4450
a(Vlet
p4451
g7
tp4452
aasI840
(lp4453
sI841
(lp4454
sI842
(lp4455
(lp4456
(Vother
p4457
g11
tp4458
a(Vangry
p4459
g14
tp4460
aasI843
(lp4461
sI844
(lp4462
sI845
(lp4463
sI846
(lp4464
sI847
(lp4465
(lp4466
(Vnot
p4467
g4
tp4468
a(Vwork
p4469
g7
tp4470
aa(lp4471
(Vnot
p4472
g4
tp4473
a(Vwork
p4474
g7
tp4475
aasI848
(lp4476
sI849
(lp4477
sI850
(lp4478
(lp4479
(Vother
p4480
g11
tp4481
a(Vangry
p4482
g14
tp4483
aasI851
(lp4484
sI852
(lp4485
sI853
(lp4486
sI854
(lp4487
sI855
(lp4488
sI856
(lp4489
sI857
(lp4490
sI858
(lp4491
sI859
(lp4492
sI860
(lp4493
sI861
(lp4494
sI862
(lp4495
sI863
(lp4496
sI864
(lp4497
(lp4498
(Vepic
p4499
g11
tp4500
a(Vgame
p4501
g14
tp4502
aasI865
(lp4503
sI866
(lp4504
sI867
(lp4505
sI868
(lp4506
sI869
(lp4507
sI870
(lp4508
sI871
(lp4509
sI872
(lp4510
sI873
(lp4511
sI874
(lp4512
(lp4513
(Vepic
p4514
g11
tp4515
a(Vgame
p4516
g14
tp4517
aasI875
(lp4518
sI876
(lp4519
sI877
(lp4520
sI878
(lp4521
sI879
(lp4522
sI880
(lp4523
sI881
(lp4524
sI882
(lp4525
sI883
(lp4526
(lp4527
(Vdifferent
p4528
g11
tp4529
a(Vview
p4530
g14
tp4531
aasI884
(lp4532
sI885
(lp4533
sI886
(lp4534
sI887
(lp4535
sI888
(lp4536
sI889
(lp4537
sI890
(lp4538
sI891
(lp4539
sI892
(lp4540
(lp4541
(Vdifferent
p4542
g11
tp4543
a(Vview
p4544
g14
tp4545
aasI893
(lp4546
sI894
(lp4547
sI895
(lp4548
sI896
(lp4549
(lp4550
(Vad
p4551
g14
tp4552
a(Vfree
p4553
g11
tp4554
aa(lp4555
(Vstill
p4556
g4
tp4557
a(Vgetting
p4558
g108
tp4559
aasI897
(lp4560
sI898
(lp4561
sI899
(lp4562
sI900
(lp4563
(lp4564
(Vdifferent
p4565
g11
tp4566
a(Vview
p4567
g14
tp4568
aasI901
(lp4569
sI902
(lp4570
(lp4571
(VJust
p4572
g4
tp4573
a(Vgot
p4574
g131
tp4575
aasI903
(lp4576
sI904
(lp4577
sI905
(lp4578
sI906
(lp4579
sI907
(lp4580
(lp4581
(Vangry
p4582
g11
tp4583
a(Vbirds
p4584
g42
tp4585
aa(lp4586
(Vangry
p4587
g11
tp4588
a(Vbirds
p4589
g42
tp4590
aasI908
(lp4591
sI909
(lp4592
(lp4593
(Vad
p4594
g14
tp4595
a(Vfree
p4596
g11
tp4597
aa(lp4598
(Vstill
p4599
g4
tp4600
a(Vgetting
p4601
g108
tp4602
aasI910
(lp4603
sI911
(lp4604
sI912
(lp4605
sI913
(lp4606
sI914
(lp4607
(lp4608
(Vmuch
p4609
g4
tp4610
a(Vfun
p4611
g53
tp4612
aasI915
(lp4613
(lp4614
(VJust
p4615
g4
tp4616
a(Vgot
p4617
g131
tp4618
aasI916
(lp4619
sI917
(lp4620
sI918
(lp4621
sI919
(lp4622
sI920
(lp4623
(lp4624
(Vangry
p4625
g11
tp4626
a(Vbirds
p4627
g42
tp4628
aa(lp4629
(Vangry
p4630
g11
tp4631
a(Vbirds
p4632
g42
tp4633
aasI921
(lp4634
sI922
(lp4635
sI923
(lp4636
sI924
(lp4637
sI925
(lp4638
(lp4639
(Vmuch
p4640
g4
tp4641
a(Vfun
p4642
g53
tp4643
aasI926
(lp4644
sI927
(lp4645
sI928
(lp4646
sI929
(lp4647
sI930
(lp4648
(lp4649
(Vangry
p4650
g11
tp4651
a(Vbirds
p4652
g42
tp4653
aa(lp4654
(Vangry
p4655
g11
tp4656
a(Vbirds
p4657
g42
tp4658
aasI931
(lp4659
sI932
(lp4660
sI933
(lp4661
sI934
(lp4662
sI935
(lp4663
(lp4664
(Vmuch
p4665
g4
tp4666
a(Vfun
p4667
g53
tp4668
aasI936
(lp4669
sI937
(lp4670
sI938
(lp4671
(lp4672
(Vnew
p4673
g11
tp4674
a(Vpink
p4675
g14
tp4676
aa(lp4677
(Vpretty
p4678
g4
tp4679
a(Vcool
p4680
g11
tp4681
aa(lp4682
(Vnew
p4683
g11
tp4684
a(Vpower
p4685
g14
tp4686
aasI939
(lp4687
(lp4688
(V3yr
p4689
g11
tp4690
a(Vold
p4691
g11
tp4692
aa(lp4693
g4692
a(Vgson
p4694
g14
tp4695
aasI940
(lp4696
(lp4697
(Vvery
p4698
g4
tp4699
a(Vnice
p4700
g11
tp4701
aasI941
(lp4702
sI942
(lp4703
sI943
(lp4704
sI944
(lp4705
sI945
(lp4706
sI946
(lp4707
sI947
(lp4708
(lp4709
(Vnew
p4710
g11
tp4711
a(Vgame
p4712
g14
tp4713
aasI948
(lp4714
sI949
(lp4715
sI950
(lp4716
(lp4717
(Vnew
p4718
g11
tp4719
a(Vpink
p4720
g14
tp4721
aa(lp4722
(Vpretty
p4723
g4
tp4724
a(Vcool
p4725
g11
tp4726
aa(lp4727
(Vnew
p4728
g11
tp4729
a(Vpower
p4730
g14
tp4731
aasI951
(lp4732
(lp4733
(V3yr
p4734
g11
tp4735
a(Vold
p4736
g11
tp4737
aa(lp4738
g4737
a(Vgson
p4739
g14
tp4740
aasI952
(lp4741
(lp4742
(Vvery
p4743
g4
tp4744
a(Vnice
p4745
g11
tp4746
aasI953
(lp4747
sI954
(lp4748
sI955
(lp4749
sI956
(lp4750
sI957
(lp4751
sI958
(lp4752
(lp4753
(Vnew
p4754
g11
tp4755
a(Vgame
p4756
g14
tp4757
aasI959
(lp4758
sI960
(lp4759
(lp4760
(Vn't
p4761
g4
tp4762
a(Vmove
p4763
g7
tp4764
aa(lp4765
(Vsecond
p4766
g11
tp4767
a(Vlevel
p4768
g14
tp4769
aasI961
(lp4770
sI962
(lp4771
(lp4772
(Vnew
p4773
g11
tp4774
a(Vpink
p4775
g14
tp4776
aa(lp4777
(Vpretty
p4778
g4
tp4779
a(Vcool
p4780
g11
tp4781
aa(lp4782
(Vnew
p4783
g11
tp4784
a(Vpower
p4785
g14
tp4786
aasI963
(lp4787
sI964
(lp4788
(lp4789
(Vvery
p4790
g4
tp4791
a(Vnice
p4792
g11
tp4793
aasI965
(lp4794
sI966
(lp4795
sI967
(lp4796
sI968
(lp4797
sI969
(lp4798
(lp4799
(Vn't
p4800
g4
tp4801
a(Vmove
p4802
g7
tp4803
aa(lp4804
(Vsecond
p4805
g11
tp4806
a(Vlevel
p4807
g14
tp4808
aasI970
(lp4809
(lp4810
(Vcharacters
p4811
g42
tp4812
a(Vnew
p4813
g11
tp4814
aasI971
(lp4815
sI972
(lp4816
sI973
(lp4817
sI974
(lp4818
sI975
(lp4819
sI976
(lp4820
sI977
(lp4821
(lp4822
(Vn't
p4823
g4
tp4824
a(Vmove
p4825
g7
tp4826
aa(lp4827
(Vsecond
p4828
g11
tp4829
a(Vlevel
p4830
g14
tp4831
aasI978
(lp4832
(lp4833
(Vcharacters
p4834
g42
tp4835
a(Vnew
p4836
g11
tp4837
aasI979
(lp4838
sI980
(lp4839
sI981
(lp4840
sI982
(lp4841
sI983
(lp4842
sI984
(lp4843
sI985
(lp4844
sI986
(lp4845
sI987
(lp4846
sI988
(lp4847
(lp4848
(Vvery
p4849
g4
tp4850
a(Vaddictive
p4851
g11
tp4852
aa(lp4853
g4852
a(Vgame
p4854
g14
tp4855
aasI989
(lp4856
sI990
(lp4857
(lp4858
(Vcharacters
p4859
g42
tp4860
a(Vnew
p4861
g11
tp4862
aasI991
(lp4863
sI992
(lp4864
sI993
(lp4865
sI994
(lp4866
sI995
(lp4867
sI996
(lp4868
sI997
(lp4869
sI998
(lp4870
sI999
(lp4871
(lp4872
(Vnew
p4873
g11
tp4874
a(Vpowers
p4875
g42
tp4876
aasI1000
(lp4877
(lp4878
(Vvery
p4879
g4
tp4880
a(Vaddictive
p4881
g11
tp4882
aa(lp4883
g4882
a(Vgame
p4884
g14
tp4885
aasI1001
(lp4886
sI1002
(lp4887
sI1003
(lp4888
sI1004
(lp4889
sI1005
(lp4890
sI1006
(lp4891
(lp4892
(Vn't
p4893
g4
tp4894
a(Vcuz
p4895
g7
tp4896
aa(lp4897
(Vvery
p4898
g11
tp4899
a(Vannoying
p4900
g14
tp4901
aasI1007
(lp4902
(lp4903
(Vthen
p4904
g4
tp4905
a(Vexit
p4906
g7
tp4907
aa(lp4908
(Vonly
p4909
g4
tp4910
a(Vtake
p4911
g7
tp4912
aa(lp4913
(Vnot
p4914
g4
tp4915
a(Vlet
p4916
g7
tp4917
aasI1008
(lp4918
(lp4919
(Vvery
p4920
g4
tp4921
a(Vgood
p4922
g11
tp4923
aa(lp4924
(Vprevious
p4925
g11
tp4926
a(Vgames
p4927
g42
tp4928
aa(lp4929
(Vn't
p4930
g4
tp4931
a(Vbeat
p4932
g7
tp4933
aa(lp4934
(Vvery
p4935
g4
tp4936
a(Vfun
p4937
g53
tp4938
aasI1009
(lp4939
(lp4940
(Vn't
p4941
g4
tp4942
a(Vcuz
p4943
g7
tp4944
aa(lp4945
(Vvery
p4946
g11
tp4947
a(Vannoying
p4948
g14
tp4949
aasI1010
(lp4950
(lp4951
(Vthen
p4952
g4
tp4953
a(Vexit
p4954
g7
tp4955
aa(lp4956
(Vonly
p4957
g4
tp4958
a(Vtake
p4959
g7
tp4960
aa(lp4961
(Vnot
p4962
g4
tp4963
a(Vlet
p4964
g7
tp4965
aasI1011
(lp4966
(lp4967
(Vvery
p4968
g4
tp4969
a(Vgood
p4970
g11
tp4971
aa(lp4972
(Vprevious
p4973
g11
tp4974
a(Vgames
p4975
g42
tp4976
aa(lp4977
(Vn't
p4978
g4
tp4979
a(Vbeat
p4980
g7
tp4981
aa(lp4982
(Vvery
p4983
g4
tp4984
a(Vfun
p4985
g53
tp4986
aasI1012
(lp4987
(lp4988
(Vpretty
p4989
g4
tp4990
a(Vfreaking
p4991
g108
tp4992
aa(lp4993
(Vsomething
p4994
g14
tp4995
a(Vnew
p4996
g11
tp4997
aasI1013
(lp4998
(lp4999
(VReally
p5000
g4
tp5001
a(Vloving
p5002
g108
tp5003
aasI1014
(lp5004
(lp5005
(Vangry
p5006
g11
tp5007
a(Vbirds
p5008
g42
tp5009
aa(lp5010
(Veventually
p5011
g4
tp5012
a(Vgot
p5013
g131
tp5014
aa(lp5015
(Vnext
p5016
g11
tp5017
a(Vupdate
p5018
g14
tp5019
aasI1015
(lp5020
(lp5021
(Vgood
p5022
g11
tp5023
a(Vangry
p5024
g14
tp5025
aasI1016
(lp5026
(lp5027
(Vlast
p5028
g11
tp5029
a(Vupdate
p5030
g14
tp5031
aasI1017
(lp5032
(lp5033
(Vsame
p5034
g11
tp5035
a(Vresult
p5036
g14
tp5037
aasI1018
(lp5038
sI1019
(lp5039
sI1020
(lp5040
(lp5041
(Vmost
p5042
g161
tp5043
a(Vinteresting
p5044
g11
tp5045
aasI1021
(lp5046
sI1022
(lp5047
sI1023
(lp5048
sI1024
(lp5049
sI1025
(lp5050
sI1026
(lp5051
(lp5052
(Vstill
p5053
g4
tp5054
a(Vawful
p5055
g11
tp5056
aa(lp5057
(Vlow
p5058
g11
tp5059
a(Vrate
p5060
g14
tp5061
aasI1027
(lp5062
sI1028
(lp5063
(lp5064
(Vn't
p5065
g4
tp5066
a(Vplay
p5067
g7
tp5068
aasI1029
(lp5069
(lp5070
(Vreluctantly
p5071
g4
tp5072
a(Vspent
p5073
g131
tp5074
aa(lp5075
(Vnever
p5076
g4
tp5077
a(Vgot
p5078
g131
tp5079
aasI1030
(lp5080
(lp5081
(Vvery
p5082
g4
tp5083
a(Vaddictive
p5084
g11
tp5085
aa(lp5086
(Vvery
p5087
g4
tp5088
a(Vfun
p5089
g11
tp5090
aasI1031
(lp5091
sI1032
(lp5092
sI1033
(lp5093
(lp5094
(Vclassic
p5095
g11
tp5096
a(Vcharacters
p5097
g42
tp5098
aasI1034
(lp5099
(lp5100
(Vn't
p5101
g4
tp5102
a(Vhave
p5103
g7
tp5104
aasI1035
(lp5105
(lp5106
(VReally
p5107
g4
tp5108
a(Vfun
p5109
g53
tp5110
aasI1036
(lp5111
sI1037
(lp5112
sI1038
(lp5113
(lp5114
(Ventertaining
p5115
g11
tp5116
a(Vgame
p5117
g14
tp5118
aasI1039
(lp5119
sI1040
(lp5120
(lp5121
(Vn't
p5122
g4
tp5123
a(Vget
p5124
g7
tp5125
aasI1041
(lp5126
(lp5127
(Vangry
p5128
g11
tp5129
a(Vbirds
p5130
g42
tp5131
aa(lp5132
(Vnot
p5133
g4
tp5134
a(Vusing
p5135
g108
tp5136
aasI1042
(lp5137
sI1043
(lp5138
(lp5139
(Vnext
p5140
g11
tp5141
a(Vangry
p5142
g14
tp5143
aasI1044
(lp5144
(lp5145
(Vangry
p5146
g11
tp5147
a(Vbirds
p5148
g42
tp5149
aasI1045
(lp5150
sI1046
(lp5151
sI1047
(lp5152
(lp5153
(Vtoo
p5154
g4
tp5155
a(Vbig
p5156
g11
tp5157
aasI1048
(lp5158
(lp5159
(Vvery
p5160
g4
tp5161
a(Vcute
p5162
g11
tp5163
aa(lp5164
(Vvarious
p5165
g11
tp5166
a(Vfeatures
p5167
g42
tp5168
aasI1049
(lp5169
(lp5170
(Vbig
p5171
g11
tp5172
a(Vboss
p5173
g14
tp5174
aa(lp5175
(Vdarth
p5176
g11
tp5177
a(Vpig
p5178
g14
tp5179
aasI1050
(lp5180
(lp5181
(Vfunny
p5182
g11
tp5183
a(Vstar
p5184
g14
tp5185
aasI1051
(lp5186
(lp5187
(Vmany
p5188
g11
tp5189
a(Vfresh
p5190
g11
tp5191
aa(lp5192
(Venjoyable
p5193
g11
tp5194
a(Videas
p5195
g42
tp5196
aasI1052
(lp5197
(lp5198
(Vreally
p5199
g4
tp5200
a(Vexcited
p5201
g53
tp5202
aa(lp5203
(Veven
p5204
g4
tp5205
a(Vload
p5206
g7
tp5207
aa(lp5208
(Vn't
p5209
g4
tp5210
a(Vplay
p5211
g7
tp5212
aa(lp5213
(Vn't
p5214
g4
tp5215
a(Vshow
p5216
g7
tp5217
aasI1053
(lp5218
sI1054
(lp5219
(lp5220
(Vaboslutly
p5221
g4
tp5222
a(Vamazing
p5223
g108
tp5224
aa(lp5225
(Vlittle
p5226
g4
tp5227
a(Vanoying
p5228
g108
tp5229
aa(lp5230
(Voverall
p5231
g11
tp5232
a(Vgreat
p5233
g11
tp5234
aasI1055
(lp5235
(lp5236
(Vn't
p5237
g4
tp5238
a(Vgon
p5239
g7
tp5240
aa(lp5241
(VNOT
p5242
g4
tp5243
a(Vdisappointed
p5244
g53
tp5245
aasI1056
(lp5246
(lp5247
(Vhuge
p5248
g11
tp5249
a(Vhelp
p5250
g14
tp5251
aasI1057
(lp5252
(lp5253
(Vn't
p5254
g4
tp5255
a(Vunlock
p5256
g7
tp5257
aa(lp5258
(Valso
p5259
g4
tp5260
a(Vhappened
p5261
g131
tp5262
aa(lp5263
(Vgood
p5264
g11
tp5265
a(Vgame
p5266
g14
tp5267
aasI1058
(lp5268
(lp5269
(Vpretty
p5270
g4
tp5271
a(Vsweet
p5272
g11
tp5273
aasI1059
(lp5274
sI1060
(lp5275
(lp5276
(Voriginal
p5277
g11
tp5278
a(Vangry
p5279
g14
tp5280
aa(lp5281
(Vangry
p5282
g11
tp5283
a(Vbird
p5284
g14
tp5285
aasI1061
(lp5286
(lp5287
(Vsame
p5288
g11
tp5289
a(Vthing
p5290
g14
tp5291
aasI1062
(lp5292
(lp5293
(Vnot
p5294
g4
tp5295
a(Vworking
p5296
g108
tp5297
aa(lp5298
(Vblack
p5299
g11
tp5300
a(Vscreen
p5301
g14
tp5302
aa(lp5303
(Vn't
p5304
g4
tp5305
a(Vexist
p5306
g7
tp5307
aasI1063
(lp5308
sI1064
(lp5309
(lp5310
(VAbsolutely
p5311
g4
tp5312
a(Vamazing
p5313
g108
tp5314
aasI1065
(lp5315
sI1066
(lp5316
(lp5317
(Vn't
p5318
g4
tp5319
a(Vopen
p5320
g7
tp5321
aa(lp5322
(V.I
p5323
g11
tp5324
a(Vneeeeed
p5325
g14
tp5326
aasI1067
(lp5327
(lp5328
(Vangry
p5329
g11
tp5330
a(Vbirds
p5331
g42
tp5332
aasI1068
(lp5333
(lp5334
(Vnot
p5335
g4
tp5336
a(Vwork
p5337
g7
tp5338
aasI1069
(lp5339
(lp5340
(Vnot
p5341
g4
tp5342
a(Vdownload
p5343
g7
tp5344
aasI1070
(lp5345
sI1071
(lp5346
(lp5347
(Vhardly
p5348
g4
tp5349
a(Vget
p5350
g7
tp5351
aasI1072
(lp5352
sI1073
(lp5353
(lp5354
(Vnew
p5355
g11
tp5356
a(Vupdate
p5357
g14
tp5358
aa(lp5359
(Vblack
p5360
g11
tp5361
a(Vsquares
p5362
g42
tp5363
aa(lp5364
(Vactual
p5365
g11
tp5366
a(Vgraphics
p5367
g42
tp5368
aasI1074
(lp5369
(lp5370
(Vn't
p5371
g4
tp5372
a(Vsay
p5373
g7
tp5374
aa(lp5375
(Venough
p5376
g11
tp5377
a(Vgood
p5378
g11
tp5379
aa(lp5380
g5379
a(Vthings
p5381
g42
tp5382
aasI1075
(lp5383
(lp5384
(Vn't
p5385
g4
tp5386
a(Vwant
p5387
g7
tp5388
aasI1076
(lp5389
sI1077
(lp5390
sI1078
(lp5391
sI1079
(lp5392
sI1080
(lp5393
sI1081
(lp5394
(lp5395
(Vvery
p5396
g4
tp5397
a(Vstrategic
p5398
g11
tp5399
aa(lp5400
g5399
a(Vturn
p5401
g14
tp5402
aa(lp5403
(Vonly
p5404
g4
tp5405
a(Vthrilled
p5406
g53
tp5407
aa(lp5408
(Vyoung
p5409
g11
tp5410
a(Vones
p5411
g42
tp5412
aa(lp5413
(Vvery
p5414
g4
tp5415
a(Vintuitive
p5416
g11
tp5417
aasI1082
(lp5418
(lp5419
(Vrandomly
p5420
g4
tp5421
a(Vhave
p5422
g7
tp5423
aa(lp5424
(Ventire
p5425
g11
tp5426
a(Vlevel
p5427
g14
tp5428
aa(lp5429
(Vonly
p5430
g4
tp5431
a(Vshot
p5432
g11
tp5433
aasI1083
(lp5434
(lp5435
(Vn't
p5436
g4
tp5437
a(Vthink
p5438
g7
tp5439
aa(lp5440
(Vstill
p5441
g4
tp5442
a(Vbe
p5443
g7
tp5444
aa(lp5445
(Vmuch
p5446
g4
tp5447
a(Vfun
p5448
g53
tp5449
aa(lp5450
(Vgreat
p5451
g11
tp5452
a(Vfun
p5453
g14
tp5454
aasI1084
(lp5455
(lp5456
(Vn't
p5457
g4
tp5458
a(Vgo
p5459
g7
tp5460
aasI1085
(lp5461
(lp5462
(Vreally
p5463
g4
tp5464
a(Vdid
p5465
g131
tp5466
aasI1086
(lp5467
(lp5468
(Vso
p5469
g4
tp5470
a(VAMAZING
p5471
g108
tp5472
aasI1087
(lp5473
(lp5474
(Vn't
p5475
g4
tp5476
a(Vdownload
p5477
g7
tp5478
aa(lp5479
(Vn't
p5480
g4
tp5481
a(Vwork
p5482
g7
tp5483
aasI1088
(lp5484
sI1089
(lp5485
sI1090
(lp5486
(lp5487
(Vangry
p5488
g11
tp5489
a(Vbirds
p5490
g42
tp5491
aa(lp5492
(Vjust
p5493
g4
tp5494
a(Vgot
p5495
g131
tp5496
aasI1091
(lp5497
sI1092
(lp5498
(lp5499
(Vangry
p5500
g11
tp5501
a(Vbirds
p5502
g42
tp5503
aasI1093
(lp5504
(lp5505
(Vfresh
p5506
g11
tp5507
a(V'another
p5508
g11
tp5509
aa(lp5510
(Vfresh
p5511
g11
tp5512
a(Vtake
p5513
g14
tp5514
aasI1094
(lp5515
(lp5516
(VReally
p5517
g4
tp5518
a(Vfun
p5519
g53
tp5520
aasI1095
(lp5521
(lp5522
(Vnew
p5523
g11
tp5524
a(Vtheme
p5525
g14
tp5526
aa(lp5527
(Vexciting
p5528
g11
tp5529
a(Vnew
p5530
g11
tp5531
aa(lp5532
g5531
a(Vabilities
p5533
g42
tp5534
aa(lp5535
(Vn't
p5536
g4
tp5537
a(Vstop
p5538
g7
tp5539
aasI1096
(lp5540
(lp5541
(VBrilliant
p5542
g11
tp5543
a(Vgameplay
p5544
g14
tp5545
aa(lp5546
(Vwell
p5547
g4
tp5548
a(Vintergrated
p5549
g53
tp5550
aasI1097
(lp5551
(lp5552
(Vn't
p5553
g4
tp5554
a(Vknow
p5555
g7
tp5556
aa(lp5557
(Vlast
p5558
g11
tp5559
a(Vangry
p5560
g14
tp5561
aa(lp5562
(Vever
p5563
g4
tp5564
a(Vbe
p5565
g7
tp5566
aasI1098
(lp5567
(lp5568
(Vmobile
p5569
g11
tp5570
a(Vgame
p5571
g14
tp5572
aasI1099
(lp5573
sI1100
(lp5574
(lp5575
(Vnew
p5576
g11
tp5577
a(Vlevels
p5578
g42
tp5579
aasI1101
(lp5580
(lp5581
(Vinternal
p5582
g11
tp5583
a(Vmemory
p5584
g14
tp5585
aa(lp5586
(Vdownload
p5587
g11
tp5588
a(Vangry
p5589
g14
tp5590
aa(lp5591
(Voriginal
p5592
g11
tp5593
a(Vangry
p5594
g14
tp5595
aasI1102
(lp5596
(lp5597
(Vunlockable
p5598
g11
tp5599
a(Varea
p5600
g14
tp5601
aa(lp5602
(Vnot
p5603
g4
tp5604
a(Vaccess
p5605
g7
tp5606
aasI1103
(lp5607
(lp5608
(Vn't
p5609
g4
tp5610
a(Vknow
p5611
g7
tp5612
aasI1104
(lp5613
(lp5614
(Vextra
p5615
g11
tp5616
a(Vmissions
p5617
g42
tp5618
aa(lp5619
(Vnot
p5620
g4
tp5621
a(Vget
p5622
g7
tp5623
aa(lp5624
(Vextra
p5625
g11
tp5626
a(Vlevels
p5627
g42
tp5628
aa(lp5629
(Vjust
p5630
g4
tp5631
a(Vrocking
p5632
g108
tp5633
aasI1105
(lp5634
(lp5635
(Vfinally
p5636
g4
tp5637
a(Vchanged
p5638
g131
tp5639
aa(lp5640
(Vnormal
p5641
g11
tp5642
a(Vsized
p5643
g11
tp5644
aasI1106
(lp5645
(lp5646
(Vso
p5647
g4
tp5648
a(Vintrusive
p5649
g11
tp5650
aasI1107
(lp5651
sI1108
(lp5652
sI1109
(lp5653
sI1110
(lp5654
(lp5655
(Vn't
p5656
g4
tp5657
a(Vfinish
p5658
g7
tp5659
aasI1111
(lp5660
sI1112
(lp5661
(lp5662
(Vvisually
p5663
g4
tp5664
a(Vnoisy
p5665
g11
tp5666
aa(lp5667
g5666
a(Vad
p5668
g14
tp5669
aa(lp5670
(Vnot
p5671
g4
tp5672
a(Vbe
p5673
g7
tp5674
aasI1113
(lp5675
(lp5676
(Vbad
p5677
g11
tp5678
a(Vpiggies
p5679
g42
tp5680
aasI1114
(lp5681
sI1115
(lp5682
(lp5683
(Vvery
p5684
g4
tp5685
a(Vaddictive
p5686
g11
tp5687
aasI1116
(lp5688
(lp5689
(Vn't
p5690
g4
tp5691
a(Vstop
p5692
g7
tp5693
aasI1117
(lp5694
sI1118
(lp5695
(lp5696
(Vnot
p5697
g4
tp5698
a(Vallowing
p5699
g108
tp5700
aa(lp5701
(Vdefinitely
p5702
g4
tp5703
a(Vbe
p5704
g7
tp5705
aasI1119
(lp5706
sI1120
(lp5707
(lp5708
(Vmany
p5709
g11
tp5710
a(Vothers
p5711
g42
tp5712
aa(lp5713
(Vother
p5714
g11
tp5715
a(Vlevel
p5716
g14
tp5717
aa(lp5718
(Vnot
p5719
g4
tp5720
a(Vgain
p5721
g7
tp5722
aasI1121
(lp5723
(lp5724
(VNot
p5725
g4
tp5726
a(Vmany
p5727
g11
tp5728
aa(lp5729
(Vreally
p5730
g4
tp5731
a(Vdifferent
p5732
g11
tp5733
aasI1122
(lp5734
(lp5735
(Vgreen
p5736
g11
tp5737
a(Vlight
p5738
g14
tp5739
aasI1123
(lp5740
(lp5741
(Vn't
p5742
g4
tp5743
a(Vever
p5744
g7
tp5745
aa(lp5746
(Vtime
p5747
g14
tp5748
a(Vgreat
p5749
g11
tp5750
aasI1124
(lp5751
(lp5752
(Vn't
p5753
g4
tp5754
a(Vhave
p5755
g7
tp5756
aa(lp5757
(Venough
p5758
g11
tp5759
a(Vspace
p5760
g14
tp5761
aasI1125
(lp5762
(lp5763
(Vnew
p5764
g11
tp5765
a(Vangry
p5766
g14
tp5767
aasI1126
(lp5768
(lp5769
(Vthen
p5770
g4
tp5771
a(Vreload
p5772
g7
tp5773
aa(lp5774
(Vlast
p5775
g11
tp5776
a(Vapp
p5777
g14
tp5778
aa(lp5779
(Valso
p5780
g4
tp5781
a(Vtask
p5782
g7
tp5783
aasI1127
(lp5784
sI1128
(lp5785
sI1129
(lp5786
(lp5787
(Vtotally
p5788
g4
tp5789
a(Vmessed
p5790
g131
tp5791
aa(lp5792
(Vreally
p5793
g4
tp5794
a(Vupset
p5795
g53
tp5796
aasI1130
(lp5797
(lp5798
(Vinnovative
p5799
g11
tp5800
a(Vtheme
p5801
g14
tp5802
aa(lp5803
(Voriginal
p5804
g11
tp5805
a(Vbird-slinging
p5806
g11
tp5807
aa(lp5808
g5807
a(Vgame
p5809
g14
tp5810
aa(lp5811
(Vnew
p5812
g11
tp5813
a(Vpowers
p5814
g42
tp5815
aa(lp5816
(Vcriminal
p5817
g11
tp5818
a(Voffence
p5819
g14
tp5820
aasI1131
(lp5821
(lp5822
(VC'mon
p5823
g11
tp5824
a(Vstar
p5825
g14
tp5826
aa(lp5827
(Vangry
p5828
g11
tp5829
a(Vbirds
p5830
g42
tp5831
aa(lp5832
(Vwhole
p5833
g11
tp5834
a(Vnutha
p5835
g14
tp5836
aasI1132
(lp5837
sI1133
(lp5838
sI1134
(lp5839
sI1135
(lp5840
(lp5841
(Vso
p5842
g4
tp5843
a(Vstop
p5844
g7
tp5845
aa(lp5846
(Vnot
p5847
g4
tp5848
a(Vhave
p5849
g7
tp5850
aasI1136
(lp5851
(lp5852
(Vbig
p5853
g11
tp5854
a(Vfan
p5855
g14
tp5856
aa(lp5857
(Vquite
p5858
g4
tp5859
a(Vgood
p5860
g11
tp5861
aa(lp5862
(Vso
p5863
g4
tp5864
a(Vyeah
p5865
g11
tp5866
aa(lp5867
(Vdefinitely
p5868
g4
tp5869
a(Vworth
p5870
g11
tp5871
aasI1137
(lp5872
(lp5873
(VDefinitely
p5874
g4
tp5875
a(Vworth
p5876
g11
tp5877
aasI1138
(lp5878
(lp5879
(Vother
p5880
g11
tp5881
a(Vangry
p5882
g14
tp5883
aasI1139
(lp5884
(lp5885
(Vyears
p5886
g42
tp5887
a(Vold
p5888
g11
tp5889
aasI1140
(lp5890
sI1141
(lp5891
(lp5892
(Vjust
p5893
g4
tp5894
a(Vdosent
p5895
g11
tp5896
aa(lp5897
g5896
a(Vfeel
p5898
g14
tp5899
aa(lp5900
(Vblack
p5901
g11
tp5902
a(Vbird
p5903
g14
tp5904
aasI1142
(lp5905
sI1143
(lp5906
(lp5907
(Vgreat
p5908
g11
tp5909
a(Vgame
p5910
g14
tp5911
aasI1144
(lp5912
sI1145
(lp5913
sI1146
(lp5914
(lp5915
(Vangry
p5916
g11
tp5917
a(Vbirds
p5918
g42
tp5919
aa(lp5920
(VNOT
p5921
g4
tp5922
a(VBE
p5923
g7
tp5924
aa(lp5925
(Vn't
p5926
g4
tp5927
a(Vlike
p5928
g7
tp5929
aa(lp5930
(Vnow
p5931
g4
tp5932
a(Vplastering
p5933
g108
tp5934
aa(lp5935
(Vnew
p5936
g11
tp5937
a(Vgames
p5938
g42
tp5939
aa(lp5940
(Vother
p5941
g11
tp5942
a(Vversions
p5943
g42
tp5944
aa(lp5945
(Vangry
p5946
g11
tp5947
a(Vbirds
p5948
g42
tp5949
aa(lp5950
(Veven
p5951
g4
tp5952
a(Vupdating
p5953
g108
tp5954
aa(lp5955
(Vonly
p5956
g4
tp5957
a(Vintrusive
p5958
g11
tp5959
aa(lp5960
(Vrather
p5961
g4
tp5962
a(Vuse
p5963
g7
tp5964
aa(lp5965
(Vpretty
p5966
g4
tp5967
a(Vboring
p5968
g108
tp5969
aa(lp5970
(Vsimply
p5971
g4
tp5972
a(Vgoing
p5973
g108
tp5974
aa(lp5975
(Vn't
p5976
g4
tp5977
a(Vget
p5978
g7
tp5979
aa(lp5980
(Vnow
p5981
g4
tp5982
a(Vbeing
p5983
g108
tp5984
aasI1147
(lp5985
sI1148
(lp5986
(lp5987
(Vn't
p5988
g4
tp5989
a(Vclose
p5990
g11
tp5991
aasI1149
(lp5992
sI1150
(lp5993
sI1151
(lp5994
(lp5995
(Val
p5996
g11
tp5997
a(Vcomes
p5998
g42
tp5999
aa(lp6000
(Vgreat
p6001
g11
tp6002
a(Vgame
p6003
g14
tp6004
aa(lp6005
(Vother
p6006
g11
tp6007
a(Vlevels
p6008
g42
tp6009
aasI1152
(lp6010
(lp6011
(Vlovable
p6012
g11
tp6013
a(Vgame
p6014
g14
tp6015
aasI1153
(lp6016
sI1154
(lp6017
sI1155
(lp6018
(lp6019
(Vmore
p6020
g1140
tp6021
a(Vfun
p6022
g11
tp6023
aasI1156
(lp6024
(lp6025
(Vother
p6026
g11
tp6027
a(Vangry
p6028
g14
tp6029
aasI1157
(lp6030
(lp6031
(Vnot
p6032
g4
tp6033
a(Vwork
p6034
g7
tp6035
aasI1158
(lp6036
(lp6037
(VJust
p6038
g4
tp6039
a(Vupdated
p6040
g53
tp6041
aa(lp6042
(Vnew
p6043
g11
tp6044
a(Vlevels
p6045
g42
tp6046
aasI1159
(lp6047
(lp6048
(VJust
p6049
g4
tp6050
a(Vcurious
p6051
g11
tp6052
aasI1160
(lp6053
(lp6054
(Vcant
p6055
g11
tp6056
a(Vinstall
p6057
g14
tp6058
aasI1161
(lp6059
(lp6060
(Vnot
p6061
g4
tp6062
a(Vable
p6063
g11
tp6064
aa(lp6065
(Vn't
p6066
g4
tp6067
a(Vget
p6068
g7
tp6069
aasI1162
(lp6070
(lp6071
(Valways
p6072
g4
tp6073
a(Vliked
p6074
g131
tp6075
aa(lp6076
(Vtotally
p6077
g4
tp6078
a(Vaddictive
p6079
g11
tp6080
aasI1163
(lp6081
sI1164
(lp6082
sI1165
(lp6083
sI1166
(lp6084
sI1167
(lp6085
sI1168
(lp6086
(lp6087
(Vangry
p6088
g11
tp6089
a(Vbirds
p6090
g42
tp6091
aasI1169
(lp6092
sI1170
(lp6093
(lp6094
(Vreally
p6095
g4
tp6096
a(Vgreat
p6097
g11
tp6098
aa(lp6099
g6098
a(Vgame
p6100
g14
tp6101
aasI1171
(lp6102
(lp6103
(Vwell
p6104
g4
tp6105
a(Vworth
p6106
g11
tp6107
aa(lp6108
(Vonly
p6109
g4
tp6110
a(Vwant
p6111
g7
tp6112
aa(lp6113
(Voriginal
p6114
g11
tp6115
a(Vtrilogy
p6116
g14
tp6117
aasI1172
(lp6118
(lp6119
(Vsuper-duper
p6120
g11
tp6121
a(Vlightsaber
p6122
g14
tp6123
aasI1173
(lp6124
sI1174
(lp6125
(lp6126
(Vfavorite
p6127
g11
tp6128
a(Vangry
p6129
g14
tp6130
aasI1175
(lp6131
(lp6132
(V.must
p6133
g11
tp6134
a(Vplay
p6135
g14
tp6136
aasI1176
(lp6137
sI1177
(lp6138
sI1178
(lp6139
sI1179
(lp6140
(lp6141
(Vjust
p6142
g4
tp6143
a(Vcompleted
p6144
g131
tp6145
aa(lp6146
(Vnot
p6147
g4
tp6148
a(Vopened
p6149
g53
tp6150
aasI1180
(lp6151
(lp6152
(Vangry
p6153
g11
tp6154
a(Vbirds
p6155
g42
tp6156
aasI1181
(lp6157
sI1182
(lp6158
sI1183
(lp6159
sI1184
(lp6160
sI1185
(lp6161
(lp6162
(Vlight
p6163
g11
tp6164
a(Vsabers
p6165
g42
tp6166
aasI1186
(lp6167
sI1187
(lp6168
sI1188
(lp6169
(lp6170
(Vseveral
p6171
g11
tp6172
a(Vtimes
p6173
g42
tp6174
aa(lp6175
(Vn't
p6176
g4
tp6177
a(Vload
p6178
g7
tp6179
aasI1189
(lp6180
sI1190
(lp6181
(lp6182
(Vgreat
p6183
g11
tp6184
a(Vfun
p6185
g14
tp6186
aa(lp6187
(Vn't
p6188
g4
tp6189
a(Vdowlond
p6190
g7
tp6191
aa(lp6192
(Vn't
p6193
g4
tp6194
a(Vdowlond
p6195
g7
tp6196
aa(lp6197
(Vjust
p6198
g4
tp6199
a(Vdid
p6200
g131
tp6201
aa(lp6202
(Vfirst
p6203
g11
tp6204
a(Vbit
p6205
g14
tp6206
aa(lp6207
(Vlong
p6208
g11
tp6209
a(Vtime
p6210
g14
tp6211
aa(lp6212
(Vso
p6213
g4
tp6214
a(Vgood
p6215
g11
tp6216
aa(lp6217
g6216
a(Vapp
p6218
g14
tp6219
aasI1191
(lp6220
(lp6221
(Vn't
p6222
g4
tp6223
a(Vrate
p6224
g7
tp6225
aa(lp6226
(Vn't
p6227
g4
tp6228
a(Vplay
p6229
g7
tp6230
aa(lp6231
(Vangry
p6232
g11
tp6233
a(Vbirds
p6234
g42
tp6235
aa(lp6236
(Vnot
p6237
g4
tp6238
a(Vnecessary
p6239
g11
tp6240
aasI1192
(lp6241
(lp6242
(Vvery
p6243
g4
tp6244
a(Vfun
p6245
g11
tp6246
aasI1193
(lp6247
(lp6248
(Vnever
p6249
g4
tp6250
a(Vdid
p6251
g131
tp6252
aa(lp6253
(Vthere
p6254
g4
tp6255
a(Vwas
p6256
g131
tp6257
aa(lp6258
(Vnot
p6259
g4
tp6260
a(Vrefuse
p6261
g7
tp6262
aa(lp6263
(Vn't
p6264
g4
tp6265
a(Vwait
p6266
g7
tp6267
aa(lp6268
(Vmore
p6269
g1140
tp6270
a(Vstar
p6271
g11
tp6272
aa(lp6273
g6272
a(Vwars
p6274
g42
tp6275
aasI1194
(lp6276
sI1195
(lp6277
(lp6278
(Vwonderful
p6279
g11
tp6280
a(Vabilities
p6281
g42
tp6282
aa(lp6283
(Vonly
p6284
g11
tp6285
a(Vdisappointing
p6286
g11
tp6287
aa(lp6288
g6287
a(Vfactor
p6289
g14
tp6290
aa(lp6291
(Vtrue
p6292
g11
tp6293
a(Vstart
p6294
g14
tp6295
aasI1196
(lp6296
sI1197
(lp6297
(lp6298
(Vreally
p6299
g4
tp6300
a(Vappreciate
p6301
g11
tp6302
aa(lp6303
(Vwhole
p6304
g11
tp6305
a(Vfamily
p6306
g14
tp6307
aa(lp6308
(Vvery
p6309
g4
tp6310
a(Vfair
p6311
g11
tp6312
aa(lp6313
(Vn't
p6314
g4
tp6315
a(Vhave
p6316
g7
tp6317
aa(lp6318
(Vgood
p6319
g11
tp6320
a(Vtime
p6321
g14
tp6322
aa(lp6323
(Vn't
p6324
g4
tp6325
a(Vmake
p6326
g7
tp6327
aa(lp6328
(Voriginal
p6329
g11
tp6330
a(Vangry
p6331
g14
tp6332
aa(lp6333
(Vincredible
p6334
g11
tp6335
a(Vlittle
p6336
g14
tp6337
aasI1198
(lp6338
(lp6339
(Vepic
p6340
g11
tp6341
a(Vintegalactic
p6342
g11
tp6343
aa(lp6344
(Vcomplete
p6345
g11
tp6346
a(Vepisode
p6347
g14
tp6348
aasI1199
(lp6349
(lp6350
(Vvery
p6351
g4
tp6352
a(Vgood
p6353
g11
tp6354
aa(lp6355
(Vlast
p6356
g11
tp6357
a(Vupdate
p6358
g14
tp6359
aasI1200
(lp6360
(lp6361
(Vvery
p6362
g4
tp6363
a(Vmuch
p6364
g11
tp6365
aasI1201
(lp6366
(lp6367
(Vnot
p6368
g4
tp6369
a(Vget
p6370
g7
tp6371
aasI1202
(lp6372
(lp6373
(Vplay
p6374
g14
tp6375
a(Vother
p6376
g11
tp6377
aa(lp6378
g6377
a(Vlevels
p6379
g42
tp6380
aa(lp6381
(Vrich
p6382
g11
tp6383
a(Venough
p6384
g11
tp6385
aa(lp6386
g6385
a(Vcome
p6387
g14
tp6388
aasI1203
(lp6389
sI1204
(lp6390
sI1205
(lp6391
sI1206
(lp6392
sI1207
(lp6393
sI1208
(lp6394
(lp6395
(Vperfect
p6396
g11
tp6397
a(Vstar
p6398
g14
tp6399
aa(lp6400
(Vangry
p6401
g11
tp6402
a(Vbirds
p6403
g42
tp6404
aasI1209
(lp6405
(lp6406
(Vvery
p6407
g4
tp6408
a(Vgood
p6409
g11
tp6410
aa(lp6411
(Vlast
p6412
g11
tp6413
a(Vupdate
p6414
g14
tp6415
aasI1210
(lp6416
(lp6417
(Vplay
p6418
g14
tp6419
a(Vother
p6420
g11
tp6421
aa(lp6422
g6421
a(Vlevels
p6423
g42
tp6424
aa(lp6425
(Vrich
p6426
g11
tp6427
a(Venough
p6428
g11
tp6429
aa(lp6430
g6429
a(Vcome
p6431
g14
tp6432
aasI1211
(lp6433
(lp6434
(Vnot
p6435
g4
tp6436
a(Vget
p6437
g7
tp6438
aasI1212
(lp6439
sI1213
(lp6440
(lp6441
(Vnot
p6442
g4
tp6443
a(Vopen
p6444
g7
tp6445
aa(lp6446
(Vsecond
p6447
g11
tp6448
a(Vtime
p6449
g14
tp6450
aasI1214
(lp6451
sI1215
(lp6452
sI1216
(lp6453
sI1217
(lp6454
(lp6455
(Vnext
p6456
g11
tp6457
a(Vplanet
p6458
g14
tp6459
aasI1218
(lp6460
(lp6461
(Vactually
p6462
g4
tp6463
a(Vpay
p6464
g7
tp6465
aa(lp6466
(Vown
p6467
g11
tp6468
a(Vlevels
p6469
g42
tp6470
aa(lp6471
(Vown
p6472
g11
tp6473
a(Vfort
p6474
g14
tp6475
aasI1219
(lp6476
sI1220
(lp6477
sI1221
(lp6478
sI1222
(lp6479
sI1223
(lp6480
(lp6481
(Vnot
p6482
g4
tp6483
a(Vopen
p6484
g7
tp6485
aa(lp6486
(Vsecond
p6487
g11
tp6488
a(Vtime
p6489
g14
tp6490
aasI1224
(lp6491
(lp6492
(Vnext
p6493
g11
tp6494
a(Vlevel
p6495
g14
tp6496
aa(lp6497
(Vnot
p6498
g4
tp6499
a(Vunlock
p6500
g7
tp6501
aasI1225
(lp6502
sI1226
(lp6503
(lp6504
(Vnext
p6505
g11
tp6506
a(Vplanet
p6507
g14
tp6508
aasI1227
(lp6509
sI1228
(lp6510
(lp6511
(Vactually
p6512
g4
tp6513
a(Vpay
p6514
g7
tp6515
aa(lp6516
(Vown
p6517
g11
tp6518
a(Vlevels
p6519
g42
tp6520
aa(lp6521
(Vown
p6522
g11
tp6523
a(Vfort
p6524
g14
tp6525
aasI1229
(lp6526
sI1230
(lp6527
(lp6528
(Vjust
p6529
g4
tp6530
a(Vplain
p6531
g7
tp6532
aasI1231
(lp6533
sI1232
(lp6534
sI1233
(lp6535
(lp6536
(Veven
p6537
g4
tp6538
a(Vopen
p6539
g11
tp6540
aasI1234
(lp6541
sI1235
(lp6542
sI1236
(lp6543
(lp6544
(Vnot
p6545
g4
tp6546
a(Vopen
p6547
g7
tp6548
aa(lp6549
(Vsecond
p6550
g11
tp6551
a(Vtime
p6552
g14
tp6553
aasI1237
(lp6554
(lp6555
(Vnext
p6556
g11
tp6557
a(Vlevel
p6558
g14
tp6559
aa(lp6560
(Vnot
p6561
g4
tp6562
a(Vunlock
p6563
g7
tp6564
aasI1238
(lp6565
(lp6566
(Vnext
p6567
g11
tp6568
a(Vplanet
p6569
g14
tp6570
aasI1239
(lp6571
sI1240
(lp6572
sI1241
(lp6573
(lp6574
(Vjust
p6575
g4
tp6576
a(Vplain
p6577
g7
tp6578
aasI1242
(lp6579
sI1243
(lp6580
sI1244
(lp6581
sI1245
(lp6582
(lp6583
(Veven
p6584
g4
tp6585
a(Vopen
p6586
g11
tp6587
aasI1246
(lp6588
sI1247
(lp6589
sI1248
(lp6590
sI1249
(lp6591
sI1250
(lp6592
sI1251
(lp6593
(lp6594
(Veven
p6595
g4
tp6596
a(Vopen
p6597
g11
tp6598
aasI1252
(lp6599
sI1253
(lp6600
sI1254
(lp6601
(lp6602
(Vnot
p6603
g4
tp6604
a(Vgood
p6605
g11
tp6606
aa(lp6607
g6606
a(Vfreezes
p6608
g42
tp6609
aasI1255
(lp6610
sI1256
(lp6611
sI1257
(lp6612
sI1258
(lp6613
sI1259
(lp6614
sI1260
(lp6615
sI1261
(lp6616
sI1262
(lp6617
(lp6618
(Vnot
p6619
g4
tp6620
a(Vgood
p6621
g11
tp6622
aa(lp6623
g6622
a(Vfreezes
p6624
g42
tp6625
aasI1263
(lp6626
sI1264
(lp6627
sI1265
(lp6628
sI1266
(lp6629
sI1267
(lp6630
sI1268
(lp6631
sI1269
(lp6632
(lp6633
(Vbird
p6634
g11
tp6635
a(Vpreview
p6636
g14
tp6637
aa(lp6638
(Vmany
p6639
g11
tp6640
a(Vnew
p6641
g11
tp6642
aa(lp6643
g6642
a(Vones
p6644
g42
tp6645
aasI1270
(lp6646
sI1271
(lp6647
sI1272
(lp6648
sI1273
(lp6649
sI1274
(lp6650
(lp6651
(Vnot
p6652
g4
tp6653
a(Vgood
p6654
g11
tp6655
aa(lp6656
g6655
a(Vfreezes
p6657
g42
tp6658
aasI1275
(lp6659
sI1276
(lp6660
(lp6661
(VNot
p6662
g4
tp6663
a(Vhappy
p6664
g11
tp6665
aasI1277
(lp6666
(lp6667
(Vnext
p6668
g11
tp6669
a(Vangry
p6670
g14
tp6671
aasI1278
(lp6672
sI1279
(lp6673
sI1280
(lp6674
sI1281
(lp6675
sI1282
(lp6676
sI1283
(lp6677
sI1284
(lp6678
(lp6679
(VNot
p6680
g4
tp6681
a(Vhappy
p6682
g11
tp6683
aasI1285
(lp6684
(lp6685
(Veasiest
p6686
g11
tp6687
a(Vangry
p6688
g14
tp6689
aasI1286
(lp6690
(lp6691
(Vnext
p6692
g11
tp6693
a(Vangry
p6694
g14
tp6695
aasI1287
(lp6696
sI1288
(lp6697
sI1289
(lp6698
sI1290
(lp6699
sI1291
(lp6700
sI1292
(lp6701
sI1293
(lp6702
sI1294
(lp6703
(lp6704
(VNot
p6705
g4
tp6706
a(Vhappy
p6707
g11
tp6708
aasI1295
(lp6709
(lp6710
(Veasiest
p6711
g11
tp6712
a(Vangry
p6713
g14
tp6714
aasI1296
(lp6715
(lp6716
(Vnext
p6717
g11
tp6718
a(Vangry
p6719
g14
tp6720
aasI1297
(lp6721
sI1298
(lp6722
sI1299
(lp6723
sI1300
(lp6724
sI1301
(lp6725
sI1302
(lp6726
(lp6727
(VAbsolutely
p6728
g4
tp6729
a(Ventertaining
p6730
g108
tp6731
aa(lp6732
(Vcompletely
p6733
g4
tp6734
a(Vhappy
p6735
g11
tp6736
aasI1303
(lp6737
sI1304
(lp6738
(lp6739
(Veasiest
p6740
g11
tp6741
a(Vangry
p6742
g14
tp6743
aasI1305
(lp6744
sI1306
(lp6745
(lp6746
(Vnext
p6747
g11
tp6748
a(Vangry
p6749
g14
tp6750
aasI1307
(lp6751
sI1308
(lp6752
sI1309
(lp6753
sI1310
(lp6754
sI1311
(lp6755
sI1312
(lp6756
sI1313
(lp6757
sI1314
(lp6758
(lp6759
(VAbsolutely
p6760
g4
tp6761
a(Ventertaining
p6762
g108
tp6763
aa(lp6764
(Vcompletely
p6765
g4
tp6766
a(Vhappy
p6767
g11
tp6768
aasI1315
(lp6769
(lp6770
(Vespecially
p6771
g4
tp6772
a(Vlove
p6773
g7
tp6774
aa(lp6775
(Vn't
p6776
g4
tp6777
a(Vlet
p6778
g7
tp6779
aasI1316
(lp6780
(lp6781
(Veasiest
p6782
g11
tp6783
a(Vangry
p6784
g14
tp6785
aasI1317
(lp6786
(lp6787
(Veven
p6788
g4
tp6789
a(Vhave
p6790
g7
tp6791
aasI1318
(lp6792
sI1319
(lp6793
sI1320
(lp6794
(lp6795
(Vfree
p6796
g11
tp6797
a(Vparts
p6798
g42
tp6799
aasI1321
(lp6800
sI1322
(lp6801
sI1323
(lp6802
(lp6803
(VAbsolutely
p6804
g4
tp6805
a(Ventertaining
p6806
g108
tp6807
aa(lp6808
(Vcompletely
p6809
g4
tp6810
a(Vhappy
p6811
g11
tp6812
aasI1324
(lp6813
sI1325
(lp6814
(lp6815
(Vn't
p6816
g4
tp6817
a(Vlet
p6818
g7
tp6819
aasI1326
(lp6820
(lp6821
(Vespecially
p6822
g4
tp6823
a(Vlove
p6824
g7
tp6825
aa(lp6826
(Vn't
p6827
g4
tp6828
a(Vlet
p6829
g7
tp6830
aasI1327
(lp6831
(lp6832
(Veven
p6833
g4
tp6834
a(Vhave
p6835
g7
tp6836
aasI1328
(lp6837
sI1329
(lp6838
sI1330
(lp6839
sI1331
(lp6840
(lp6841
(Vn't
p6842
g4
tp6843
a(Vclose
p6844
g11
tp6845
aa(lp6846
g6845
a(Vads
p6847
g42
tp6848
aasI1332
(lp6849
sI1333
(lp6850
sI1334
(lp6851
(lp6852
(Vn't
p6853
g4
tp6854
a(Vlet
p6855
g7
tp6856
aasI1335
(lp6857
(lp6858
(Vespecially
p6859
g4
tp6860
a(Vlove
p6861
g7
tp6862
aa(lp6863
(Vn't
p6864
g4
tp6865
a(Vlet
p6866
g7
tp6867
aasI1336
(lp6868
(lp6869
(Vother
p6870
g11
tp6871
a(Vangry
p6872
g14
tp6873
aasI1337
(lp6874
sI1338
(lp6875
sI1339
(lp6876
sI1340
(lp6877
(lp6878
(Vfun
p6879
g14
tp6880
a(Vnew
p6881
g11
tp6882
aa(lp6883
g6882
a(Vtrust
p6884
g14
tp6885
aasI1341
(lp6886
sI1342
(lp6887
(lp6888
(Vn't
p6889
g4
tp6890
a(Vlet
p6891
g7
tp6892
aasI1343
(lp6893
sI1344
(lp6894
sI1345
(lp6895
(lp6896
(Vother
p6897
g11
tp6898
a(Vangry
p6899
g14
tp6900
aasI1346
(lp6901
sI1347
(lp6902
sI1348
(lp6903
sI1349
(lp6904
sI1350
(lp6905
(lp6906
(Vnot
p6907
g4
tp6908
a(Vwork
p6909
g7
tp6910
aa(lp6911
(Vnot
p6912
g4
tp6913
a(Vwork
p6914
g7
tp6915
aasI1351
(lp6916
sI1352
(lp6917
sI1353
(lp6918
(lp6919
(Vother
p6920
g11
tp6921
a(Vangry
p6922
g14
tp6923
aasI1354
(lp6924
sI1355
(lp6925
sI1356
(lp6926
sI1357
(lp6927
sI1358
(lp6928
sI1359
(lp6929
sI1360
(lp6930
sI1361
(lp6931
sI1362
(lp6932
sI1363
(lp6933
sI1364
(lp6934
sI1365
(lp6935
sI1366
(lp6936
sI1367
(lp6937
(lp6938
(Vepic
p6939
g11
tp6940
a(Vgame
p6941
g14
tp6942
aasI1368
(lp6943
sI1369
(lp6944
sI1370
(lp6945
sI1371
(lp6946
sI1372
(lp6947
sI1373
(lp6948
sI1374
(lp6949
sI1375
(lp6950
sI1376
(lp6951
sI1377
(lp6952
(lp6953
(Vepic
p6954
g11
tp6955
a(Vgame
p6956
g14
tp6957
aasI1378
(lp6958
sI1379
(lp6959
sI1380
(lp6960
sI1381
(lp6961
sI1382
(lp6962
sI1383
(lp6963
sI1384
(lp6964
sI1385
(lp6965
sI1386
(lp6966
(lp6967
(Vdifferent
p6968
g11
tp6969
a(Vview
p6970
g14
tp6971
aasI1387
(lp6972
sI1388
(lp6973
sI1389
(lp6974
sI1390
(lp6975
sI1391
(lp6976
sI1392
(lp6977
sI1393
(lp6978
sI1394
(lp6979
sI1395
(lp6980
(lp6981
(Vdifferent
p6982
g11
tp6983
a(Vview
p6984
g14
tp6985
aasI1396
(lp6986
sI1397
(lp6987
sI1398
(lp6988
sI1399
(lp6989
(lp6990
(Vad
p6991
g14
tp6992
a(Vfree
p6993
g11
tp6994
aa(lp6995
(Vstill
p6996
g4
tp6997
a(Vgetting
p6998
g108
tp6999
aasI1400
(lp7000
sI1401
(lp7001
sI1402
(lp7002
sI1403
(lp7003
(lp7004
(Vdifferent
p7005
g11
tp7006
a(Vview
p7007
g14
tp7008
aasI1404
(lp7009
sI1405
(lp7010
(lp7011
(VJust
p7012
g4
tp7013
a(Vgot
p7014
g131
tp7015
aasI1406
(lp7016
sI1407
(lp7017
sI1408
(lp7018
sI1409
(lp7019
sI1410
(lp7020
(lp7021
(Vangry
p7022
g11
tp7023
a(Vbirds
p7024
g42
tp7025
aa(lp7026
(Vangry
p7027
g11
tp7028
a(Vbirds
p7029
g42
tp7030
aasI1411
(lp7031
sI1412
(lp7032
(lp7033
(Vad
p7034
g14
tp7035
a(Vfree
p7036
g11
tp7037
aa(lp7038
(Vstill
p7039
g4
tp7040
a(Vgetting
p7041
g108
tp7042
aasI1413
(lp7043
sI1414
(lp7044
sI1415
(lp7045
sI1416
(lp7046
sI1417
(lp7047
(lp7048
(Vmuch
p7049
g4
tp7050
a(Vfun
p7051
g53
tp7052
aasI1418
(lp7053
(lp7054
(VJust
p7055
g4
tp7056
a(Vgot
p7057
g131
tp7058
aasI1419
(lp7059
sI1420
(lp7060
sI1421
(lp7061
sI1422
(lp7062
sI1423
(lp7063
(lp7064
(Vangry
p7065
g11
tp7066
a(Vbirds
p7067
g42
tp7068
aa(lp7069
(Vangry
p7070
g11
tp7071
a(Vbirds
p7072
g42
tp7073
aasI1424
(lp7074
sI1425
(lp7075
sI1426
(lp7076
sI1427
(lp7077
sI1428
(lp7078
(lp7079
(Vmuch
p7080
g4
tp7081
a(Vfun
p7082
g53
tp7083
aasI1429
(lp7084
sI1430
(lp7085
sI1431
(lp7086
sI1432
(lp7087
sI1433
(lp7088
(lp7089
(Vangry
p7090
g11
tp7091
a(Vbirds
p7092
g42
tp7093
aa(lp7094
(Vangry
p7095
g11
tp7096
a(Vbirds
p7097
g42
tp7098
aasI1434
(lp7099
sI1435
(lp7100
sI1436
(lp7101
sI1437
(lp7102
sI1438
(lp7103
(lp7104
(Vmuch
p7105
g4
tp7106
a(Vfun
p7107
g53
tp7108
aasI1439
(lp7109
sI1440
(lp7110
sI1441
(lp7111
(lp7112
(Vnew
p7113
g11
tp7114
a(Vpink
p7115
g14
tp7116
aa(lp7117
(Vpretty
p7118
g4
tp7119
a(Vcool
p7120
g11
tp7121
aa(lp7122
(Vnew
p7123
g11
tp7124
a(Vpower
p7125
g14
tp7126
aasI1442
(lp7127
(lp7128
(V3yr
p7129
g11
tp7130
a(Vold
p7131
g11
tp7132
aa(lp7133
g7132
a(Vgson
p7134
g14
tp7135
aasI1443
(lp7136
(lp7137
(Vvery
p7138
g4
tp7139
a(Vnice
p7140
g11
tp7141
aasI1444
(lp7142
sI1445
(lp7143
sI1446
(lp7144
sI1447
(lp7145
sI1448
(lp7146
sI1449
(lp7147
sI1450
(lp7148
(lp7149
(Vnew
p7150
g11
tp7151
a(Vgame
p7152
g14
tp7153
aasI1451
(lp7154
sI1452
(lp7155
sI1453
(lp7156
(lp7157
(Vnew
p7158
g11
tp7159
a(Vpink
p7160
g14
tp7161
aa(lp7162
(Vpretty
p7163
g4
tp7164
a(Vcool
p7165
g11
tp7166
aa(lp7167
(Vnew
p7168
g11
tp7169
a(Vpower
p7170
g14
tp7171
aasI1454
(lp7172
(lp7173
(V3yr
p7174
g11
tp7175
a(Vold
p7176
g11
tp7177
aa(lp7178
g7177
a(Vgson
p7179
g14
tp7180
aasI1455
(lp7181
(lp7182
(Vvery
p7183
g4
tp7184
a(Vnice
p7185
g11
tp7186
aasI1456
(lp7187
sI1457
(lp7188
sI1458
(lp7189
sI1459
(lp7190
sI1460
(lp7191
sI1461
(lp7192
(lp7193
(Vnew
p7194
g11
tp7195
a(Vgame
p7196
g14
tp7197
aasI1462
(lp7198
sI1463
(lp7199
(lp7200
(Vn't
p7201
g4
tp7202
a(Vmove
p7203
g7
tp7204
aa(lp7205
(Vsecond
p7206
g11
tp7207
a(Vlevel
p7208
g14
tp7209
aasI1464
(lp7210
sI1465
(lp7211
(lp7212
(Vnew
p7213
g11
tp7214
a(Vpink
p7215
g14
tp7216
aa(lp7217
(Vpretty
p7218
g4
tp7219
a(Vcool
p7220
g11
tp7221
aa(lp7222
(Vnew
p7223
g11
tp7224
a(Vpower
p7225
g14
tp7226
aasI1466
(lp7227
sI1467
(lp7228
(lp7229
(Vvery
p7230
g4
tp7231
a(Vnice
p7232
g11
tp7233
aasI1468
(lp7234
sI1469
(lp7235
sI1470
(lp7236
sI1471
(lp7237
sI1472
(lp7238
(lp7239
(Vn't
p7240
g4
tp7241
a(Vmove
p7242
g7
tp7243
aa(lp7244
(Vsecond
p7245
g11
tp7246
a(Vlevel
p7247
g14
tp7248
aasI1473
(lp7249
(lp7250
(Vcharacters
p7251
g42
tp7252
a(Vnew
p7253
g11
tp7254
aasI1474
(lp7255
sI1475
(lp7256
sI1476
(lp7257
sI1477
(lp7258
sI1478
(lp7259
sI1479
(lp7260
sI1480
(lp7261
(lp7262
(Vn't
p7263
g4
tp7264
a(Vmove
p7265
g7
tp7266
aa(lp7267
(Vsecond
p7268
g11
tp7269
a(Vlevel
p7270
g14
tp7271
aasI1481
(lp7272
(lp7273
(Vcharacters
p7274
g42
tp7275
a(Vnew
p7276
g11
tp7277
aasI1482
(lp7278
sI1483
(lp7279
sI1484
(lp7280
sI1485
(lp7281
sI1486
(lp7282
sI1487
(lp7283
sI1488
(lp7284
sI1489
(lp7285
sI1490
(lp7286
sI1491
(lp7287
(lp7288
(Vvery
p7289
g4
tp7290
a(Vaddictive
p7291
g11
tp7292
aa(lp7293
g7292
a(Vgame
p7294
g14
tp7295
aasI1492
(lp7296
sI1493
(lp7297
(lp7298
(Vcharacters
p7299
g42
tp7300
a(Vnew
p7301
g11
tp7302
aasI1494
(lp7303
sI1495
(lp7304
sI1496
(lp7305
sI1497
(lp7306
sI1498
(lp7307
sI1499
(lp7308
sI1500
(lp7309
sI1501
(lp7310
sI1502
(lp7311
(lp7312
(Vnew
p7313
g11
tp7314
a(Vpowers
p7315
g42
tp7316
aasI1503
(lp7317
(lp7318
(Vvery
p7319
g4
tp7320
a(Vaddictive
p7321
g11
tp7322
aa(lp7323
g7322
a(Vgame
p7324
g14
tp7325
aasI1504
(lp7326
sI1505
(lp7327
sI1506
(lp7328
sI1507
(lp7329
sI1508
(lp7330
s.