(dp0
I0
(lp1
(lp2
(Vn't
p3
S'RB'
p4
tp5
a(Vcuz
p6
S'VB'
p7
tp8
aa(lp9
(Vvery
p10
S'JJ'
p11
tp12
a(Vannoying
p13
S'NN'
p14
tp15
aasI1
(lp16
(lp17
(V-step
p18
g11
tp19
a(Vrequirement
p20
g14
tp21
aa(lp22
(Vthen
p23
g4
tp24
a(Vexit
p25
g7
tp26
aa(lp27
(Vonly
p28
g4
tp29
a(Vtake
p30
g7
tp31
aa(lp32
(Vnot
p33
g4
tp34
a(Vlet
p35
g7
tp36
aasI2
(lp37
(lp38
(Vvery
p39
g4
tp40
a(Vgood
p41
g11
tp42
aa(lp43
(Vprevious
p44
g11
tp45
a(Vgames
p46
S'NNS'
p47
tp48
aa(lp49
(Vdifferent
p50
g11
tp51
a(Vtwist
p52
g14
tp53
aa(lp54
(Vn't
p55
g4
tp56
a(Vbeat
p57
g7
tp58
aa(lp59
(Vvery
p60
g4
tp61
a(Vfun
p62
S'VBN'
p63
tp64
aasI3
(lp65
(lp66
(Vn't
p67
g4
tp68
a(Vcuz
p69
g7
tp70
aa(lp71
(Vvery
p72
g11
tp73
a(Vannoying
p74
g14
tp75
aasI4
(lp76
(lp77
(V-step
p78
g11
tp79
a(Vrequirement
p80
g14
tp81
aa(lp82
(Vthen
p83
g4
tp84
a(Vexit
p85
g7
tp86
aa(lp87
(Vonly
p88
g4
tp89
a(Vtake
p90
g7
tp91
aa(lp92
(Vnot
p93
g4
tp94
a(Vlet
p95
g7
tp96
aasI5
(lp97
(lp98
(Vvery
p99
g4
tp100
a(Vgood
p101
g11
tp102
aa(lp103
(Vprevious
p104
g11
tp105
a(Vgames
p106
g47
tp107
aa(lp108
(Vdifferent
p109
g11
tp110
a(Vtwist
p111
g14
tp112
aa(lp113
(Vn't
p114
g4
tp115
a(Vbeat
p116
g7
tp117
aa(lp118
(Vvery
p119
g4
tp120
a(Vfun
p121
g63
tp122
aasI6
(lp123
(lp124
(Vpretty
p125
g4
tp126
a(Vfreaking
p127
S'VBG'
p128
tp129
aa(lp130
(Vsomething
p131
g14
tp132
a(Vnew
p133
g11
tp134
aasI7
(lp135
(lp136
(VReally
p137
g4
tp138
a(Vloving
p139
g128
tp140
aa(lp141
(Vso
p142
g4
tp143
a(Vcool
p144
g11
tp145
aasI8
(lp146
(lp147
(Vangry
p148
g11
tp149
a(Vbirds
p150
g47
tp151
aa(lp152
(Veventually
p153
g4
tp154
a(Vgot
p155
S'VBD'
p156
tp157
aa(lp158
(Vnext
p159
g11
tp160
a(Vupdate
p161
g14
tp162
aasI9
(lp163
(lp164
(Vgood
p165
g11
tp166
a(Vangry
p167
g14
tp168
aasI10
(lp169
(lp170
(Vlast
p171
g11
tp172
a(Vupdate
p173
g14
tp174
aa(lp175
(Vnot
p176
g4
tp177
a(Vopen
p178
g7
tp179
aasI11
(lp180
(lp181
(Vsame
p182
g11
tp183
a(Vresult
p184
g14
tp185
aasI12
(lp186
sI13
(lp187
sI14
(lp188
(lp189
(Vmost
p190
S'RBS'
p191
tp192
a(Vinteresting
p193
g11
tp194
aasI15
(lp195
sI16
(lp196
sI17
(lp197
sI18
(lp198
sI19
(lp199
sI20
(lp200
(lp201
(Vstill
p202
g4
tp203
a(Vawful
p204
g11
tp205
aa(lp206
(Vlow
p207
g11
tp208
a(Vrate
p209
g14
tp210
aasI21
(lp211
(lp212
(VBrilliant
p213
g11
tp214
a(V!
p215
g14
tp216
aa(lp217
(VBrilliant
p218
g11
tp219
a(Vagain
p220
g14
tp221
aasI22
(lp222
(lp223
(Vn't
p224
g4
tp225
a(Vplay
p226
g7
tp227
aasI23
(lp228
(lp229
(Vreluctantly
p230
g4
tp231
a(Vspent
p232
g156
tp233
aa(lp234
(Vnever
p235
g4
tp236
a(Vshowed
p237
g156
tp238
aa(lp239
(Vnever
p240
g4
tp241
a(Vgot
p242
g156
tp243
aasI24
(lp244
(lp245
(Vvery
p246
g4
tp247
a(Vaddictive
p248
g11
tp249
aa(lp250
(Vvery
p251
g4
tp252
a(Vfun
p253
g11
tp254
aasI25
(lp255
sI26
(lp256
sI27
(lp257
(lp258
(Vclassic
p259
g11
tp260
a(Vcharacters
p261
g47
tp262
aasI28
(lp263
(lp264
(Vn't
p265
g4
tp266
a(Vhave
p267
g7
tp268
aasI29
(lp269
(lp270
(VReally
p271
g4
tp272
a(Vfun
p273
g63
tp274
aasI30
(lp275
sI31
(lp276
sI32
(lp277
(lp278
(Ventertaining
p279
g11
tp280
a(Vgame
p281
g14
tp282
aasI33
(lp283
sI34
(lp284
(lp285
(Vn't
p286
g4
tp287
a(Vget
p288
g7
tp289
aasI35
(lp290
(lp291
(Vangry
p292
g11
tp293
a(Vbirds
p294
g47
tp295
aa(lp296
(Vnot
p297
g4
tp298
a(Vusing
p299
g128
tp300
aasI36
(lp301
(lp302
(Vown
p303
g11
tp304
a(Vspin
p305
g14
tp306
aasI37
(lp307
(lp308
(Vnext
p309
g11
tp310
a(Vangry
p311
g14
tp312
aasI38
(lp313
(lp314
(Vangry
p315
g11
tp316
a(Vbirds
p317
g47
tp318
aasI39
(lp319
(lp320
(Vn't
p321
g4
tp322
a(Vdisappointed
p323
g63
tp324
aasI40
(lp325
sI41
(lp326
(lp327
(Vtoo
p328
g4
tp329
a(Vbig
p330
g11
tp331
aasI42
(lp332
(lp333
(Vvery
p334
g4
tp335
a(Vcute
p336
g11
tp337
aa(lp338
(Vvarious
p339
g11
tp340
a(Vfeatures
p341
g47
tp342
aa(lp343
(Vprevious
p344
g11
tp345
a(Vgames
p346
g47
tp347
aasI43
(lp348
(lp349
(Vbig
p350
g11
tp351
a(Vboss
p352
g14
tp353
aa(lp354
(Vdarth
p355
g11
tp356
a(Vpig
p357
g14
tp358
aasI44
(lp359
(lp360
(Vfunny
p361
g11
tp362
a(Vstar
p363
g14
tp364
aasI45
(lp365
(lp366
(Vmany
p367
g11
tp368
a(Vfresh
p369
g11
tp370
aa(lp371
(Venjoyable
p372
g11
tp373
a(Videas
p374
g47
tp375
aasI46
(lp376
(lp377
(Vreally
p378
g4
tp379
a(Vexcited
p380
g63
tp381
aa(lp382
(Veven
p383
g4
tp384
a(Vload
p385
g7
tp386
aa(lp387
(Vn't
p388
g4
tp389
a(Vplay
p390
g7
tp391
aa(lp392
(Vfull
p393
g11
tp394
a(Vgame
p395
g14
tp396
aa(lp397
(Vn't
p398
g4
tp399
a(Vshow
p400
g7
tp401
aasI47
(lp402
sI48
(lp403
(lp404
(Vaboslutly
p405
g4
tp406
a(Vamazing
p407
g128
tp408
aa(lp409
(Vlittle
p410
g4
tp411
a(Vanoying
p412
g128
tp413
aa(lp414
(Voverall
p415
g11
tp416
a(Vgreat
p417
g11
tp418
aasI49
(lp419
(lp420
(Vn't
p421
g4
tp422
a(Vgon
p423
g7
tp424
aa(lp425
(VNOT
p426
g4
tp427
a(Vdisappointed
p428
g63
tp429
aasI50
(lp430
(lp431
(Vhuge
p432
g11
tp433
a(Vhelp
p434
g14
tp435
aasI51
(lp436
(lp437
(Vads
p438
g47
tp439
a(Vfree
p440
g11
tp441
aa(lp442
(Vn't
p443
g4
tp444
a(Vunlock
p445
g7
tp446
aa(lp447
(Valso
p448
g4
tp449
a(Vhappened
p450
g156
tp451
aa(lp452
(Vgood
p453
g11
tp454
a(Vgame
p455
g14
tp456
aasI52
(lp457
(lp458
(Vpretty
p459
g4
tp460
a(Vsweet
p461
g11
tp462
aasI53
(lp463
sI54
(lp464
(lp465
(Voriginal
p466
g11
tp467
a(Vangry
p468
g14
tp469
aa(lp470
(Vangry
p471
g11
tp472
a(Vbird
p473
g14
tp474
aa(lp475
(Vquite
p476
g4
tp477
a(Vgood
p478
g11
tp479
aasI55
(lp480
(lp481
(Vn't
p482
g4
tp483
a(Vwork
p484
g7
tp485
aa(lp486
(Vsame
p487
g11
tp488
a(Vthing
p489
g14
tp490
aasI56
(lp491
(lp492
(Vnot
p493
g4
tp494
a(Vworking
p495
g128
tp496
aa(lp497
(Vblack
p498
g11
tp499
a(Vscreen
p500
g14
tp501
aa(lp502
(Vn't
p503
g4
tp504
a(Vexist
p505
g7
tp506
aasI57
(lp507
sI58
(lp508
(lp509
(VAbsolutely
p510
g4
tp511
a(Vamazing
p512
g128
tp513
aasI59
(lp514
(lp515
(Vfirst
p516
g11
tp517
a(Vlevel
p518
g14
tp519
aasI60
(lp520
(lp521
(Vn't
p522
g4
tp523
a(Vopen
p524
g7
tp525
aa(lp526
(V.I
p527
g11
tp528
a(Vneeeeed
p529
g14
tp530
aasI61
(lp531
(lp532
(Vangry
p533
g11
tp534
a(Vbirds
p535
g47
tp536
aasI62
(lp537
(lp538
(Vnot
p539
g4
tp540
a(Vwork
p541
g7
tp542
aasI63
(lp543
(lp544
(Vnot
p545
g4
tp546
a(Vdownload
p547
g7
tp548
aa(lp549
(VNow
p550
g4
tp551
a(Vcompatible
p552
g11
tp553
aasI64
(lp554
sI65
(lp555
(lp556
(Vhardly
p557
g4
tp558
a(Vget
p559
g7
tp560
aasI66
(lp561
sI67
(lp562
(lp563
(Vnew
p564
g11
tp565
a(Vupdate
p566
g14
tp567
aa(lp568
(Vblack
p569
g11
tp570
a(Vsquares
p571
g47
tp572
aa(lp573
(Vactual
p574
g11
tp575
a(Vgraphics
p576
g47
tp577
aasI68
(lp578
(lp579
(Vn't
p580
g4
tp581
a(Vsay
p582
g7
tp583
aa(lp584
(Venough
p585
g11
tp586
a(Vgood
p587
g11
tp588
aa(lp589
g588
a(Vthings
p590
g47
tp591
aasI69
(lp592
(lp593
(Vn't
p594
g4
tp595
a(Vwant
p596
g7
tp597
aasI70
(lp598
sI71
(lp599
sI72
(lp600
sI73
(lp601
sI74
(lp602
sI75
(lp603
(lp604
(Vvery
p605
g4
tp606
a(Vstrategic
p607
g11
tp608
aa(lp609
g608
a(Vturn
p610
g14
tp611
aa(lp612
(Vonly
p613
g4
tp614
a(Vthrilled
p615
g63
tp616
aa(lp617
(Vyoung
p618
g11
tp619
a(Vones
p620
g47
tp621
aa(lp622
(Vold
p623
g11
tp624
a(Vdogs
p625
g47
tp626
aa(lp627
(Vvery
p628
g4
tp629
a(Vintuitive
p630
g11
tp631
aa(lp632
g631
a(Vgameplay
p633
g14
tp634
aasI76
(lp635
(lp636
(Vrandomly
p637
g4
tp638
a(Vhave
p639
g7
tp640
aa(lp641
(Ventire
p642
g11
tp643
a(Vlevel
p644
g14
tp645
aa(lp646
(Vonly
p647
g4
tp648
a(Vshot
p649
g11
tp650
aasI77
(lp651
(lp652
(Vn't
p653
g4
tp654
a(Vthink
p655
g7
tp656
aa(lp657
(Vstill
p658
g4
tp659
a(Vbe
p660
g7
tp661
aa(lp662
(Vmuch
p663
g4
tp664
a(Vfun
p665
g63
tp666
aa(lp667
(Vgreat
p668
g11
tp669
a(Vfun
p670
g14
tp671
aasI78
(lp672
(lp673
(Vn't
p674
g4
tp675
a(Vgo
p676
g7
tp677
aasI79
(lp678
(lp679
(Vreally
p680
g4
tp681
a(Vdid
p682
g156
tp683
aa(lp684
(Vmost
p685
g191
tp686
a(Ventertaining
p687
g11
tp688
aasI80
(lp689
(lp690
(Vso
p691
g4
tp692
a(VAMAZING
p693
g128
tp694
aa(lp695
(Vso
p696
g4
tp697
a(Vinterested
p698
g11
tp699
aasI81
(lp700
(lp701
(Vn't
p702
g4
tp703
a(Vdownload
p704
g7
tp705
aa(lp706
(Vn't
p707
g4
tp708
a(Vwork
p709
g7
tp710
aasI82
(lp711
sI83
(lp712
sI84
(lp713
(lp714
(Vangry
p715
g11
tp716
a(Vbirds
p717
g47
tp718
aa(lp719
(Vjust
p720
g4
tp721
a(Vgot
p722
g156
tp723
aasI85
(lp724
sI86
(lp725
(lp726
(Vangry
p727
g11
tp728
a(Vbirds
p729
g47
tp730
aasI87
(lp731
(lp732
(Vfresh
p733
g11
tp734
a(V'another
p735
g11
tp736
aa(lp737
(Vfresh
p738
g11
tp739
a(Vtake
p740
g14
tp741
aasI88
(lp742
(lp743
(VReally
p744
g4
tp745
a(Vfun
p746
g63
tp747
aasI89
(lp748
(lp749
(Vnew
p750
g11
tp751
a(Vtheme
p752
g14
tp753
aa(lp754
(Vexciting
p755
g11
tp756
a(Vnew
p757
g11
tp758
aa(lp759
g758
a(Vabilities
p760
g47
tp761
aa(lp762
(Vn't
p763
g4
tp764
a(Vstop
p765
g7
tp766
aasI90
(lp767
(lp768
(VBrilliant
p769
g11
tp770
a(Vgameplay
p771
g14
tp772
aa(lp773
(Vwell
p774
g4
tp775
a(Vintergrated
p776
g63
tp777
aa(lp778
(Vtoo
p779
g4
tp780
a(Vcheesey
p781
g11
tp782
aasI91
(lp783
(lp784
(Vn't
p785
g4
tp786
a(Vknow
p787
g7
tp788
aa(lp789
(Vlast
p790
g11
tp791
a(Vangry
p792
g14
tp793
aa(lp794
(Vever
p795
g4
tp796
a(Vbe
p797
g7
tp798
aasI92
(lp799
(lp800
(Vmobile
p801
g11
tp802
a(Vgame
p803
g14
tp804
aa(lp805
(Vwhole
p806
g11
tp807
a(Vyear
p808
g14
tp809
aasI93
(lp810
sI94
(lp811
(lp812
(Vnew
p813
g11
tp814
a(Vlevels
p815
g47
tp816
aasI95
(lp817
(lp818
(Vinternal
p819
g11
tp820
a(Vmemory
p821
g14
tp822
aa(lp823
(Vdownload
p824
g11
tp825
a(Vangry
p826
g14
tp827
aa(lp828
(Voriginal
p829
g11
tp830
a(Vangry
p831
g14
tp832
aasI96
(lp833
(lp834
(Vunlockable
p835
g11
tp836
a(Varea
p837
g14
tp838
aa(lp839
(Vnot
p840
g4
tp841
a(Vaccess
p842
g7
tp843
aasI97
(lp844
(lp845
(Vn't
p846
g4
tp847
a(Vknow
p848
g7
tp849
aasI98
(lp850
(lp851
(Vextra
p852
g11
tp853
a(Vmissions
p854
g47
tp855
aa(lp856
(Vnot
p857
g4
tp858
a(Vget
p859
g7
tp860
aa(lp861
(Vextra
p862
g11
tp863
a(Vlevels
p864
g47
tp865
aa(lp866
(VOtherwise
p867
g4
tp868
a(Vgreat
p869
g11
tp870
aa(lp871
g870
a(Vgame
p872
g14
tp873
aa(lp874
(Vjust
p875
g4
tp876
a(Vrocking
p877
g128
tp878
aasI99
(lp879
(lp880
(Vfinally
p881
g4
tp882
a(Vchanged
p883
g156
tp884
aa(lp885
(Vnormal
p886
g11
tp887
a(Vsized
p888
g11
tp889
aa(lp890
g889
a(Vbuttons
p891
g47
tp892
aasI100
(lp893
(lp894
(Vso
p895
g4
tp896
a(Vintrusive
p897
g11
tp898
aasI101
(lp899
sI102
(lp900
sI103
(lp901
sI104
(lp902
(lp903
(Vn't
p904
g4
tp905
a(Vfinish
p906
g7
tp907
aasI105
(lp908
sI106
(lp909
(lp910
(Vvisually
p911
g4
tp912
a(Vnoisy
p913
g11
tp914
aa(lp915
g914
a(Vad
p916
g14
tp917
aa(lp918
(Vnot
p919
g4
tp920
a(Vbe
p921
g7
tp922
aasI107
(lp923
(lp924
(Vbad
p925
g11
tp926
a(Vpiggies
p927
g47
tp928
aasI108
(lp929
sI109
(lp930
(lp931
(Vvery
p932
g4
tp933
a(Vaddictive
p934
g11
tp935
aasI110
(lp936
(lp937
(Vn't
p938
g4
tp939
a(Vstop
p940
g7
tp941
aasI111
(lp942
sI112
(lp943
(lp944
(Vnot
p945
g4
tp946
a(Vallowing
p947
g128
tp948
aa(lp949
(VOnce
p950
g4
tp951
a(Vcorrected
p952
g156
tp953
aa(lp954
(Vdefinitely
p955
g4
tp956
a(Vbe
p957
g7
tp958
aasI113
(lp959
sI114
(lp960
(lp961
(Vmany
p962
g11
tp963
a(Vothers
p964
g47
tp965
aa(lp966
(Vother
p967
g11
tp968
a(Vlevel
p969
g14
tp970
aa(lp971
(Vnot
p972
g4
tp973
a(Vgain
p974
g7
tp975
aasI115
(lp976
(lp977
(VNot
p978
g4
tp979
a(Vmany
p980
g11
tp981
aa(lp982
g981
a(Vlevels
p983
g47
tp984
aa(lp985
(Vreally
p986
g4
tp987
a(Vdifferent
p988
g11
tp989
aa(lp990
(VNot
p991
g4
tp992
a(Vworth
p993
g11
tp994
aa(lp995
(VReally
p996
g4
tp997
a(Vdisappointed
p998
g63
tp999
aa(lp1000
(VEven
p1001
g4
tp1002
a(Vpurchased
p1003
g63
tp1004
aasI116
(lp1005
(lp1006
(Vgreen
p1007
g11
tp1008
a(Vlight
p1009
g14
tp1010
aasI117
(lp1011
(lp1012
(Vn't
p1013
g4
tp1014
a(Vever
p1015
g7
tp1016
aa(lp1017
(Vtime
p1018
g14
tp1019
a(Vgreat
p1020
g11
tp1021
aasI118
(lp1022
(lp1023
(Vn't
p1024
g4
tp1025
a(Vhave
p1026
g7
tp1027
aa(lp1028
(Venough
p1029
g11
tp1030
a(Vspace
p1031
g14
tp1032
aasI119
(lp1033
(lp1034
(Vnew
p1035
g11
tp1036
a(Vangry
p1037
g14
tp1038
aasI120
(lp1039
(lp1040
(Vnot
p1041
g4
tp1042
a(Vaccepted
p1043
g63
tp1044
aa(lp1045
(Vthen
p1046
g4
tp1047
a(Vreload
p1048
g7
tp1049
aa(lp1050
(Vlast
p1051
g11
tp1052
a(Vapp
p1053
g14
tp1054
aa(lp1055
(Valso
p1056
g4
tp1057
a(Vtask
p1058
g7
tp1059
aasI121
(lp1060
sI122
(lp1061
sI123
(lp1062
(lp1063
(Vtotally
p1064
g4
tp1065
a(Vmessed
p1066
g156
tp1067
aa(lp1068
(Vreally
p1069
g4
tp1070
a(Vupset
p1071
g63
tp1072
aasI124
(lp1073
(lp1074
(Vinnovative
p1075
g11
tp1076
a(Vtheme
p1077
g14
tp1078
aa(lp1079
(Voriginal
p1080
g11
tp1081
a(Vbird-slinging
p1082
g11
tp1083
aa(lp1084
g1083
a(Vgame
p1085
g14
tp1086
aa(lp1087
(Vnew
p1088
g11
tp1089
a(Vpowers
p1090
g47
tp1091
aa(lp1092
(Vcriminal
p1093
g11
tp1094
a(Voffence
p1095
g14
tp1096
aa(lp1097
(Vmust-have
p1098
g11
tp1099
a(Vgame
p1100
g14
tp1101
aasI125
(lp1102
(lp1103
(VC'mon
p1104
g11
tp1105
a(Vstar
p1106
g14
tp1107
aa(lp1108
(Vangry
p1109
g11
tp1110
a(Vbirds
p1111
g47
tp1112
aa(lp1113
(Vwhole
p1114
g11
tp1115
a(Vnutha
p1116
g14
tp1117
aasI126
(lp1118
sI127
(lp1119
sI128
(lp1120
sI129
(lp1121
(lp1122
(Vso
p1123
g4
tp1124
a(Vstop
p1125
g7
tp1126
aa(lp1127
(Vnot
p1128
g4
tp1129
a(Vhave
p1130
g7
tp1131
aasI130
(lp1132
(lp1133
(Vbig
p1134
g11
tp1135
a(Vfan
p1136
g14
tp1137
aa(lp1138
(Vquite
p1139
g4
tp1140
a(Vgood
p1141
g11
tp1142
aa(lp1143
(Vso
p1144
g4
tp1145
a(Vyeah
p1146
g11
tp1147
aa(lp1148
(Vdefinitely
p1149
g4
tp1150
a(Vworth
p1151
g11
tp1152
aasI131
(lp1153
(lp1154
(VDefinitely
p1155
g4
tp1156
a(Vworth
p1157
g11
tp1158
aa(lp1159
g1158
a(Vdownloading
p1160
g14
tp1161
aasI132
(lp1162
(lp1163
(Vother
p1164
g11
tp1165
a(Vangry
p1166
g14
tp1167
aasI133
(lp1168
(lp1169
(Vyears
p1170
g47
tp1171
a(Vold
p1172
g11
tp1173
aasI134
(lp1174
sI135
(lp1175
(lp1176
(Vjust
p1177
g4
tp1178
a(Vdosent
p1179
g11
tp1180
aa(lp1181
g1180
a(Vfeel
p1182
g14
tp1183
aa(lp1184
(Vblack
p1185
g11
tp1186
a(Vbird
p1187
g14
tp1188
aasI136
(lp1189
sI137
(lp1190
(lp1191
(Vgreat
p1192
g11
tp1193
a(Vgame
p1194
g14
tp1195
aasI138
(lp1196
sI139
(lp1197
sI140
(lp1198
(lp1199
(Vangry
p1200
g11
tp1201
a(Vbirds
p1202
g47
tp1203
aa(lp1204
(VNOT
p1205
g4
tp1206
a(VBE
p1207
g7
tp1208
aa(lp1209
(Vn't
p1210
g4
tp1211
a(Vlike
p1212
g7
tp1213
aa(lp1214
(Vnow
p1215
g4
tp1216
a(Vplastering
p1217
g128
tp1218
aa(lp1219
(Vnew
p1220
g11
tp1221
a(Vgames
p1222
g47
tp1223
aa(lp1224
(Vother
p1225
g11
tp1226
a(Vversions
p1227
g47
tp1228
aa(lp1229
(Vangry
p1230
g11
tp1231
a(Vbirds
p1232
g47
tp1233
aa(lp1234
(Veven
p1235
g4
tp1236
a(Vupdating
p1237
g128
tp1238
aa(lp1239
(Vonly
p1240
g4
tp1241
a(Vintrusive
p1242
g11
tp1243
aa(lp1244
(Vrather
p1245
g4
tp1246
a(Vuse
p1247
g7
tp1248
aa(lp1249
(Vother
p1250
g11
tp1251
a(Vthings
p1252
g47
tp1253
aa(lp1254
(Vpretty
p1255
g4
tp1256
a(Vboring
p1257
g128
tp1258
aa(lp1259
(Vsimply
p1260
g4
tp1261
a(Vgoing
p1262
g128
tp1263
aa(lp1264
(Vn't
p1265
g4
tp1266
a(Vget
p1267
g7
tp1268
aa(lp1269
(Vnow
p1270
g4
tp1271
a(Vbeing
p1272
g128
tp1273
aasI141
(lp1274
sI142
(lp1275
(lp1276
(Vn't
p1277
g4
tp1278
a(Vclose
p1279
g11
tp1280
aasI143
(lp1281
sI144
(lp1282
sI145
(lp1283
(lp1284
(Val
p1285
g11
tp1286
a(Vcomes
p1287
g47
tp1288
aa(lp1289
(Vgreat
p1290
g11
tp1291
a(Vgame
p1292
g14
tp1293
aa(lp1294
(Vother
p1295
g11
tp1296
a(Vlevels
p1297
g47
tp1298
aasI146
(lp1299
(lp1300
(Vlovable
p1301
g11
tp1302
a(Vgame
p1303
g14
tp1304
aasI147
(lp1305
sI148
(lp1306
sI149
(lp1307
(lp1308
(Vmore
p1309
S'RBR'
p1310
tp1311
a(Vfun
p1312
g11
tp1313
aasI150
(lp1314
(lp1315
(Vother
p1316
g11
tp1317
a(Vangry
p1318
g14
tp1319
aasI151
(lp1320
(lp1321
(Vnot
p1322
g4
tp1323
a(Vwork
p1324
g7
tp1325
aasI152
(lp1326
(lp1327
(VJust
p1328
g4
tp1329
a(Vupdated
p1330
g63
tp1331
aa(lp1332
(Vnew
p1333
g11
tp1334
a(Vlevels
p1335
g47
tp1336
aa(lp1337
(Vnew
p1338
g11
tp1339
a(Vbirds
p1340
g47
tp1341
aasI153
(lp1342
(lp1343
(VJust
p1344
g4
tp1345
a(Vcurious
p1346
g11
tp1347
aasI154
(lp1348
(lp1349
(Vcant
p1350
g11
tp1351
a(Vinstall
p1352
g14
tp1353
aasI155
(lp1354
(lp1355
(Vnot
p1356
g4
tp1357
a(Vable
p1358
g11
tp1359
aa(lp1360
(Vn't
p1361
g4
tp1362
a(Vget
p1363
g7
tp1364
aasI156
(lp1365
(lp1366
(Valways
p1367
g4
tp1368
a(Vliked
p1369
g156
tp1370
aa(lp1371
(Vtotally
p1372
g4
tp1373
a(Vaddictive
p1374
g11
tp1375
aasI157
(lp1376
(lp1377
(Vnot
p1378
g4
tp1379
a(Vwork
p1380
g7
tp1381
aasI158
(lp1382
(lp1383
(Vmuch
p1384
g4
tp1385
a(Vfun
p1386
g63
tp1387
aasI159
(lp1388
sI160
(lp1389
sI161
(lp1390
sI162
(lp1391
(lp1392
(Vangry
p1393
g11
tp1394
a(Vbirds
p1395
g47
tp1396
aasI163
(lp1397
sI164
(lp1398
(lp1399
(Vreally
p1400
g4
tp1401
a(Vgreat
p1402
g11
tp1403
aa(lp1404
g1403
a(Vgame
p1405
g14
tp1406
aasI165
(lp1407
(lp1408
(Vwell
p1409
g4
tp1410
a(Vworth
p1411
g11
tp1412
aa(lp1413
(VOnce
p1414
g4
tp1415
a(Vcomplete
p1416
g11
tp1417
aa(lp1418
(Vonly
p1419
g4
tp1420
a(Vwant
p1421
g7
tp1422
aa(lp1423
(Voriginal
p1424
g11
tp1425
a(Vtrilogy
p1426
g14
tp1427
aasI166
(lp1428
(lp1429
(Vsuper-duper
p1430
g11
tp1431
a(Vlightsaber
p1432
g14
tp1433
aasI167
(lp1434
sI168
(lp1435
(lp1436
(Vfavorite
p1437
g11
tp1438
a(Vangry
p1439
g14
tp1440
aasI169
(lp1441
(lp1442
(V.must
p1443
g11
tp1444
a(Vplay
p1445
g14
tp1446
aasI170
(lp1447
sI171
(lp1448
sI172
(lp1449
sI173
(lp1450
(lp1451
(Vjust
p1452
g4
tp1453
a(Vcompleted
p1454
g156
tp1455
aa(lp1456
(Vnot
p1457
g4
tp1458
a(Vopened
p1459
g63
tp1460
aasI174
(lp1461
(lp1462
(Vangry
p1463
g11
tp1464
a(Vbirds
p1465
g47
tp1466
aasI175
(lp1467
sI176
(lp1468
sI177
(lp1469
sI178
(lp1470
sI179
(lp1471
(lp1472
(Vlight
p1473
g11
tp1474
a(Vsabers
p1475
g47
tp1476
aasI180
(lp1477
sI181
(lp1478
sI182
(lp1479
(lp1480
(Vseveral
p1481
g11
tp1482
a(Vtimes
p1483
g47
tp1484
aa(lp1485
(Vnot
p1486
g4
tp1487
a(Vwork
p1488
g7
tp1489
aa(lp1490
(Vn't
p1491
g4
tp1492
a(Vload
p1493
g7
tp1494
aasI183
(lp1495
sI184
(lp1496
(lp1497
(Vgreat
p1498
g11
tp1499
a(Vfun
p1500
g14
tp1501
aa(lp1502
(Vn't
p1503
g4
tp1504
a(Vdowlond
p1505
g7
tp1506
aa(lp1507
(Vn't
p1508
g4
tp1509
a(Vdowlond
p1510
g7
tp1511
aa(lp1512
(Vjust
p1513
g4
tp1514
a(Vdid
p1515
g156
tp1516
aa(lp1517
(Vfirst
p1518
g11
tp1519
a(Vbit
p1520
g14
tp1521
aa(lp1522
(Vlong
p1523
g11
tp1524
a(Vtime
p1525
g14
tp1526
aa(lp1527
(Vso
p1528
g4
tp1529
a(Vgood
p1530
g11
tp1531
aa(lp1532
g1531
a(Vapp
p1533
g14
tp1534
aasI185
(lp1535
(lp1536
(Vn't
p1537
g4
tp1538
a(Vrate
p1539
g7
tp1540
aa(lp1541
(Vn't
p1542
g4
tp1543
a(Vplay
p1544
g7
tp1545
aa(lp1546
(Vangry
p1547
g11
tp1548
a(Vbirds
p1549
g47
tp1550
aa(lp1551
(Vnot
p1552
g4
tp1553
a(Vnecessary
p1554
g11
tp1555
aasI186
(lp1556
(lp1557
(Vvery
p1558
g4
tp1559
a(Vfun
p1560
g11
tp1561
aasI187
(lp1562
(lp1563
(Vnever
p1564
g4
tp1565
a(Vdid
p1566
g156
tp1567
aa(lp1568
(Vthere
p1569
g4
tp1570
a(Vwas
p1571
g156
tp1572
aa(lp1573
(Vimmediately
p1574
g4
tp1575
a(Vdownload
p1576
g156
tp1577
aa(lp1578
(Vnot
p1579
g4
tp1580
a(Vrefuse
p1581
g7
tp1582
aa(lp1583
(Vn't
p1584
g4
tp1585
a(Vwait
p1586
g7
tp1587
aasI188
(lp1588
(lp1589
(VShockingly
p1590
g4
tp1591
a(Vpoor
p1592
g11
tp1593
aasI189
(lp1594
(lp1595
(Vwonderful
p1596
g11
tp1597
a(Vabilities
p1598
g47
tp1599
aa(lp1600
(Vonly
p1601
g11
tp1602
a(Vdisappointing
p1603
g11
tp1604
aa(lp1605
g1604
a(Vfactor
p1606
g14
tp1607
aa(lp1608
(Vtrue
p1609
g11
tp1610
a(Vstart
p1611
g14
tp1612
aasI190
(lp1613
sI191
(lp1614
(lp1615
(Vreally
p1616
g4
tp1617
a(Vappreciate
p1618
g11
tp1619
aa(lp1620
(Vwhole
p1621
g11
tp1622
a(Vfamily
p1623
g14
tp1624
aa(lp1625
(Vvery
p1626
g4
tp1627
a(Vfair
p1628
g11
tp1629
aa(lp1630
(Vn't
p1631
g4
tp1632
a(Vhave
p1633
g7
tp1634
aa(lp1635
(Vgood
p1636
g11
tp1637
a(Vtime
p1638
g14
tp1639
aa(lp1640
(Vn't
p1641
g4
tp1642
a(Vmake
p1643
g7
tp1644
aa(lp1645
(Voriginal
p1646
g11
tp1647
a(Vangry
p1648
g14
tp1649
aa(lp1650
(Vincredible
p1651
g11
tp1652
a(Vlittle
p1653
g14
tp1654
aasI192
(lp1655
(lp1656
(Vepic
p1657
g11
tp1658
a(Vintegalactic
p1659
g11
tp1660
aa(lp1661
(Vcomplete
p1662
g11
tp1663
a(Vepisode
p1664
g14
tp1665
aasI193
(lp1666
(lp1667
(Vvery
p1668
g4
tp1669
a(Vgood
p1670
g11
tp1671
aa(lp1672
(Vlast
p1673
g11
tp1674
a(Vupdate
p1675
g14
tp1676
aasI194
(lp1677
(lp1678
(Vvery
p1679
g4
tp1680
a(Vmuch
p1681
g11
tp1682
aasI195
(lp1683
(lp1684
(Vnot
p1685
g4
tp1686
a(Vget
p1687
g7
tp1688
aasI196
(lp1689
(lp1690
(Vplay
p1691
g14
tp1692
a(Vother
p1693
g11
tp1694
aa(lp1695
g1694
a(Vlevels
p1696
g47
tp1697
aa(lp1698
(Vrich
p1699
g11
tp1700
a(Venough
p1701
g11
tp1702
aa(lp1703
g1702
a(Vcome
p1704
g14
tp1705
aasI197
(lp1706
sI198
(lp1707
sI199
(lp1708
sI200
(lp1709
sI201
(lp1710
sI202
(lp1711
(lp1712
(Vperfect
p1713
g11
tp1714
a(Vstar
p1715
g14
tp1716
aa(lp1717
(Vangry
p1718
g11
tp1719
a(Vbirds
p1720
g47
tp1721
aasI203
(lp1722
(lp1723
(Vvery
p1724
g4
tp1725
a(Vgood
p1726
g11
tp1727
aa(lp1728
(Vlast
p1729
g11
tp1730
a(Vupdate
p1731
g14
tp1732
aasI204
(lp1733
(lp1734
(Vplay
p1735
g14
tp1736
a(Vother
p1737
g11
tp1738
aa(lp1739
g1738
a(Vlevels
p1740
g47
tp1741
aa(lp1742
(Vrich
p1743
g11
tp1744
a(Venough
p1745
g11
tp1746
aa(lp1747
g1746
a(Vcome
p1748
g14
tp1749
aasI205
(lp1750
(lp1751
(Vnot
p1752
g4
tp1753
a(Vget
p1754
g7
tp1755
aasI206
(lp1756
sI207
(lp1757
(lp1758
(Vnot
p1759
g4
tp1760
a(Vopen
p1761
g7
tp1762
aa(lp1763
(Vsecond
p1764
g11
tp1765
a(Vtime
p1766
g14
tp1767
aasI208
(lp1768
sI209
(lp1769
sI210
(lp1770
(lp1771
(Valready
p1772
g4
tp1773
a(Vupdated
p1774
g63
tp1775
aasI211
(lp1776
(lp1777
(Vnext
p1778
g11
tp1779
a(Vplanet
p1780
g14
tp1781
aasI212
(lp1782
(lp1783
(Vactually
p1784
g4
tp1785
a(Vpay
p1786
g7
tp1787
aa(lp1788
(Vown
p1789
g11
tp1790
a(Vlevels
p1791
g47
tp1792
aa(lp1793
(Vown
p1794
g11
tp1795
a(Vfort
p1796
g14
tp1797
aasI213
(lp1798
sI214
(lp1799
sI215
(lp1800
sI216
(lp1801
sI217
(lp1802
(lp1803
(Vnot
p1804
g4
tp1805
a(Vopen
p1806
g7
tp1807
aa(lp1808
(Vsecond
p1809
g11
tp1810
a(Vtime
p1811
g14
tp1812
aasI218
(lp1813
(lp1814
(Vnext
p1815
g11
tp1816
a(Vlevel
p1817
g14
tp1818
aa(lp1819
(Vnot
p1820
g4
tp1821
a(Vunlock
p1822
g7
tp1823
aasI219
(lp1824
(lp1825
(Valready
p1826
g4
tp1827
a(Vupdated
p1828
g63
tp1829
aasI220
(lp1830
(lp1831
(Vnext
p1832
g11
tp1833
a(Vplanet
p1834
g14
tp1835
aasI221
(lp1836
sI222
(lp1837
(lp1838
(Vactually
p1839
g4
tp1840
a(Vpay
p1841
g7
tp1842
aa(lp1843
(Vown
p1844
g11
tp1845
a(Vlevels
p1846
g47
tp1847
aa(lp1848
(Vown
p1849
g11
tp1850
a(Vfort
p1851
g14
tp1852
aasI223
(lp1853
sI224
(lp1854
(lp1855
(Vawesome
p1856
g14
tp1857
a(Vunbelievable
p1858
g11
tp1859
aasI225
(lp1860
sI226
(lp1861
sI227
(lp1862
(lp1863
(Veven
p1864
g4
tp1865
a(Vopen
p1866
g11
tp1867
aasI228
(lp1868
sI229
(lp1869
sI230
(lp1870
(lp1871
(Vnot
p1872
g4
tp1873
a(Vopen
p1874
g7
tp1875
aa(lp1876
(Vsecond
p1877
g11
tp1878
a(Vtime
p1879
g14
tp1880
aasI231
(lp1881
(lp1882
(Vnext
p1883
g11
tp1884
a(Vlevel
p1885
g14
tp1886
aa(lp1887
(Vnot
p1888
g4
tp1889
a(Vunlock
p1890
g7
tp1891
aasI232
(lp1892
(lp1893
(Vnext
p1894
g11
tp1895
a(Vplanet
p1896
g14
tp1897
aasI233
(lp1898
sI234
(lp1899
sI235
(lp1900
(lp1901
(Vawesome
p1902
g14
tp1903
a(Vunbelievable
p1904
g11
tp1905
aasI236
(lp1906
sI237
(lp1907
sI238
(lp1908
sI239
(lp1909
(lp1910
(Veven
p1911
g4
tp1912
a(Vopen
p1913
g11
tp1914
aasI240
(lp1915
sI241
(lp1916
sI242
(lp1917
sI243
(lp1918
sI244
(lp1919
sI245
(lp1920
(lp1921
(Veven
p1922
g4
tp1923
a(Vopen
p1924
g11
tp1925
aasI246
(lp1926
sI247
(lp1927
sI248
(lp1928
(lp1929
(Vnot
p1930
g4
tp1931
a(Vgood
p1932
g11
tp1933
aa(lp1934
g1933
a(Vfreezes
p1935
g47
tp1936
aasI249
(lp1937
sI250
(lp1938
sI251
(lp1939
sI252
(lp1940
sI253
(lp1941
sI254
(lp1942
sI255
(lp1943
sI256
(lp1944
(lp1945
(Vnot
p1946
g4
tp1947
a(Vgood
p1948
g11
tp1949
aa(lp1950
g1949
a(Vfreezes
p1951
g47
tp1952
aasI257
(lp1953
sI258
(lp1954
sI259
(lp1955
sI260
(lp1956
sI261
(lp1957
sI262
(lp1958
sI263
(lp1959
(lp1960
(Vbird
p1961
g11
tp1962
a(Vpreview
p1963
g14
tp1964
aa(lp1965
(Vmany
p1966
g11
tp1967
a(Vnew
p1968
g11
tp1969
aa(lp1970
g1969
a(Vones
p1971
g47
tp1972
aasI264
(lp1973
sI265
(lp1974
sI266
(lp1975
sI267
(lp1976
sI268
(lp1977
(lp1978
(Vnot
p1979
g4
tp1980
a(Vgood
p1981
g11
tp1982
aa(lp1983
g1982
a(Vfreezes
p1984
g47
tp1985
aasI269
(lp1986
sI270
(lp1987
(lp1988
(VNot
p1989
g4
tp1990
a(Vhappy
p1991
g11
tp1992
aasI271
(lp1993
(lp1994
(Vnext
p1995
g11
tp1996
a(Vangry
p1997
g14
tp1998
aasI272
(lp1999
sI273
(lp2000
sI274
(lp2001
sI275
(lp2002
sI276
(lp2003
sI277
(lp2004
sI278
(lp2005
(lp2006
(VNot
p2007
g4
tp2008
a(Vhappy
p2009
g11
tp2010
aasI279
(lp2011
(lp2012
(Veasiest
p2013
g11
tp2014
a(Vangry
p2015
g14
tp2016
aasI280
(lp2017
(lp2018
(Vnext
p2019
g11
tp2020
a(Vangry
p2021
g14
tp2022
aasI281
(lp2023
sI282
(lp2024
sI283
(lp2025
sI284
(lp2026
sI285
(lp2027
sI286
(lp2028
sI287
(lp2029
sI288
(lp2030
(lp2031
(VNot
p2032
g4
tp2033
a(Vhappy
p2034
g11
tp2035
aasI289
(lp2036
(lp2037
(Veasiest
p2038
g11
tp2039
a(Vangry
p2040
g14
tp2041
aasI290
(lp2042
(lp2043
(Vnext
p2044
g11
tp2045
a(Vangry
p2046
g14
tp2047
aasI291
(lp2048
sI292
(lp2049
sI293
(lp2050
sI294
(lp2051
sI295
(lp2052
sI296
(lp2053
(lp2054
(VAbsolutely
p2055
g4
tp2056
a(Ventertaining
p2057
g128
tp2058
aa(lp2059
(Vcompletely
p2060
g4
tp2061
a(Vhappy
p2062
g11
tp2063
aasI297
(lp2064
sI298
(lp2065
(lp2066
(Veasiest
p2067
g11
tp2068
a(Vangry
p2069
g14
tp2070
aasI299
(lp2071
sI300
(lp2072
(lp2073
(Vnext
p2074
g11
tp2075
a(Vangry
p2076
g14
tp2077
aasI301
(lp2078
sI302
(lp2079
sI303
(lp2080
sI304
(lp2081
sI305
(lp2082
sI306
(lp2083
sI307
(lp2084
sI308
(lp2085
(lp2086
(VAbsolutely
p2087
g4
tp2088
a(Ventertaining
p2089
g128
tp2090
aa(lp2091
(Vcompletely
p2092
g4
tp2093
a(Vhappy
p2094
g11
tp2095
aasI309
(lp2096
(lp2097
(Vespecially
p2098
g4
tp2099
a(Vlove
p2100
g7
tp2101
aa(lp2102
(Vn't
p2103
g4
tp2104
a(Vlet
p2105
g7
tp2106
aa(lp2107
(VNot
p2108
g4
tp2109
a(Vhappy
p2110
g11
tp2111
aasI310
(lp2112
(lp2113
(Veasiest
p2114
g11
tp2115
a(Vangry
p2116
g14
tp2117
aasI311
(lp2118
(lp2119
(Veven
p2120
g4
tp2121
a(Vhave
p2122
g7
tp2123
aasI312
(lp2124
sI313
(lp2125
sI314
(lp2126
(lp2127
(Vn't
p2128
g4
tp2129
a(Vwork
p2130
g7
tp2131
aa(lp2132
(Vfree
p2133
g11
tp2134
a(Vparts
p2135
g47
tp2136
aasI315
(lp2137
sI316
(lp2138
sI317
(lp2139
(lp2140
(VAbsolutely
p2141
g4
tp2142
a(Ventertaining
p2143
g128
tp2144
aa(lp2145
(Vcompletely
p2146
g4
tp2147
a(Vhappy
p2148
g11
tp2149
aasI318
(lp2150
sI319
(lp2151
(lp2152
(Vn't
p2153
g4
tp2154
a(Vlet
p2155
g7
tp2156
aasI320
(lp2157
(lp2158
(Vespecially
p2159
g4
tp2160
a(Vlove
p2161
g7
tp2162
aa(lp2163
(Vn't
p2164
g4
tp2165
a(Vlet
p2166
g7
tp2167
aa(lp2168
(VNot
p2169
g4
tp2170
a(Vhappy
p2171
g11
tp2172
aasI321
(lp2173
(lp2174
(Veven
p2175
g4
tp2176
a(Vhave
p2177
g7
tp2178
aasI322
(lp2179
sI323
(lp2180
sI324
(lp2181
sI325
(lp2182
(lp2183
(Vn't
p2184
g4
tp2185
a(Vclose
p2186
g11
tp2187
aa(lp2188
g2187
a(Vads
p2189
g47
tp2190
aasI326
(lp2191
sI327
(lp2192
sI328
(lp2193
(lp2194
(Vn't
p2195
g4
tp2196
a(Vlet
p2197
g7
tp2198
aasI329
(lp2199
(lp2200
(Vespecially
p2201
g4
tp2202
a(Vlove
p2203
g7
tp2204
aa(lp2205
(Vn't
p2206
g4
tp2207
a(Vlet
p2208
g7
tp2209
aa(lp2210
(VNot
p2211
g4
tp2212
a(Vhappy
p2213
g11
tp2214
aasI330
(lp2215
(lp2216
(Vother
p2217
g11
tp2218
a(Vangry
p2219
g14
tp2220
aasI331
(lp2221
sI332
(lp2222
sI333
(lp2223
sI334
(lp2224
(lp2225
(Vfun
p2226
g14
tp2227
a(Vnew
p2228
g11
tp2229
aa(lp2230
g2229
a(Vtrust
p2231
g14
tp2232
aasI335
(lp2233
sI336
(lp2234
(lp2235
(Vn't
p2236
g4
tp2237
a(Vlet
p2238
g7
tp2239
aasI337
(lp2240
sI338
(lp2241
sI339
(lp2242
(lp2243
(Vother
p2244
g11
tp2245
a(Vangry
p2246
g14
tp2247
aasI340
(lp2248
sI341
(lp2249
(lp2250
(Vnice
p2251
g11
tp2252
a(Vtwist
p2253
g14
tp2254
aasI342
(lp2255
sI343
(lp2256
sI344
(lp2257
(lp2258
(Vnot
p2259
g4
tp2260
a(Vwork
p2261
g7
tp2262
aa(lp2263
(Vother
p2264
g11
tp2265
a(Vdevice
p2266
g14
tp2267
aa(lp2268
(Vnot
p2269
g4
tp2270
a(Vwork
p2271
g7
tp2272
aa(lp2273
(Vother
p2274
g11
tp2275
a(Vdevice
p2276
g14
tp2277
aasI345
(lp2278
sI346
(lp2279
sI347
(lp2280
(lp2281
(Vother
p2282
g11
tp2283
a(Vangry
p2284
g14
tp2285
aasI348
(lp2286
sI349
(lp2287
sI350
(lp2288
(lp2289
(Vnice
p2290
g11
tp2291
a(Vtwist
p2292
g14
tp2293
aasI351
(lp2294
sI352
(lp2295
sI353
(lp2296
sI354
(lp2297
sI355
(lp2298
sI356
(lp2299
(lp2300
(Vnice
p2301
g11
tp2302
a(Vtwist
p2303
g14
tp2304
aasI357
(lp2305
sI358
(lp2306
sI359
(lp2307
sI360
(lp2308
sI361
(lp2309
(lp2310
(Vepic
p2311
g11
tp2312
a(Vgame
p2313
g14
tp2314
aasI362
(lp2315
sI363
(lp2316
sI364
(lp2317
sI365
(lp2318
sI366
(lp2319
(lp2320
(Vnice
p2321
g11
tp2322
a(Vtwist
p2323
g14
tp2324
aasI367
(lp2325
sI368
(lp2326
sI369
(lp2327
sI370
(lp2328
sI371
(lp2329
(lp2330
(Vepic
p2331
g11
tp2332
a(Vgame
p2333
g14
tp2334
aasI372
(lp2335
sI373
(lp2336
sI374
(lp2337
sI375
(lp2338
sI376
(lp2339
sI377
(lp2340
sI378
(lp2341
sI379
(lp2342
sI380
(lp2343
(lp2344
(VTotally
p2345
g4
tp2346
a(Vdifferent
p2347
g11
tp2348
aa(lp2349
g2348
a(Vview
p2350
g14
tp2351
aasI381
(lp2352
sI382
(lp2353
sI383
(lp2354
sI384
(lp2355
sI385
(lp2356
sI386
(lp2357
sI387
(lp2358
sI388
(lp2359
sI389
(lp2360
(lp2361
(VTotally
p2362
g4
tp2363
a(Vdifferent
p2364
g11
tp2365
aa(lp2366
g2365
a(Vview
p2367
g14
tp2368
aasI390
(lp2369
sI391
(lp2370
sI392
(lp2371
sI393
(lp2372
(lp2373
(Vad
p2374
g14
tp2375
a(Vfree
p2376
g11
tp2377
aa(lp2378
(Vstill
p2379
g4
tp2380
a(Vgetting
p2381
g128
tp2382
aasI394
(lp2383
sI395
(lp2384
sI396
(lp2385
sI397
(lp2386
(lp2387
(VTotally
p2388
g4
tp2389
a(Vdifferent
p2390
g11
tp2391
aa(lp2392
g2391
a(Vview
p2393
g14
tp2394
aasI398
(lp2395
sI399
(lp2396
(lp2397
(VJust
p2398
g4
tp2399
a(Vgot
p2400
g156
tp2401
aasI400
(lp2402
sI401
(lp2403
sI402
(lp2404
sI403
(lp2405
sI404
(lp2406
(lp2407
(Vangry
p2408
g11
tp2409
a(Vbirds
p2410
g47
tp2411
aa(lp2412
(Vangry
p2413
g11
tp2414
a(Vbirds
p2415
g47
tp2416
aasI405
(lp2417
sI406
(lp2418
(lp2419
(Vad
p2420
g14
tp2421
a(Vfree
p2422
g11
tp2423
aa(lp2424
(Vstill
p2425
g4
tp2426
a(Vgetting
p2427
g128
tp2428
aasI407
(lp2429
sI408
(lp2430
sI409
(lp2431
sI410
(lp2432
sI411
(lp2433
(lp2434
(Vmuch
p2435
g4
tp2436
a(Vfun
p2437
g63
tp2438
aasI412
(lp2439
(lp2440
(VJust
p2441
g4
tp2442
a(Vgot
p2443
g156
tp2444
aasI413
(lp2445
sI414
(lp2446
sI415
(lp2447
sI416
(lp2448
sI417
(lp2449
(lp2450
(Vangry
p2451
g11
tp2452
a(Vbirds
p2453
g47
tp2454
aa(lp2455
(Vangry
p2456
g11
tp2457
a(Vbirds
p2458
g47
tp2459
aasI418
(lp2460
sI419
(lp2461
sI420
(lp2462
sI421
(lp2463
sI422
(lp2464
(lp2465
(Vmuch
p2466
g4
tp2467
a(Vfun
p2468
g63
tp2469
aasI423
(lp2470
sI424
(lp2471
sI425
(lp2472
sI426
(lp2473
sI427
(lp2474
(lp2475
(Vangry
p2476
g11
tp2477
a(Vbirds
p2478
g47
tp2479
aa(lp2480
(Vangry
p2481
g11
tp2482
a(Vbirds
p2483
g47
tp2484
aasI428
(lp2485
sI429
(lp2486
sI430
(lp2487
sI431
(lp2488
sI432
(lp2489
(lp2490
(Vmuch
p2491
g4
tp2492
a(Vfun
p2493
g63
tp2494
aasI433
(lp2495
sI434
(lp2496
sI435
(lp2497
(lp2498
(Vnew
p2499
g11
tp2500
a(Vpink
p2501
g14
tp2502
aa(lp2503
(Vpretty
p2504
g4
tp2505
a(Vcool
p2506
g11
tp2507
aa(lp2508
(Vnew
p2509
g11
tp2510
a(Vpower
p2511
g14
tp2512
aasI436
(lp2513
(lp2514
(V3yr
p2515
g11
tp2516
a(Vold
p2517
g11
tp2518
aa(lp2519
g2518
a(Vgson
p2520
g14
tp2521
aasI437
(lp2522
(lp2523
(Vvery
p2524
g4
tp2525
a(Vaddicting
p2526
g128
tp2527
aa(lp2528
(Vvery
p2529
g4
tp2530
a(Vnice
p2531
g11
tp2532
aasI438
(lp2533
sI439
(lp2534
sI440
(lp2535
sI441
(lp2536
sI442
(lp2537
sI443
(lp2538
sI444
(lp2539
(lp2540
(Vnew
p2541
g11
tp2542
a(Vgame
p2543
g14
tp2544
aasI445
(lp2545
sI446
(lp2546
sI447
(lp2547
(lp2548
(Vnew
p2549
g11
tp2550
a(Vpink
p2551
g14
tp2552
aa(lp2553
(Vpretty
p2554
g4
tp2555
a(Vcool
p2556
g11
tp2557
aa(lp2558
(Vnew
p2559
g11
tp2560
a(Vpower
p2561
g14
tp2562
aasI448
(lp2563
(lp2564
(V3yr
p2565
g11
tp2566
a(Vold
p2567
g11
tp2568
aa(lp2569
g2568
a(Vgson
p2570
g14
tp2571
aasI449
(lp2572
(lp2573
(Vvery
p2574
g4
tp2575
a(Vaddicting
p2576
g128
tp2577
aa(lp2578
(Vvery
p2579
g4
tp2580
a(Vnice
p2581
g11
tp2582
aasI450
(lp2583
sI451
(lp2584
sI452
(lp2585
sI453
(lp2586
sI454
(lp2587
sI455
(lp2588
(lp2589
(Vnew
p2590
g11
tp2591
a(Vgame
p2592
g14
tp2593
aasI456
(lp2594
sI457
(lp2595
(lp2596
(Vn't
p2597
g4
tp2598
a(Vmove
p2599
g7
tp2600
aa(lp2601
(Vsecond
p2602
g11
tp2603
a(Vlevel
p2604
g14
tp2605
aasI458
(lp2606
sI459
(lp2607
(lp2608
(Vnew
p2609
g11
tp2610
a(Vpink
p2611
g14
tp2612
aa(lp2613
(Vpretty
p2614
g4
tp2615
a(Vcool
p2616
g11
tp2617
aa(lp2618
(Vnew
p2619
g11
tp2620
a(Vpower
p2621
g14
tp2622
aasI460
(lp2623
sI461
(lp2624
(lp2625
(Vvery
p2626
g4
tp2627
a(Vaddicting
p2628
g128
tp2629
aa(lp2630
(Vvery
p2631
g4
tp2632
a(Vnice
p2633
g11
tp2634
aasI462
(lp2635
sI463
(lp2636
sI464
(lp2637
sI465
(lp2638
sI466
(lp2639
(lp2640
(Vn't
p2641
g4
tp2642
a(Vmove
p2643
g7
tp2644
aa(lp2645
(Vsecond
p2646
g11
tp2647
a(Vlevel
p2648
g14
tp2649
aasI467
(lp2650
(lp2651
(Vcharacters
p2652
g47
tp2653
a(Vnew
p2654
g11
tp2655
aasI468
(lp2656
sI469
(lp2657
sI470
(lp2658
sI471
(lp2659
sI472
(lp2660
sI473
(lp2661
sI474
(lp2662
(lp2663
(Vn't
p2664
g4
tp2665
a(Vmove
p2666
g7
tp2667
aa(lp2668
(Vsecond
p2669
g11
tp2670
a(Vlevel
p2671
g14
tp2672
aasI475
(lp2673
(lp2674
(Vcharacters
p2675
g47
tp2676
a(Vnew
p2677
g11
tp2678
aasI476
(lp2679
sI477
(lp2680
sI478
(lp2681
sI479
(lp2682
sI480
(lp2683
sI481
(lp2684
sI482
(lp2685
sI483
(lp2686
sI484
(lp2687
sI485
(lp2688
(lp2689
(Vvery
p2690
g4
tp2691
a(Vaddictive
p2692
g11
tp2693
aa(lp2694
g2693
a(Vgame
p2695
g14
tp2696
aasI486
(lp2697
sI487
(lp2698
(lp2699
(Vcharacters
p2700
g47
tp2701
a(Vnew
p2702
g11
tp2703
aasI488
(lp2704
sI489
(lp2705
sI490
(lp2706
sI491
(lp2707
sI492
(lp2708
sI493
(lp2709
sI494
(lp2710
sI495
(lp2711
sI496
(lp2712
(lp2713
(Vnew
p2714
g11
tp2715
a(Vpowers
p2716
g47
tp2717
aasI497
(lp2718
(lp2719
(Vvery
p2720
g4
tp2721
a(Vaddictive
p2722
g11
tp2723
aa(lp2724
g2723
a(Vgame
p2725
g14
tp2726
aasI498
(lp2727
sI499
(lp2728
sI500
(lp2729
sI501
(lp2730
sI502
(lp2731
sI503
(lp2732
(lp2733
(Vn't
p2734
g4
tp2735
a(Vcuz
p2736
g7
tp2737
aa(lp2738
(Vvery
p2739
g11
tp2740
a(Vannoying
p2741
g14
tp2742
aasI504
(lp2743
(lp2744
(V-step
p2745
g11
tp2746
a(Vrequirement
p2747
g14
tp2748
aa(lp2749
(Vthen
p2750
g4
tp2751
a(Vexit
p2752
g7
tp2753
aa(lp2754
(Vonly
p2755
g4
tp2756
a(Vtake
p2757
g7
tp2758
aa(lp2759
(Vnot
p2760
g4
tp2761
a(Vlet
p2762
g7
tp2763
aasI505
(lp2764
(lp2765
(Vvery
p2766
g4
tp2767
a(Vgood
p2768
g11
tp2769
aa(lp2770
(Vprevious
p2771
g11
tp2772
a(Vgames
p2773
g47
tp2774
aa(lp2775
(Vdifferent
p2776
g11
tp2777
a(Vtwist
p2778
g14
tp2779
aa(lp2780
(Vn't
p2781
g4
tp2782
a(Vbeat
p2783
g7
tp2784
aa(lp2785
(Vvery
p2786
g4
tp2787
a(Vfun
p2788
g63
tp2789
aasI506
(lp2790
(lp2791
(Vn't
p2792
g4
tp2793
a(Vcuz
p2794
g7
tp2795
aa(lp2796
(Vvery
p2797
g11
tp2798
a(Vannoying
p2799
g14
tp2800
aasI507
(lp2801
(lp2802
(V-step
p2803
g11
tp2804
a(Vrequirement
p2805
g14
tp2806
aa(lp2807
(Vthen
p2808
g4
tp2809
a(Vexit
p2810
g7
tp2811
aa(lp2812
(Vonly
p2813
g4
tp2814
a(Vtake
p2815
g7
tp2816
aa(lp2817
(Vnot
p2818
g4
tp2819
a(Vlet
p2820
g7
tp2821
aasI508
(lp2822
(lp2823
(Vvery
p2824
g4
tp2825
a(Vgood
p2826
g11
tp2827
aa(lp2828
(Vprevious
p2829
g11
tp2830
a(Vgames
p2831
g47
tp2832
aa(lp2833
(Vdifferent
p2834
g11
tp2835
a(Vtwist
p2836
g14
tp2837
aa(lp2838
(Vn't
p2839
g4
tp2840
a(Vbeat
p2841
g7
tp2842
aa(lp2843
(Vvery
p2844
g4
tp2845
a(Vfun
p2846
g63
tp2847
aasI509
(lp2848
(lp2849
(Vpretty
p2850
g4
tp2851
a(Vfreaking
p2852
g128
tp2853
aa(lp2854
(Vsomething
p2855
g14
tp2856
a(Vnew
p2857
g11
tp2858
aasI510
(lp2859
(lp2860
(VReally
p2861
g4
tp2862
a(Vloving
p2863
g128
tp2864
aa(lp2865
(Vso
p2866
g4
tp2867
a(Vcool
p2868
g11
tp2869
aasI511
(lp2870
(lp2871
(Vangry
p2872
g11
tp2873
a(Vbirds
p2874
g47
tp2875
aa(lp2876
(Veventually
p2877
g4
tp2878
a(Vgot
p2879
g156
tp2880
aa(lp2881
(Vnext
p2882
g11
tp2883
a(Vupdate
p2884
g14
tp2885
aasI512
(lp2886
(lp2887
(Vgood
p2888
g11
tp2889
a(Vangry
p2890
g14
tp2891
aasI513
(lp2892
(lp2893
(Vlast
p2894
g11
tp2895
a(Vupdate
p2896
g14
tp2897
aa(lp2898
(Vnot
p2899
g4
tp2900
a(Vopen
p2901
g7
tp2902
aasI514
(lp2903
(lp2904
(Vsame
p2905
g11
tp2906
a(Vresult
p2907
g14
tp2908
aasI515
(lp2909
sI516
(lp2910
sI517
(lp2911
(lp2912
(Vmost
p2913
g191
tp2914
a(Vinteresting
p2915
g11
tp2916
aasI518
(lp2917
sI519
(lp2918
sI520
(lp2919
sI521
(lp2920
sI522
(lp2921
sI523
(lp2922
(lp2923
(Vstill
p2924
g4
tp2925
a(Vawful
p2926
g11
tp2927
aa(lp2928
(Vlow
p2929
g11
tp2930
a(Vrate
p2931
g14
tp2932
aasI524
(lp2933
(lp2934
(VBrilliant
p2935
g11
tp2936
a(g215
g14
tp2937
aa(lp2938
(VBrilliant
p2939
g11
tp2940
a(Vagain
p2941
g14
tp2942
aasI525
(lp2943
(lp2944
(Vn't
p2945
g4
tp2946
a(Vplay
p2947
g7
tp2948
aasI526
(lp2949
(lp2950
(Vreluctantly
p2951
g4
tp2952
a(Vspent
p2953
g156
tp2954
aa(lp2955
(Vnever
p2956
g4
tp2957
a(Vshowed
p2958
g156
tp2959
aa(lp2960
(Vnever
p2961
g4
tp2962
a(Vgot
p2963
g156
tp2964
aasI527
(lp2965
(lp2966
(Vvery
p2967
g4
tp2968
a(Vaddictive
p2969
g11
tp2970
aa(lp2971
(Vvery
p2972
g4
tp2973
a(Vfun
p2974
g11
tp2975
aasI528
(lp2976
sI529
(lp2977
sI530
(lp2978
(lp2979
(Vclassic
p2980
g11
tp2981
a(Vcharacters
p2982
g47
tp2983
aasI531
(lp2984
(lp2985
(Vn't
p2986
g4
tp2987
a(Vhave
p2988
g7
tp2989
aasI532
(lp2990
(lp2991
(VReally
p2992
g4
tp2993
a(Vfun
p2994
g63
tp2995
aasI533
(lp2996
sI534
(lp2997
sI535
(lp2998
(lp2999
(Ventertaining
p3000
g11
tp3001
a(Vgame
p3002
g14
tp3003
aasI536
(lp3004
sI537
(lp3005
(lp3006
(Vn't
p3007
g4
tp3008
a(Vget
p3009
g7
tp3010
aasI538
(lp3011
(lp3012
(Vangry
p3013
g11
tp3014
a(Vbirds
p3015
g47
tp3016
aa(lp3017
(Vnot
p3018
g4
tp3019
a(Vusing
p3020
g128
tp3021
aasI539
(lp3022
(lp3023
(Vown
p3024
g11
tp3025
a(Vspin
p3026
g14
tp3027
aasI540
(lp3028
(lp3029
(Vnext
p3030
g11
tp3031
a(Vangry
p3032
g14
tp3033
aasI541
(lp3034
(lp3035
(Vangry
p3036
g11
tp3037
a(Vbirds
p3038
g47
tp3039
aasI542
(lp3040
(lp3041
(Vn't
p3042
g4
tp3043
a(Vdisappointed
p3044
g63
tp3045
aasI543
(lp3046
sI544
(lp3047
(lp3048
(Vtoo
p3049
g4
tp3050
a(Vbig
p3051
g11
tp3052
aasI545
(lp3053
(lp3054
(Vvery
p3055
g4
tp3056
a(Vcute
p3057
g11
tp3058
aa(lp3059
(Vvarious
p3060
g11
tp3061
a(Vfeatures
p3062
g47
tp3063
aa(lp3064
(Vprevious
p3065
g11
tp3066
a(Vgames
p3067
g47
tp3068
aasI546
(lp3069
(lp3070
(Vbig
p3071
g11
tp3072
a(Vboss
p3073
g14
tp3074
aa(lp3075
(Vdarth
p3076
g11
tp3077
a(Vpig
p3078
g14
tp3079
aasI547
(lp3080
(lp3081
(Vfunny
p3082
g11
tp3083
a(Vstar
p3084
g14
tp3085
aasI548
(lp3086
(lp3087
(Vmany
p3088
g11
tp3089
a(Vfresh
p3090
g11
tp3091
aa(lp3092
(Venjoyable
p3093
g11
tp3094
a(Videas
p3095
g47
tp3096
aasI549
(lp3097
(lp3098
(Vreally
p3099
g4
tp3100
a(Vexcited
p3101
g63
tp3102
aa(lp3103
(Veven
p3104
g4
tp3105
a(Vload
p3106
g7
tp3107
aa(lp3108
(Vn't
p3109
g4
tp3110
a(Vplay
p3111
g7
tp3112
aa(lp3113
(Vfull
p3114
g11
tp3115
a(Vgame
p3116
g14
tp3117
aa(lp3118
(Vn't
p3119
g4
tp3120
a(Vshow
p3121
g7
tp3122
aasI550
(lp3123
sI551
(lp3124
(lp3125
(Vaboslutly
p3126
g4
tp3127
a(Vamazing
p3128
g128
tp3129
aa(lp3130
(Vlittle
p3131
g4
tp3132
a(Vanoying
p3133
g128
tp3134
aa(lp3135
(Voverall
p3136
g11
tp3137
a(Vgreat
p3138
g11
tp3139
aasI552
(lp3140
(lp3141
(Vn't
p3142
g4
tp3143
a(Vgon
p3144
g7
tp3145
aa(lp3146
(VNOT
p3147
g4
tp3148
a(Vdisappointed
p3149
g63
tp3150
aasI553
(lp3151
(lp3152
(Vhuge
p3153
g11
tp3154
a(Vhelp
p3155
g14
tp3156
aasI554
(lp3157
(lp3158
(Vads
p3159
g47
tp3160
a(Vfree
p3161
g11
tp3162
aa(lp3163
(Vn't
p3164
g4
tp3165
a(Vunlock
p3166
g7
tp3167
aa(lp3168
(Valso
p3169
g4
tp3170
a(Vhappened
p3171
g156
tp3172
aa(lp3173
(Vgood
p3174
g11
tp3175
a(Vgame
p3176
g14
tp3177
aasI555
(lp3178
(lp3179
(Vpretty
p3180
g4
tp3181
a(Vsweet
p3182
g11
tp3183
aasI556
(lp3184
sI557
(lp3185
(lp3186
(Voriginal
p3187
g11
tp3188
a(Vangry
p3189
g14
tp3190
aa(lp3191
(Vangry
p3192
g11
tp3193
a(Vbird
p3194
g14
tp3195
aa(lp3196
(Vquite
p3197
g4
tp3198
a(Vgood
p3199
g11
tp3200
aasI558
(lp3201
(lp3202
(Vn't
p3203
g4
tp3204
a(Vwork
p3205
g7
tp3206
aa(lp3207
(Vsame
p3208
g11
tp3209
a(Vthing
p3210
g14
tp3211
aasI559
(lp3212
(lp3213
(Vnot
p3214
g4
tp3215
a(Vworking
p3216
g128
tp3217
aa(lp3218
(Vblack
p3219
g11
tp3220
a(Vscreen
p3221
g14
tp3222
aa(lp3223
(Vn't
p3224
g4
tp3225
a(Vexist
p3226
g7
tp3227
aasI560
(lp3228
sI561
(lp3229
(lp3230
(VAbsolutely
p3231
g4
tp3232
a(Vamazing
p3233
g128
tp3234
aasI562
(lp3235
(lp3236
(Vfirst
p3237
g11
tp3238
a(Vlevel
p3239
g14
tp3240
aasI563
(lp3241
(lp3242
(Vn't
p3243
g4
tp3244
a(Vopen
p3245
g7
tp3246
aa(lp3247
(V.I
p3248
g11
tp3249
a(Vneeeeed
p3250
g14
tp3251
aasI564
(lp3252
(lp3253
(Vangry
p3254
g11
tp3255
a(Vbirds
p3256
g47
tp3257
aasI565
(lp3258
(lp3259
(Vnot
p3260
g4
tp3261
a(Vwork
p3262
g7
tp3263
aasI566
(lp3264
(lp3265
(Vnot
p3266
g4
tp3267
a(Vdownload
p3268
g7
tp3269
aa(lp3270
(VNow
p3271
g4
tp3272
a(Vcompatible
p3273
g11
tp3274
aasI567
(lp3275
sI568
(lp3276
(lp3277
(Vhardly
p3278
g4
tp3279
a(Vget
p3280
g7
tp3281
aasI569
(lp3282
sI570
(lp3283
(lp3284
(Vnew
p3285
g11
tp3286
a(Vupdate
p3287
g14
tp3288
aa(lp3289
(Vblack
p3290
g11
tp3291
a(Vsquares
p3292
g47
tp3293
aa(lp3294
(Vactual
p3295
g11
tp3296
a(Vgraphics
p3297
g47
tp3298
aasI571
(lp3299
(lp3300
(Vn't
p3301
g4
tp3302
a(Vsay
p3303
g7
tp3304
aa(lp3305
(Venough
p3306
g11
tp3307
a(Vgood
p3308
g11
tp3309
aa(lp3310
g3309
a(Vthings
p3311
g47
tp3312
aasI572
(lp3313
(lp3314
(Vn't
p3315
g4
tp3316
a(Vwant
p3317
g7
tp3318
aasI573
(lp3319
sI574
(lp3320
sI575
(lp3321
sI576
(lp3322
sI577
(lp3323
sI578
(lp3324
(lp3325
(Vvery
p3326
g4
tp3327
a(Vstrategic
p3328
g11
tp3329
aa(lp3330
g3329
a(Vturn
p3331
g14
tp3332
aa(lp3333
(Vonly
p3334
g4
tp3335
a(Vthrilled
p3336
g63
tp3337
aa(lp3338
(Vyoung
p3339
g11
tp3340
a(Vones
p3341
g47
tp3342
aa(lp3343
(Vold
p3344
g11
tp3345
a(Vdogs
p3346
g47
tp3347
aa(lp3348
(Vvery
p3349
g4
tp3350
a(Vintuitive
p3351
g11
tp3352
aa(lp3353
g3352
a(Vgameplay
p3354
g14
tp3355
aasI579
(lp3356
(lp3357
(Vrandomly
p3358
g4
tp3359
a(Vhave
p3360
g7
tp3361
aa(lp3362
(Ventire
p3363
g11
tp3364
a(Vlevel
p3365
g14
tp3366
aa(lp3367
(Vonly
p3368
g4
tp3369
a(Vshot
p3370
g11
tp3371
aasI580
(lp3372
(lp3373
(Vn't
p3374
g4
tp3375
a(Vthink
p3376
g7
tp3377
aa(lp3378
(Vstill
p3379
g4
tp3380
a(Vbe
p3381
g7
tp3382
aa(lp3383
(Vmuch
p3384
g4
tp3385
a(Vfun
p3386
g63
tp3387
aa(lp3388
(Vgreat
p3389
g11
tp3390
a(Vfun
p3391
g14
tp3392
aasI581
(lp3393
(lp3394
(Vn't
p3395
g4
tp3396
a(Vgo
p3397
g7
tp3398
aasI582
(lp3399
(lp3400
(Vreally
p3401
g4
tp3402
a(Vdid
p3403
g156
tp3404
aa(lp3405
(Vmost
p3406
g191
tp3407
a(Ventertaining
p3408
g11
tp3409
aasI583
(lp3410
(lp3411
(Vso
p3412
g4
tp3413
a(VAMAZING
p3414
g128
tp3415
aa(lp3416
(Vso
p3417
g4
tp3418
a(Vinterested
p3419
g11
tp3420
aasI584
(lp3421
(lp3422
(Vn't
p3423
g4
tp3424
a(Vdownload
p3425
g7
tp3426
aa(lp3427
(Vn't
p3428
g4
tp3429
a(Vwork
p3430
g7
tp3431
aasI585
(lp3432
sI586
(lp3433
sI587
(lp3434
(lp3435
(Vangry
p3436
g11
tp3437
a(Vbirds
p3438
g47
tp3439
aa(lp3440
(Vjust
p3441
g4
tp3442
a(Vgot
p3443
g156
tp3444
aasI588
(lp3445
sI589
(lp3446
(lp3447
(Vangry
p3448
g11
tp3449
a(Vbirds
p3450
g47
tp3451
aasI590
(lp3452
(lp3453
(Vfresh
p3454
g11
tp3455
a(V'another
p3456
g11
tp3457
aa(lp3458
(Vfresh
p3459
g11
tp3460
a(Vtake
p3461
g14
tp3462
aasI591
(lp3463
(lp3464
(VReally
p3465
g4
tp3466
a(Vfun
p3467
g63
tp3468
aasI592
(lp3469
(lp3470
(Vnew
p3471
g11
tp3472
a(Vtheme
p3473
g14
tp3474
aa(lp3475
(Vexciting
p3476
g11
tp3477
a(Vnew
p3478
g11
tp3479
aa(lp3480
g3479
a(Vabilities
p3481
g47
tp3482
aa(lp3483
(Vn't
p3484
g4
tp3485
a(Vstop
p3486
g7
tp3487
aasI593
(lp3488
(lp3489
(VBrilliant
p3490
g11
tp3491
a(Vgameplay
p3492
g14
tp3493
aa(lp3494
(Vwell
p3495
g4
tp3496
a(Vintergrated
p3497
g63
tp3498
aa(lp3499
(Vtoo
p3500
g4
tp3501
a(Vcheesey
p3502
g11
tp3503
aasI594
(lp3504
(lp3505
(Vn't
p3506
g4
tp3507
a(Vknow
p3508
g7
tp3509
aa(lp3510
(Vlast
p3511
g11
tp3512
a(Vangry
p3513
g14
tp3514
aa(lp3515
(Vever
p3516
g4
tp3517
a(Vbe
p3518
g7
tp3519
aasI595
(lp3520
(lp3521
(Vmobile
p3522
g11
tp3523
a(Vgame
p3524
g14
tp3525
aa(lp3526
(Vwhole
p3527
g11
tp3528
a(Vyear
p3529
g14
tp3530
aasI596
(lp3531
sI597
(lp3532
(lp3533
(Vnew
p3534
g11
tp3535
a(Vlevels
p3536
g47
tp3537
aasI598
(lp3538
(lp3539
(Vinternal
p3540
g11
tp3541
a(Vmemory
p3542
g14
tp3543
aa(lp3544
(Vdownload
p3545
g11
tp3546
a(Vangry
p3547
g14
tp3548
aa(lp3549
(Voriginal
p3550
g11
tp3551
a(Vangry
p3552
g14
tp3553
aasI599
(lp3554
(lp3555
(Vunlockable
p3556
g11
tp3557
a(Varea
p3558
g14
tp3559
aa(lp3560
(Vnot
p3561
g4
tp3562
a(Vaccess
p3563
g7
tp3564
aasI600
(lp3565
(lp3566
(Vn't
p3567
g4
tp3568
a(Vknow
p3569
g7
tp3570
aasI601
(lp3571
(lp3572
(Vextra
p3573
g11
tp3574
a(Vmissions
p3575
g47
tp3576
aa(lp3577
(Vnot
p3578
g4
tp3579
a(Vget
p3580
g7
tp3581
aa(lp3582
(Vextra
p3583
g11
tp3584
a(Vlevels
p3585
g47
tp3586
aa(lp3587
(VOtherwise
p3588
g4
tp3589
a(Vgreat
p3590
g11
tp3591
aa(lp3592
g3591
a(Vgame
p3593
g14
tp3594
aa(lp3595
(Vjust
p3596
g4
tp3597
a(Vrocking
p3598
g128
tp3599
aasI602
(lp3600
(lp3601
(Vfinally
p3602
g4
tp3603
a(Vchanged
p3604
g156
tp3605
aa(lp3606
(Vnormal
p3607
g11
tp3608
a(Vsized
p3609
g11
tp3610
aa(lp3611
g3610
a(Vbuttons
p3612
g47
tp3613
aasI603
(lp3614
(lp3615
(Vso
p3616
g4
tp3617
a(Vintrusive
p3618
g11
tp3619
aasI604
(lp3620
sI605
(lp3621
sI606
(lp3622
sI607
(lp3623
(lp3624
(Vn't
p3625
g4
tp3626
a(Vfinish
p3627
g7
tp3628
aasI608
(lp3629
sI609
(lp3630
(lp3631
(Vvisually
p3632
g4
tp3633
a(Vnoisy
p3634
g11
tp3635
aa(lp3636
g3635
a(Vad
p3637
g14
tp3638
aa(lp3639
(Vnot
p3640
g4
tp3641
a(Vbe
p3642
g7
tp3643
aasI610
(lp3644
(lp3645
(Vbad
p3646
g11
tp3647
a(Vpiggies
p3648
g47
tp3649
aasI611
(lp3650
sI612
(lp3651
(lp3652
(Vvery
p3653
g4
tp3654
a(Vaddictive
p3655
g11
tp3656
aasI613
(lp3657
(lp3658
(Vn't
p3659
g4
tp3660
a(Vstop
p3661
g7
tp3662
aasI614
(lp3663
sI615
(lp3664
(lp3665
(Vnot
p3666
g4
tp3667
a(Vallowing
p3668
g128
tp3669
aa(lp3670
(VOnce
p3671
g4
tp3672
a(Vcorrected
p3673
g156
tp3674
aa(lp3675
(Vdefinitely
p3676
g4
tp3677
a(Vbe
p3678
g7
tp3679
aasI616
(lp3680
sI617
(lp3681
(lp3682
(Vmany
p3683
g11
tp3684
a(Vothers
p3685
g47
tp3686
aa(lp3687
(Vother
p3688
g11
tp3689
a(Vlevel
p3690
g14
tp3691
aa(lp3692
(Vnot
p3693
g4
tp3694
a(Vgain
p3695
g7
tp3696
aasI618
(lp3697
(lp3698
(VNot
p3699
g4
tp3700
a(Vmany
p3701
g11
tp3702
aa(lp3703
g3702
a(Vlevels
p3704
g47
tp3705
aa(lp3706
(Vreally
p3707
g4
tp3708
a(Vdifferent
p3709
g11
tp3710
aa(lp3711
(VNot
p3712
g4
tp3713
a(Vworth
p3714
g11
tp3715
aa(lp3716
(VReally
p3717
g4
tp3718
a(Vdisappointed
p3719
g63
tp3720
aa(lp3721
(VEven
p3722
g4
tp3723
a(Vpurchased
p3724
g63
tp3725
aasI619
(lp3726
(lp3727
(Vgreen
p3728
g11
tp3729
a(Vlight
p3730
g14
tp3731
aasI620
(lp3732
(lp3733
(Vn't
p3734
g4
tp3735
a(Vever
p3736
g7
tp3737
aa(lp3738
(Vtime
p3739
g14
tp3740
a(Vgreat
p3741
g11
tp3742
aasI621
(lp3743
(lp3744
(Vn't
p3745
g4
tp3746
a(Vhave
p3747
g7
tp3748
aa(lp3749
(Venough
p3750
g11
tp3751
a(Vspace
p3752
g14
tp3753
aasI622
(lp3754
(lp3755
(Vnew
p3756
g11
tp3757
a(Vangry
p3758
g14
tp3759
aasI623
(lp3760
(lp3761
(Vnot
p3762
g4
tp3763
a(Vaccepted
p3764
g63
tp3765
aa(lp3766
(Vthen
p3767
g4
tp3768
a(Vreload
p3769
g7
tp3770
aa(lp3771
(Vlast
p3772
g11
tp3773
a(Vapp
p3774
g14
tp3775
aa(lp3776
(Valso
p3777
g4
tp3778
a(Vtask
p3779
g7
tp3780
aasI624
(lp3781
sI625
(lp3782
sI626
(lp3783
(lp3784
(Vtotally
p3785
g4
tp3786
a(Vmessed
p3787
g156
tp3788
aa(lp3789
(Vreally
p3790
g4
tp3791
a(Vupset
p3792
g63
tp3793
aasI627
(lp3794
(lp3795
(Vinnovative
p3796
g11
tp3797
a(Vtheme
p3798
g14
tp3799
aa(lp3800
(Voriginal
p3801
g11
tp3802
a(Vbird-slinging
p3803
g11
tp3804
aa(lp3805
g3804
a(Vgame
p3806
g14
tp3807
aa(lp3808
(Vnew
p3809
g11
tp3810
a(Vpowers
p3811
g47
tp3812
aa(lp3813
(Vcriminal
p3814
g11
tp3815
a(Voffence
p3816
g14
tp3817
aa(lp3818
(Vmust-have
p3819
g11
tp3820
a(Vgame
p3821
g14
tp3822
aasI628
(lp3823
(lp3824
(VC'mon
p3825
g11
tp3826
a(Vstar
p3827
g14
tp3828
aa(lp3829
(Vangry
p3830
g11
tp3831
a(Vbirds
p3832
g47
tp3833
aa(lp3834
(Vwhole
p3835
g11
tp3836
a(Vnutha
p3837
g14
tp3838
aasI629
(lp3839
sI630
(lp3840
sI631
(lp3841
sI632
(lp3842
(lp3843
(Vso
p3844
g4
tp3845
a(Vstop
p3846
g7
tp3847
aa(lp3848
(Vnot
p3849
g4
tp3850
a(Vhave
p3851
g7
tp3852
aasI633
(lp3853
(lp3854
(Vbig
p3855
g11
tp3856
a(Vfan
p3857
g14
tp3858
aa(lp3859
(Vquite
p3860
g4
tp3861
a(Vgood
p3862
g11
tp3863
aa(lp3864
(Vso
p3865
g4
tp3866
a(Vyeah
p3867
g11
tp3868
aa(lp3869
(Vdefinitely
p3870
g4
tp3871
a(Vworth
p3872
g11
tp3873
aasI634
(lp3874
(lp3875
(VDefinitely
p3876
g4
tp3877
a(Vworth
p3878
g11
tp3879
aa(lp3880
g3879
a(Vdownloading
p3881
g14
tp3882
aasI635
(lp3883
(lp3884
(Vother
p3885
g11
tp3886
a(Vangry
p3887
g14
tp3888
aasI636
(lp3889
(lp3890
(Vyears
p3891
g47
tp3892
a(Vold
p3893
g11
tp3894
aasI637
(lp3895
sI638
(lp3896
(lp3897
(Vjust
p3898
g4
tp3899
a(Vdosent
p3900
g11
tp3901
aa(lp3902
g3901
a(Vfeel
p3903
g14
tp3904
aa(lp3905
(Vblack
p3906
g11
tp3907
a(Vbird
p3908
g14
tp3909
aasI639
(lp3910
sI640
(lp3911
(lp3912
(Vgreat
p3913
g11
tp3914
a(Vgame
p3915
g14
tp3916
aasI641
(lp3917
sI642
(lp3918
sI643
(lp3919
(lp3920
(Vangry
p3921
g11
tp3922
a(Vbirds
p3923
g47
tp3924
aa(lp3925
(VNOT
p3926
g4
tp3927
a(VBE
p3928
g7
tp3929
aa(lp3930
(Vn't
p3931
g4
tp3932
a(Vlike
p3933
g7
tp3934
aa(lp3935
(Vnow
p3936
g4
tp3937
a(Vplastering
p3938
g128
tp3939
aa(lp3940
(Vnew
p3941
g11
tp3942
a(Vgames
p3943
g47
tp3944
aa(lp3945
(Vother
p3946
g11
tp3947
a(Vversions
p3948
g47
tp3949
aa(lp3950
(Vangry
p3951
g11
tp3952
a(Vbirds
p3953
g47
tp3954
aa(lp3955
(Veven
p3956
g4
tp3957
a(Vupdating
p3958
g128
tp3959
aa(lp3960
(Vonly
p3961
g4
tp3962
a(Vintrusive
p3963
g11
tp3964
aa(lp3965
(Vrather
p3966
g4
tp3967
a(Vuse
p3968
g7
tp3969
aa(lp3970
(Vother
p3971
g11
tp3972
a(Vthings
p3973
g47
tp3974
aa(lp3975
(Vpretty
p3976
g4
tp3977
a(Vboring
p3978
g128
tp3979
aa(lp3980
(Vsimply
p3981
g4
tp3982
a(Vgoing
p3983
g128
tp3984
aa(lp3985
(Vn't
p3986
g4
tp3987
a(Vget
p3988
g7
tp3989
aa(lp3990
(Vnow
p3991
g4
tp3992
a(Vbeing
p3993
g128
tp3994
aasI644
(lp3995
sI645
(lp3996
(lp3997
(Vn't
p3998
g4
tp3999
a(Vclose
p4000
g11
tp4001
aasI646
(lp4002
sI647
(lp4003
sI648
(lp4004
(lp4005
(Val
p4006
g11
tp4007
a(Vcomes
p4008
g47
tp4009
aa(lp4010
(Vgreat
p4011
g11
tp4012
a(Vgame
p4013
g14
tp4014
aa(lp4015
(Vother
p4016
g11
tp4017
a(Vlevels
p4018
g47
tp4019
aasI649
(lp4020
(lp4021
(Vlovable
p4022
g11
tp4023
a(Vgame
p4024
g14
tp4025
aasI650
(lp4026
sI651
(lp4027
sI652
(lp4028
(lp4029
(Vmore
p4030
g1310
tp4031
a(Vfun
p4032
g11
tp4033
aasI653
(lp4034
(lp4035
(Vother
p4036
g11
tp4037
a(Vangry
p4038
g14
tp4039
aasI654
(lp4040
(lp4041
(Vnot
p4042
g4
tp4043
a(Vwork
p4044
g7
tp4045
aasI655
(lp4046
(lp4047
(VJust
p4048
g4
tp4049
a(Vupdated
p4050
g63
tp4051
aa(lp4052
(Vnew
p4053
g11
tp4054
a(Vlevels
p4055
g47
tp4056
aa(lp4057
(Vnew
p4058
g11
tp4059
a(Vbirds
p4060
g47
tp4061
aasI656
(lp4062
(lp4063
(VJust
p4064
g4
tp4065
a(Vcurious
p4066
g11
tp4067
aasI657
(lp4068
(lp4069
(Vcant
p4070
g11
tp4071
a(Vinstall
p4072
g14
tp4073
aasI658
(lp4074
(lp4075
(Vnot
p4076
g4
tp4077
a(Vable
p4078
g11
tp4079
aa(lp4080
(Vn't
p4081
g4
tp4082
a(Vget
p4083
g7
tp4084
aasI659
(lp4085
(lp4086
(Valways
p4087
g4
tp4088
a(Vliked
p4089
g156
tp4090
aa(lp4091
(Vtotally
p4092
g4
tp4093
a(Vaddictive
p4094
g11
tp4095
aasI660
(lp4096
(lp4097
(Vnot
p4098
g4
tp4099
a(Vwork
p4100
g7
tp4101
aasI661
(lp4102
(lp4103
(Vmuch
p4104
g4
tp4105
a(Vfun
p4106
g63
tp4107
aasI662
(lp4108
sI663
(lp4109
sI664
(lp4110
sI665
(lp4111
(lp4112
(Vangry
p4113
g11
tp4114
a(Vbirds
p4115
g47
tp4116
aasI666
(lp4117
sI667
(lp4118
(lp4119
(Vreally
p4120
g4
tp4121
a(Vgreat
p4122
g11
tp4123
aa(lp4124
g4123
a(Vgame
p4125
g14
tp4126
aasI668
(lp4127
(lp4128
(Vwell
p4129
g4
tp4130
a(Vworth
p4131
g11
tp4132
aa(lp4133
(VOnce
p4134
g4
tp4135
a(Vcomplete
p4136
g11
tp4137
aa(lp4138
(Vonly
p4139
g4
tp4140
a(Vwant
p4141
g7
tp4142
aa(lp4143
(Voriginal
p4144
g11
tp4145
a(Vtrilogy
p4146
g14
tp4147
aasI669
(lp4148
(lp4149
(Vsuper-duper
p4150
g11
tp4151
a(Vlightsaber
p4152
g14
tp4153
aasI670
(lp4154
sI671
(lp4155
(lp4156
(Vfavorite
p4157
g11
tp4158
a(Vangry
p4159
g14
tp4160
aasI672
(lp4161
(lp4162
(V.must
p4163
g11
tp4164
a(Vplay
p4165
g14
tp4166
aasI673
(lp4167
sI674
(lp4168
sI675
(lp4169
sI676
(lp4170
(lp4171
(Vjust
p4172
g4
tp4173
a(Vcompleted
p4174
g156
tp4175
aa(lp4176
(Vnot
p4177
g4
tp4178
a(Vopened
p4179
g63
tp4180
aasI677
(lp4181
(lp4182
(Vangry
p4183
g11
tp4184
a(Vbirds
p4185
g47
tp4186
aasI678
(lp4187
sI679
(lp4188
sI680
(lp4189
sI681
(lp4190
sI682
(lp4191
(lp4192
(Vlight
p4193
g11
tp4194
a(Vsabers
p4195
g47
tp4196
aasI683
(lp4197
sI684
(lp4198
sI685
(lp4199
(lp4200
(Vseveral
p4201
g11
tp4202
a(Vtimes
p4203
g47
tp4204
aa(lp4205
(Vnot
p4206
g4
tp4207
a(Vwork
p4208
g7
tp4209
aa(lp4210
(Vn't
p4211
g4
tp4212
a(Vload
p4213
g7
tp4214
aasI686
(lp4215
sI687
(lp4216
(lp4217
(Vgreat
p4218
g11
tp4219
a(Vfun
p4220
g14
tp4221
aa(lp4222
(Vn't
p4223
g4
tp4224
a(Vdowlond
p4225
g7
tp4226
aa(lp4227
(Vn't
p4228
g4
tp4229
a(Vdowlond
p4230
g7
tp4231
aa(lp4232
(Vjust
p4233
g4
tp4234
a(Vdid
p4235
g156
tp4236
aa(lp4237
(Vfirst
p4238
g11
tp4239
a(Vbit
p4240
g14
tp4241
aa(lp4242
(Vlong
p4243
g11
tp4244
a(Vtime
p4245
g14
tp4246
aa(lp4247
(Vso
p4248
g4
tp4249
a(Vgood
p4250
g11
tp4251
aa(lp4252
g4251
a(Vapp
p4253
g14
tp4254
aasI688
(lp4255
(lp4256
(Vn't
p4257
g4
tp4258
a(Vrate
p4259
g7
tp4260
aa(lp4261
(Vn't
p4262
g4
tp4263
a(Vplay
p4264
g7
tp4265
aa(lp4266
(Vangry
p4267
g11
tp4268
a(Vbirds
p4269
g47
tp4270
aa(lp4271
(Vnot
p4272
g4
tp4273
a(Vnecessary
p4274
g11
tp4275
aasI689
(lp4276
(lp4277
(Vvery
p4278
g4
tp4279
a(Vfun
p4280
g11
tp4281
aasI690
(lp4282
(lp4283
(Vnever
p4284
g4
tp4285
a(Vdid
p4286
g156
tp4287
aa(lp4288
(Vthere
p4289
g4
tp4290
a(Vwas
p4291
g156
tp4292
aa(lp4293
(Vimmediately
p4294
g4
tp4295
a(Vdownload
p4296
g156
tp4297
aa(lp4298
(Vnot
p4299
g4
tp4300
a(Vrefuse
p4301
g7
tp4302
aa(lp4303
(Vn't
p4304
g4
tp4305
a(Vwait
p4306
g7
tp4307
aasI691
(lp4308
(lp4309
(VShockingly
p4310
g4
tp4311
a(Vpoor
p4312
g11
tp4313
aasI692
(lp4314
(lp4315
(Vwonderful
p4316
g11
tp4317
a(Vabilities
p4318
g47
tp4319
aa(lp4320
(Vonly
p4321
g11
tp4322
a(Vdisappointing
p4323
g11
tp4324
aa(lp4325
g4324
a(Vfactor
p4326
g14
tp4327
aa(lp4328
(Vtrue
p4329
g11
tp4330
a(Vstart
p4331
g14
tp4332
aasI693
(lp4333
sI694
(lp4334
(lp4335
(Vreally
p4336
g4
tp4337
a(Vappreciate
p4338
g11
tp4339
aa(lp4340
(Vwhole
p4341
g11
tp4342
a(Vfamily
p4343
g14
tp4344
aa(lp4345
(Vvery
p4346
g4
tp4347
a(Vfair
p4348
g11
tp4349
aa(lp4350
(Vn't
p4351
g4
tp4352
a(Vhave
p4353
g7
tp4354
aa(lp4355
(Vgood
p4356
g11
tp4357
a(Vtime
p4358
g14
tp4359
aa(lp4360
(Vn't
p4361
g4
tp4362
a(Vmake
p4363
g7
tp4364
aa(lp4365
(Voriginal
p4366
g11
tp4367
a(Vangry
p4368
g14
tp4369
aa(lp4370
(Vincredible
p4371
g11
tp4372
a(Vlittle
p4373
g14
tp4374
aasI695
(lp4375
(lp4376
(Vepic
p4377
g11
tp4378
a(Vintegalactic
p4379
g11
tp4380
aa(lp4381
(Vcomplete
p4382
g11
tp4383
a(Vepisode
p4384
g14
tp4385
aasI696
(lp4386
(lp4387
(Vvery
p4388
g4
tp4389
a(Vgood
p4390
g11
tp4391
aa(lp4392
(Vlast
p4393
g11
tp4394
a(Vupdate
p4395
g14
tp4396
aasI697
(lp4397
(lp4398
(Vvery
p4399
g4
tp4400
a(Vmuch
p4401
g11
tp4402
aasI698
(lp4403
(lp4404
(Vnot
p4405
g4
tp4406
a(Vget
p4407
g7
tp4408
aasI699
(lp4409
(lp4410
(Vplay
p4411
g14
tp4412
a(Vother
p4413
g11
tp4414
aa(lp4415
g4414
a(Vlevels
p4416
g47
tp4417
aa(lp4418
(Vrich
p4419
g11
tp4420
a(Venough
p4421
g11
tp4422
aa(lp4423
g4422
a(Vcome
p4424
g14
tp4425
aasI700
(lp4426
sI701
(lp4427
sI702
(lp4428
sI703
(lp4429
sI704
(lp4430
sI705
(lp4431
(lp4432
(Vperfect
p4433
g11
tp4434
a(Vstar
p4435
g14
tp4436
aa(lp4437
(Vangry
p4438
g11
tp4439
a(Vbirds
p4440
g47
tp4441
aasI706
(lp4442
(lp4443
(Vvery
p4444
g4
tp4445
a(Vgood
p4446
g11
tp4447
aa(lp4448
(Vlast
p4449
g11
tp4450
a(Vupdate
p4451
g14
tp4452
aasI707
(lp4453
(lp4454
(Vplay
p4455
g14
tp4456
a(Vother
p4457
g11
tp4458
aa(lp4459
g4458
a(Vlevels
p4460
g47
tp4461
aa(lp4462
(Vrich
p4463
g11
tp4464
a(Venough
p4465
g11
tp4466
aa(lp4467
g4466
a(Vcome
p4468
g14
tp4469
aasI708
(lp4470
(lp4471
(Vnot
p4472
g4
tp4473
a(Vget
p4474
g7
tp4475
aasI709
(lp4476
sI710
(lp4477
(lp4478
(Vnot
p4479
g4
tp4480
a(Vopen
p4481
g7
tp4482
aa(lp4483
(Vsecond
p4484
g11
tp4485
a(Vtime
p4486
g14
tp4487
aasI711
(lp4488
sI712
(lp4489
sI713
(lp4490
(lp4491
(Valready
p4492
g4
tp4493
a(Vupdated
p4494
g63
tp4495
aasI714
(lp4496
(lp4497
(Vnext
p4498
g11
tp4499
a(Vplanet
p4500
g14
tp4501
aasI715
(lp4502
(lp4503
(Vactually
p4504
g4
tp4505
a(Vpay
p4506
g7
tp4507
aa(lp4508
(Vown
p4509
g11
tp4510
a(Vlevels
p4511
g47
tp4512
aa(lp4513
(Vown
p4514
g11
tp4515
a(Vfort
p4516
g14
tp4517
aasI716
(lp4518
sI717
(lp4519
sI718
(lp4520
sI719
(lp4521
sI720
(lp4522
(lp4523
(Vnot
p4524
g4
tp4525
a(Vopen
p4526
g7
tp4527
aa(lp4528
(Vsecond
p4529
g11
tp4530
a(Vtime
p4531
g14
tp4532
aasI721
(lp4533
(lp4534
(Vnext
p4535
g11
tp4536
a(Vlevel
p4537
g14
tp4538
aa(lp4539
(Vnot
p4540
g4
tp4541
a(Vunlock
p4542
g7
tp4543
aasI722
(lp4544
(lp4545
(Valready
p4546
g4
tp4547
a(Vupdated
p4548
g63
tp4549
aasI723
(lp4550
(lp4551
(Vnext
p4552
g11
tp4553
a(Vplanet
p4554
g14
tp4555
aasI724
(lp4556
sI725
(lp4557
(lp4558
(Vactually
p4559
g4
tp4560
a(Vpay
p4561
g7
tp4562
aa(lp4563
(Vown
p4564
g11
tp4565
a(Vlevels
p4566
g47
tp4567
aa(lp4568
(Vown
p4569
g11
tp4570
a(Vfort
p4571
g14
tp4572
aasI726
(lp4573
sI727
(lp4574
(lp4575
(Vawesome
p4576
g14
tp4577
a(Vunbelievable
p4578
g11
tp4579
aasI728
(lp4580
sI729
(lp4581
sI730
(lp4582
(lp4583
(Veven
p4584
g4
tp4585
a(Vopen
p4586
g11
tp4587
aasI731
(lp4588
sI732
(lp4589
sI733
(lp4590
(lp4591
(Vnot
p4592
g4
tp4593
a(Vopen
p4594
g7
tp4595
aa(lp4596
(Vsecond
p4597
g11
tp4598
a(Vtime
p4599
g14
tp4600
aasI734
(lp4601
(lp4602
(Vnext
p4603
g11
tp4604
a(Vlevel
p4605
g14
tp4606
aa(lp4607
(Vnot
p4608
g4
tp4609
a(Vunlock
p4610
g7
tp4611
aasI735
(lp4612
(lp4613
(Vnext
p4614
g11
tp4615
a(Vplanet
p4616
g14
tp4617
aasI736
(lp4618
sI737
(lp4619
sI738
(lp4620
(lp4621
(Vawesome
p4622
g14
tp4623
a(Vunbelievable
p4624
g11
tp4625
aasI739
(lp4626
sI740
(lp4627
sI741
(lp4628
sI742
(lp4629
(lp4630
(Veven
p4631
g4
tp4632
a(Vopen
p4633
g11
tp4634
aasI743
(lp4635
sI744
(lp4636
sI745
(lp4637
sI746
(lp4638
sI747
(lp4639
sI748
(lp4640
(lp4641
(Veven
p4642
g4
tp4643
a(Vopen
p4644
g11
tp4645
aasI749
(lp4646
sI750
(lp4647
sI751
(lp4648
(lp4649
(Vnot
p4650
g4
tp4651
a(Vgood
p4652
g11
tp4653
aa(lp4654
g4653
a(Vfreezes
p4655
g47
tp4656
aasI752
(lp4657
sI753
(lp4658
sI754
(lp4659
sI755
(lp4660
sI756
(lp4661
sI757
(lp4662
sI758
(lp4663
sI759
(lp4664
(lp4665
(Vnot
p4666
g4
tp4667
a(Vgood
p4668
g11
tp4669
aa(lp4670
g4669
a(Vfreezes
p4671
g47
tp4672
aasI760
(lp4673
sI761
(lp4674
sI762
(lp4675
sI763
(lp4676
sI764
(lp4677
sI765
(lp4678
sI766
(lp4679
(lp4680
(Vbird
p4681
g11
tp4682
a(Vpreview
p4683
g14
tp4684
aa(lp4685
(Vmany
p4686
g11
tp4687
a(Vnew
p4688
g11
tp4689
aa(lp4690
g4689
a(Vones
p4691
g47
tp4692
aasI767
(lp4693
sI768
(lp4694
sI769
(lp4695
sI770
(lp4696
sI771
(lp4697
(lp4698
(Vnot
p4699
g4
tp4700
a(Vgood
p4701
g11
tp4702
aa(lp4703
g4702
a(Vfreezes
p4704
g47
tp4705
aasI772
(lp4706
sI773
(lp4707
(lp4708
(VNot
p4709
g4
tp4710
a(Vhappy
p4711
g11
tp4712
aasI774
(lp4713
(lp4714
(Vnext
p4715
g11
tp4716
a(Vangry
p4717
g14
tp4718
aasI775
(lp4719
sI776
(lp4720
sI777
(lp4721
sI778
(lp4722
sI779
(lp4723
sI780
(lp4724
sI781
(lp4725
(lp4726
(VNot
p4727
g4
tp4728
a(Vhappy
p4729
g11
tp4730
aasI782
(lp4731
(lp4732
(Veasiest
p4733
g11
tp4734
a(Vangry
p4735
g14
tp4736
aasI783
(lp4737
(lp4738
(Vnext
p4739
g11
tp4740
a(Vangry
p4741
g14
tp4742
aasI784
(lp4743
sI785
(lp4744
sI786
(lp4745
sI787
(lp4746
sI788
(lp4747
sI789
(lp4748
sI790
(lp4749
sI791
(lp4750
(lp4751
(VNot
p4752
g4
tp4753
a(Vhappy
p4754
g11
tp4755
aasI792
(lp4756
(lp4757
(Veasiest
p4758
g11
tp4759
a(Vangry
p4760
g14
tp4761
aasI793
(lp4762
(lp4763
(Vnext
p4764
g11
tp4765
a(Vangry
p4766
g14
tp4767
aasI794
(lp4768
sI795
(lp4769
sI796
(lp4770
sI797
(lp4771
sI798
(lp4772
sI799
(lp4773
(lp4774
(VAbsolutely
p4775
g4
tp4776
a(Ventertaining
p4777
g128
tp4778
aa(lp4779
(Vcompletely
p4780
g4
tp4781
a(Vhappy
p4782
g11
tp4783
aasI800
(lp4784
sI801
(lp4785
(lp4786
(Veasiest
p4787
g11
tp4788
a(Vangry
p4789
g14
tp4790
aasI802
(lp4791
sI803
(lp4792
(lp4793
(Vnext
p4794
g11
tp4795
a(Vangry
p4796
g14
tp4797
aasI804
(lp4798
sI805
(lp4799
sI806
(lp4800
sI807
(lp4801
sI808
(lp4802
sI809
(lp4803
sI810
(lp4804
sI811
(lp4805
(lp4806
(VAbsolutely
p4807
g4
tp4808
a(Ventertaining
p4809
g128
tp4810
aa(lp4811
(Vcompletely
p4812
g4
tp4813
a(Vhappy
p4814
g11
tp4815
aasI812
(lp4816
(lp4817
(Vespecially
p4818
g4
tp4819
a(Vlove
p4820
g7
tp4821
aa(lp4822
(Vn't
p4823
g4
tp4824
a(Vlet
p4825
g7
tp4826
aa(lp4827
(VNot
p4828
g4
tp4829
a(Vhappy
p4830
g11
tp4831
aasI813
(lp4832
(lp4833
(Veasiest
p4834
g11
tp4835
a(Vangry
p4836
g14
tp4837
aasI814
(lp4838
(lp4839
(Veven
p4840
g4
tp4841
a(Vhave
p4842
g7
tp4843
aasI815
(lp4844
sI816
(lp4845
sI817
(lp4846
(lp4847
(Vn't
p4848
g4
tp4849
a(Vwork
p4850
g7
tp4851
aa(lp4852
(Vfree
p4853
g11
tp4854
a(Vparts
p4855
g47
tp4856
aasI818
(lp4857
sI819
(lp4858
sI820
(lp4859
(lp4860
(VAbsolutely
p4861
g4
tp4862
a(Ventertaining
p4863
g128
tp4864
aa(lp4865
(Vcompletely
p4866
g4
tp4867
a(Vhappy
p4868
g11
tp4869
aasI821
(lp4870
sI822
(lp4871
(lp4872
(Vn't
p4873
g4
tp4874
a(Vlet
p4875
g7
tp4876
aasI823
(lp4877
(lp4878
(Vespecially
p4879
g4
tp4880
a(Vlove
p4881
g7
tp4882
aa(lp4883
(Vn't
p4884
g4
tp4885
a(Vlet
p4886
g7
tp4887
aa(lp4888
(VNot
p4889
g4
tp4890
a(Vhappy
p4891
g11
tp4892
aasI824
(lp4893
(lp4894
(Veven
p4895
g4
tp4896
a(Vhave
p4897
g7
tp4898
aasI825
(lp4899
sI826
(lp4900
sI827
(lp4901
sI828
(lp4902
(lp4903
(Vn't
p4904
g4
tp4905
a(Vclose
p4906
g11
tp4907
aa(lp4908
g4907
a(Vads
p4909
g47
tp4910
aasI829
(lp4911
sI830
(lp4912
sI831
(lp4913
(lp4914
(Vn't
p4915
g4
tp4916
a(Vlet
p4917
g7
tp4918
aasI832
(lp4919
(lp4920
(Vespecially
p4921
g4
tp4922
a(Vlove
p4923
g7
tp4924
aa(lp4925
(Vn't
p4926
g4
tp4927
a(Vlet
p4928
g7
tp4929
aa(lp4930
(VNot
p4931
g4
tp4932
a(Vhappy
p4933
g11
tp4934
aasI833
(lp4935
(lp4936
(Vother
p4937
g11
tp4938
a(Vangry
p4939
g14
tp4940
aasI834
(lp4941
sI835
(lp4942
sI836
(lp4943
sI837
(lp4944
(lp4945
(Vfun
p4946
g14
tp4947
a(Vnew
p4948
g11
tp4949
aa(lp4950
g4949
a(Vtrust
p4951
g14
tp4952
aasI838
(lp4953
sI839
(lp4954
(lp4955
(Vn't
p4956
g4
tp4957
a(Vlet
p4958
g7
tp4959
aasI840
(lp4960
sI841
(lp4961
sI842
(lp4962
(lp4963
(Vother
p4964
g11
tp4965
a(Vangry
p4966
g14
tp4967
aasI843
(lp4968
sI844
(lp4969
(lp4970
(Vnice
p4971
g11
tp4972
a(Vtwist
p4973
g14
tp4974
aasI845
(lp4975
sI846
(lp4976
sI847
(lp4977
(lp4978
(Vnot
p4979
g4
tp4980
a(Vwork
p4981
g7
tp4982
aa(lp4983
(Vother
p4984
g11
tp4985
a(Vdevice
p4986
g14
tp4987
aa(lp4988
(Vnot
p4989
g4
tp4990
a(Vwork
p4991
g7
tp4992
aa(lp4993
(Vother
p4994
g11
tp4995
a(Vdevice
p4996
g14
tp4997
aasI848
(lp4998
sI849
(lp4999
sI850
(lp5000
(lp5001
(Vother
p5002
g11
tp5003
a(Vangry
p5004
g14
tp5005
aasI851
(lp5006
sI852
(lp5007
sI853
(lp5008
(lp5009
(Vnice
p5010
g11
tp5011
a(Vtwist
p5012
g14
tp5013
aasI854
(lp5014
sI855
(lp5015
sI856
(lp5016
sI857
(lp5017
sI858
(lp5018
sI859
(lp5019
(lp5020
(Vnice
p5021
g11
tp5022
a(Vtwist
p5023
g14
tp5024
aasI860
(lp5025
sI861
(lp5026
sI862
(lp5027
sI863
(lp5028
sI864
(lp5029
(lp5030
(Vepic
p5031
g11
tp5032
a(Vgame
p5033
g14
tp5034
aasI865
(lp5035
sI866
(lp5036
sI867
(lp5037
sI868
(lp5038
sI869
(lp5039
(lp5040
(Vnice
p5041
g11
tp5042
a(Vtwist
p5043
g14
tp5044
aasI870
(lp5045
sI871
(lp5046
sI872
(lp5047
sI873
(lp5048
sI874
(lp5049
(lp5050
(Vepic
p5051
g11
tp5052
a(Vgame
p5053
g14
tp5054
aasI875
(lp5055
sI876
(lp5056
sI877
(lp5057
sI878
(lp5058
sI879
(lp5059
sI880
(lp5060
sI881
(lp5061
sI882
(lp5062
sI883
(lp5063
(lp5064
(VTotally
p5065
g4
tp5066
a(Vdifferent
p5067
g11
tp5068
aa(lp5069
g5068
a(Vview
p5070
g14
tp5071
aasI884
(lp5072
sI885
(lp5073
sI886
(lp5074
sI887
(lp5075
sI888
(lp5076
sI889
(lp5077
sI890
(lp5078
sI891
(lp5079
sI892
(lp5080
(lp5081
(VTotally
p5082
g4
tp5083
a(Vdifferent
p5084
g11
tp5085
aa(lp5086
g5085
a(Vview
p5087
g14
tp5088
aasI893
(lp5089
sI894
(lp5090
sI895
(lp5091
sI896
(lp5092
(lp5093
(Vad
p5094
g14
tp5095
a(Vfree
p5096
g11
tp5097
aa(lp5098
(Vstill
p5099
g4
tp5100
a(Vgetting
p5101
g128
tp5102
aasI897
(lp5103
sI898
(lp5104
sI899
(lp5105
sI900
(lp5106
(lp5107
(VTotally
p5108
g4
tp5109
a(Vdifferent
p5110
g11
tp5111
aa(lp5112
g5111
a(Vview
p5113
g14
tp5114
aasI901
(lp5115
sI902
(lp5116
(lp5117
(VJust
p5118
g4
tp5119
a(Vgot
p5120
g156
tp5121
aasI903
(lp5122
sI904
(lp5123
sI905
(lp5124
sI906
(lp5125
sI907
(lp5126
(lp5127
(Vangry
p5128
g11
tp5129
a(Vbirds
p5130
g47
tp5131
aa(lp5132
(Vangry
p5133
g11
tp5134
a(Vbirds
p5135
g47
tp5136
aasI908
(lp5137
sI909
(lp5138
(lp5139
(Vad
p5140
g14
tp5141
a(Vfree
p5142
g11
tp5143
aa(lp5144
(Vstill
p5145
g4
tp5146
a(Vgetting
p5147
g128
tp5148
aasI910
(lp5149
sI911
(lp5150
sI912
(lp5151
sI913
(lp5152
sI914
(lp5153
(lp5154
(Vmuch
p5155
g4
tp5156
a(Vfun
p5157
g63
tp5158
aasI915
(lp5159
(lp5160
(VJust
p5161
g4
tp5162
a(Vgot
p5163
g156
tp5164
aasI916
(lp5165
sI917
(lp5166
sI918
(lp5167
sI919
(lp5168
sI920
(lp5169
(lp5170
(Vangry
p5171
g11
tp5172
a(Vbirds
p5173
g47
tp5174
aa(lp5175
(Vangry
p5176
g11
tp5177
a(Vbirds
p5178
g47
tp5179
aasI921
(lp5180
sI922
(lp5181
sI923
(lp5182
sI924
(lp5183
sI925
(lp5184
(lp5185
(Vmuch
p5186
g4
tp5187
a(Vfun
p5188
g63
tp5189
aasI926
(lp5190
sI927
(lp5191
sI928
(lp5192
sI929
(lp5193
sI930
(lp5194
(lp5195
(Vangry
p5196
g11
tp5197
a(Vbirds
p5198
g47
tp5199
aa(lp5200
(Vangry
p5201
g11
tp5202
a(Vbirds
p5203
g47
tp5204
aasI931
(lp5205
sI932
(lp5206
sI933
(lp5207
sI934
(lp5208
sI935
(lp5209
(lp5210
(Vmuch
p5211
g4
tp5212
a(Vfun
p5213
g63
tp5214
aasI936
(lp5215
sI937
(lp5216
sI938
(lp5217
(lp5218
(Vnew
p5219
g11
tp5220
a(Vpink
p5221
g14
tp5222
aa(lp5223
(Vpretty
p5224
g4
tp5225
a(Vcool
p5226
g11
tp5227
aa(lp5228
(Vnew
p5229
g11
tp5230
a(Vpower
p5231
g14
tp5232
aasI939
(lp5233
(lp5234
(V3yr
p5235
g11
tp5236
a(Vold
p5237
g11
tp5238
aa(lp5239
g5238
a(Vgson
p5240
g14
tp5241
aasI940
(lp5242
(lp5243
(Vvery
p5244
g4
tp5245
a(Vaddicting
p5246
g128
tp5247
aa(lp5248
(Vvery
p5249
g4
tp5250
a(Vnice
p5251
g11
tp5252
aasI941
(lp5253
sI942
(lp5254
sI943
(lp5255
sI944
(lp5256
sI945
(lp5257
sI946
(lp5258
sI947
(lp5259
(lp5260
(Vnew
p5261
g11
tp5262
a(Vgame
p5263
g14
tp5264
aasI948
(lp5265
sI949
(lp5266
sI950
(lp5267
(lp5268
(Vnew
p5269
g11
tp5270
a(Vpink
p5271
g14
tp5272
aa(lp5273
(Vpretty
p5274
g4
tp5275
a(Vcool
p5276
g11
tp5277
aa(lp5278
(Vnew
p5279
g11
tp5280
a(Vpower
p5281
g14
tp5282
aasI951
(lp5283
(lp5284
(V3yr
p5285
g11
tp5286
a(Vold
p5287
g11
tp5288
aa(lp5289
g5288
a(Vgson
p5290
g14
tp5291
aasI952
(lp5292
(lp5293
(Vvery
p5294
g4
tp5295
a(Vaddicting
p5296
g128
tp5297
aa(lp5298
(Vvery
p5299
g4
tp5300
a(Vnice
p5301
g11
tp5302
aasI953
(lp5303
sI954
(lp5304
sI955
(lp5305
sI956
(lp5306
sI957
(lp5307
sI958
(lp5308
(lp5309
(Vnew
p5310
g11
tp5311
a(Vgame
p5312
g14
tp5313
aasI959
(lp5314
sI960
(lp5315
(lp5316
(Vn't
p5317
g4
tp5318
a(Vmove
p5319
g7
tp5320
aa(lp5321
(Vsecond
p5322
g11
tp5323
a(Vlevel
p5324
g14
tp5325
aasI961
(lp5326
sI962
(lp5327
(lp5328
(Vnew
p5329
g11
tp5330
a(Vpink
p5331
g14
tp5332
aa(lp5333
(Vpretty
p5334
g4
tp5335
a(Vcool
p5336
g11
tp5337
aa(lp5338
(Vnew
p5339
g11
tp5340
a(Vpower
p5341
g14
tp5342
aasI963
(lp5343
sI964
(lp5344
(lp5345
(Vvery
p5346
g4
tp5347
a(Vaddicting
p5348
g128
tp5349
aa(lp5350
(Vvery
p5351
g4
tp5352
a(Vnice
p5353
g11
tp5354
aasI965
(lp5355
sI966
(lp5356
sI967
(lp5357
sI968
(lp5358
sI969
(lp5359
(lp5360
(Vn't
p5361
g4
tp5362
a(Vmove
p5363
g7
tp5364
aa(lp5365
(Vsecond
p5366
g11
tp5367
a(Vlevel
p5368
g14
tp5369
aasI970
(lp5370
(lp5371
(Vcharacters
p5372
g47
tp5373
a(Vnew
p5374
g11
tp5375
aasI971
(lp5376
sI972
(lp5377
sI973
(lp5378
sI974
(lp5379
sI975
(lp5380
sI976
(lp5381
sI977
(lp5382
(lp5383
(Vn't
p5384
g4
tp5385
a(Vmove
p5386
g7
tp5387
aa(lp5388
(Vsecond
p5389
g11
tp5390
a(Vlevel
p5391
g14
tp5392
aasI978
(lp5393
(lp5394
(Vcharacters
p5395
g47
tp5396
a(Vnew
p5397
g11
tp5398
aasI979
(lp5399
sI980
(lp5400
sI981
(lp5401
sI982
(lp5402
sI983
(lp5403
sI984
(lp5404
sI985
(lp5405
sI986
(lp5406
sI987
(lp5407
sI988
(lp5408
(lp5409
(Vvery
p5410
g4
tp5411
a(Vaddictive
p5412
g11
tp5413
aa(lp5414
g5413
a(Vgame
p5415
g14
tp5416
aasI989
(lp5417
sI990
(lp5418
(lp5419
(Vcharacters
p5420
g47
tp5421
a(Vnew
p5422
g11
tp5423
aasI991
(lp5424
sI992
(lp5425
sI993
(lp5426
sI994
(lp5427
sI995
(lp5428
sI996
(lp5429
sI997
(lp5430
sI998
(lp5431
sI999
(lp5432
(lp5433
(Vnew
p5434
g11
tp5435
a(Vpowers
p5436
g47
tp5437
aasI1000
(lp5438
(lp5439
(Vvery
p5440
g4
tp5441
a(Vaddictive
p5442
g11
tp5443
aa(lp5444
g5443
a(Vgame
p5445
g14
tp5446
aasI1001
(lp5447
sI1002
(lp5448
sI1003
(lp5449
sI1004
(lp5450
sI1005
(lp5451
sI1006
(lp5452
(lp5453
(Vn't
p5454
g4
tp5455
a(Vcuz
p5456
g7
tp5457
aa(lp5458
(Vvery
p5459
g11
tp5460
a(Vannoying
p5461
g14
tp5462
aasI1007
(lp5463
(lp5464
(V-step
p5465
g11
tp5466
a(Vrequirement
p5467
g14
tp5468
aa(lp5469
(Vthen
p5470
g4
tp5471
a(Vexit
p5472
g7
tp5473
aa(lp5474
(Vonly
p5475
g4
tp5476
a(Vtake
p5477
g7
tp5478
aa(lp5479
(Vnot
p5480
g4
tp5481
a(Vlet
p5482
g7
tp5483
aasI1008
(lp5484
(lp5485
(Vvery
p5486
g4
tp5487
a(Vgood
p5488
g11
tp5489
aa(lp5490
(Vprevious
p5491
g11
tp5492
a(Vgames
p5493
g47
tp5494
aa(lp5495
(Vdifferent
p5496
g11
tp5497
a(Vtwist
p5498
g14
tp5499
aa(lp5500
(Vn't
p5501
g4
tp5502
a(Vbeat
p5503
g7
tp5504
aa(lp5505
(Vvery
p5506
g4
tp5507
a(Vfun
p5508
g63
tp5509
aasI1009
(lp5510
(lp5511
(Vn't
p5512
g4
tp5513
a(Vcuz
p5514
g7
tp5515
aa(lp5516
(Vvery
p5517
g11
tp5518
a(Vannoying
p5519
g14
tp5520
aasI1010
(lp5521
(lp5522
(V-step
p5523
g11
tp5524
a(Vrequirement
p5525
g14
tp5526
aa(lp5527
(Vthen
p5528
g4
tp5529
a(Vexit
p5530
g7
tp5531
aa(lp5532
(Vonly
p5533
g4
tp5534
a(Vtake
p5535
g7
tp5536
aa(lp5537
(Vnot
p5538
g4
tp5539
a(Vlet
p5540
g7
tp5541
aasI1011
(lp5542
(lp5543
(Vvery
p5544
g4
tp5545
a(Vgood
p5546
g11
tp5547
aa(lp5548
(Vprevious
p5549
g11
tp5550
a(Vgames
p5551
g47
tp5552
aa(lp5553
(Vdifferent
p5554
g11
tp5555
a(Vtwist
p5556
g14
tp5557
aa(lp5558
(Vn't
p5559
g4
tp5560
a(Vbeat
p5561
g7
tp5562
aa(lp5563
(Vvery
p5564
g4
tp5565
a(Vfun
p5566
g63
tp5567
aasI1012
(lp5568
(lp5569
(Vpretty
p5570
g4
tp5571
a(Vfreaking
p5572
g128
tp5573
aa(lp5574
(Vsomething
p5575
g14
tp5576
a(Vnew
p5577
g11
tp5578
aasI1013
(lp5579
(lp5580
(VReally
p5581
g4
tp5582
a(Vloving
p5583
g128
tp5584
aa(lp5585
(Vso
p5586
g4
tp5587
a(Vcool
p5588
g11
tp5589
aasI1014
(lp5590
(lp5591
(Vangry
p5592
g11
tp5593
a(Vbirds
p5594
g47
tp5595
aa(lp5596
(Veventually
p5597
g4
tp5598
a(Vgot
p5599
g156
tp5600
aa(lp5601
(Vnext
p5602
g11
tp5603
a(Vupdate
p5604
g14
tp5605
aasI1015
(lp5606
(lp5607
(Vgood
p5608
g11
tp5609
a(Vangry
p5610
g14
tp5611
aasI1016
(lp5612
(lp5613
(Vlast
p5614
g11
tp5615
a(Vupdate
p5616
g14
tp5617
aa(lp5618
(Vnot
p5619
g4
tp5620
a(Vopen
p5621
g7
tp5622
aasI1017
(lp5623
(lp5624
(Vsame
p5625
g11
tp5626
a(Vresult
p5627
g14
tp5628
aasI1018
(lp5629
sI1019
(lp5630
sI1020
(lp5631
(lp5632
(Vmost
p5633
g191
tp5634
a(Vinteresting
p5635
g11
tp5636
aasI1021
(lp5637
sI1022
(lp5638
sI1023
(lp5639
sI1024
(lp5640
sI1025
(lp5641
sI1026
(lp5642
(lp5643
(Vstill
p5644
g4
tp5645
a(Vawful
p5646
g11
tp5647
aa(lp5648
(Vlow
p5649
g11
tp5650
a(Vrate
p5651
g14
tp5652
aasI1027
(lp5653
(lp5654
(VBrilliant
p5655
g11
tp5656
a(g215
g14
tp5657
aa(lp5658
(VBrilliant
p5659
g11
tp5660
a(Vagain
p5661
g14
tp5662
aasI1028
(lp5663
(lp5664
(Vn't
p5665
g4
tp5666
a(Vplay
p5667
g7
tp5668
aasI1029
(lp5669
(lp5670
(Vreluctantly
p5671
g4
tp5672
a(Vspent
p5673
g156
tp5674
aa(lp5675
(Vnever
p5676
g4
tp5677
a(Vshowed
p5678
g156
tp5679
aa(lp5680
(Vnever
p5681
g4
tp5682
a(Vgot
p5683
g156
tp5684
aasI1030
(lp5685
(lp5686
(Vvery
p5687
g4
tp5688
a(Vaddictive
p5689
g11
tp5690
aa(lp5691
(Vvery
p5692
g4
tp5693
a(Vfun
p5694
g11
tp5695
aasI1031
(lp5696
sI1032
(lp5697
sI1033
(lp5698
(lp5699
(Vclassic
p5700
g11
tp5701
a(Vcharacters
p5702
g47
tp5703
aasI1034
(lp5704
(lp5705
(Vn't
p5706
g4
tp5707
a(Vhave
p5708
g7
tp5709
aasI1035
(lp5710
(lp5711
(VReally
p5712
g4
tp5713
a(Vfun
p5714
g63
tp5715
aasI1036
(lp5716
sI1037
(lp5717
sI1038
(lp5718
(lp5719
(Ventertaining
p5720
g11
tp5721
a(Vgame
p5722
g14
tp5723
aasI1039
(lp5724
sI1040
(lp5725
(lp5726
(Vn't
p5727
g4
tp5728
a(Vget
p5729
g7
tp5730
aasI1041
(lp5731
(lp5732
(Vangry
p5733
g11
tp5734
a(Vbirds
p5735
g47
tp5736
aa(lp5737
(Vnot
p5738
g4
tp5739
a(Vusing
p5740
g128
tp5741
aasI1042
(lp5742
(lp5743
(Vown
p5744
g11
tp5745
a(Vspin
p5746
g14
tp5747
aasI1043
(lp5748
(lp5749
(Vnext
p5750
g11
tp5751
a(Vangry
p5752
g14
tp5753
aasI1044
(lp5754
(lp5755
(Vangry
p5756
g11
tp5757
a(Vbirds
p5758
g47
tp5759
aasI1045
(lp5760
(lp5761
(Vn't
p5762
g4
tp5763
a(Vdisappointed
p5764
g63
tp5765
aasI1046
(lp5766
sI1047
(lp5767
(lp5768
(Vtoo
p5769
g4
tp5770
a(Vbig
p5771
g11
tp5772
aasI1048
(lp5773
(lp5774
(Vvery
p5775
g4
tp5776
a(Vcute
p5777
g11
tp5778
aa(lp5779
(Vvarious
p5780
g11
tp5781
a(Vfeatures
p5782
g47
tp5783
aa(lp5784
(Vprevious
p5785
g11
tp5786
a(Vgames
p5787
g47
tp5788
aasI1049
(lp5789
(lp5790
(Vbig
p5791
g11
tp5792
a(Vboss
p5793
g14
tp5794
aa(lp5795
(Vdarth
p5796
g11
tp5797
a(Vpig
p5798
g14
tp5799
aasI1050
(lp5800
(lp5801
(Vfunny
p5802
g11
tp5803
a(Vstar
p5804
g14
tp5805
aasI1051
(lp5806
(lp5807
(Vmany
p5808
g11
tp5809
a(Vfresh
p5810
g11
tp5811
aa(lp5812
(Venjoyable
p5813
g11
tp5814
a(Videas
p5815
g47
tp5816
aasI1052
(lp5817
(lp5818
(Vreally
p5819
g4
tp5820
a(Vexcited
p5821
g63
tp5822
aa(lp5823
(Veven
p5824
g4
tp5825
a(Vload
p5826
g7
tp5827
aa(lp5828
(Vn't
p5829
g4
tp5830
a(Vplay
p5831
g7
tp5832
aa(lp5833
(Vfull
p5834
g11
tp5835
a(Vgame
p5836
g14
tp5837
aa(lp5838
(Vn't
p5839
g4
tp5840
a(Vshow
p5841
g7
tp5842
aasI1053
(lp5843
sI1054
(lp5844
(lp5845
(Vaboslutly
p5846
g4
tp5847
a(Vamazing
p5848
g128
tp5849
aa(lp5850
(Vlittle
p5851
g4
tp5852
a(Vanoying
p5853
g128
tp5854
aa(lp5855
(Voverall
p5856
g11
tp5857
a(Vgreat
p5858
g11
tp5859
aasI1055
(lp5860
(lp5861
(Vn't
p5862
g4
tp5863
a(Vgon
p5864
g7
tp5865
aa(lp5866
(VNOT
p5867
g4
tp5868
a(Vdisappointed
p5869
g63
tp5870
aasI1056
(lp5871
(lp5872
(Vhuge
p5873
g11
tp5874
a(Vhelp
p5875
g14
tp5876
aasI1057
(lp5877
(lp5878
(Vads
p5879
g47
tp5880
a(Vfree
p5881
g11
tp5882
aa(lp5883
(Vn't
p5884
g4
tp5885
a(Vunlock
p5886
g7
tp5887
aa(lp5888
(Valso
p5889
g4
tp5890
a(Vhappened
p5891
g156
tp5892
aa(lp5893
(Vgood
p5894
g11
tp5895
a(Vgame
p5896
g14
tp5897
aasI1058
(lp5898
(lp5899
(Vpretty
p5900
g4
tp5901
a(Vsweet
p5902
g11
tp5903
aasI1059
(lp5904
sI1060
(lp5905
(lp5906
(Voriginal
p5907
g11
tp5908
a(Vangry
p5909
g14
tp5910
aa(lp5911
(Vangry
p5912
g11
tp5913
a(Vbird
p5914
g14
tp5915
aa(lp5916
(Vquite
p5917
g4
tp5918
a(Vgood
p5919
g11
tp5920
aasI1061
(lp5921
(lp5922
(Vn't
p5923
g4
tp5924
a(Vwork
p5925
g7
tp5926
aa(lp5927
(Vsame
p5928
g11
tp5929
a(Vthing
p5930
g14
tp5931
aasI1062
(lp5932
(lp5933
(Vnot
p5934
g4
tp5935
a(Vworking
p5936
g128
tp5937
aa(lp5938
(Vblack
p5939
g11
tp5940
a(Vscreen
p5941
g14
tp5942
aa(lp5943
(Vn't
p5944
g4
tp5945
a(Vexist
p5946
g7
tp5947
aasI1063
(lp5948
sI1064
(lp5949
(lp5950
(VAbsolutely
p5951
g4
tp5952
a(Vamazing
p5953
g128
tp5954
aasI1065
(lp5955
(lp5956
(Vfirst
p5957
g11
tp5958
a(Vlevel
p5959
g14
tp5960
aasI1066
(lp5961
(lp5962
(Vn't
p5963
g4
tp5964
a(Vopen
p5965
g7
tp5966
aa(lp5967
(V.I
p5968
g11
tp5969
a(Vneeeeed
p5970
g14
tp5971
aasI1067
(lp5972
(lp5973
(Vangry
p5974
g11
tp5975
a(Vbirds
p5976
g47
tp5977
aasI1068
(lp5978
(lp5979
(Vnot
p5980
g4
tp5981
a(Vwork
p5982
g7
tp5983
aasI1069
(lp5984
(lp5985
(Vnot
p5986
g4
tp5987
a(Vdownload
p5988
g7
tp5989
aa(lp5990
(VNow
p5991
g4
tp5992
a(Vcompatible
p5993
g11
tp5994
aasI1070
(lp5995
sI1071
(lp5996
(lp5997
(Vhardly
p5998
g4
tp5999
a(Vget
p6000
g7
tp6001
aasI1072
(lp6002
sI1073
(lp6003
(lp6004
(Vnew
p6005
g11
tp6006
a(Vupdate
p6007
g14
tp6008
aa(lp6009
(Vblack
p6010
g11
tp6011
a(Vsquares
p6012
g47
tp6013
aa(lp6014
(Vactual
p6015
g11
tp6016
a(Vgraphics
p6017
g47
tp6018
aasI1074
(lp6019
(lp6020
(Vn't
p6021
g4
tp6022
a(Vsay
p6023
g7
tp6024
aa(lp6025
(Venough
p6026
g11
tp6027
a(Vgood
p6028
g11
tp6029
aa(lp6030
g6029
a(Vthings
p6031
g47
tp6032
aasI1075
(lp6033
(lp6034
(Vn't
p6035
g4
tp6036
a(Vwant
p6037
g7
tp6038
aasI1076
(lp6039
sI1077
(lp6040
sI1078
(lp6041
sI1079
(lp6042
sI1080
(lp6043
sI1081
(lp6044
(lp6045
(Vvery
p6046
g4
tp6047
a(Vstrategic
p6048
g11
tp6049
aa(lp6050
g6049
a(Vturn
p6051
g14
tp6052
aa(lp6053
(Vonly
p6054
g4
tp6055
a(Vthrilled
p6056
g63
tp6057
aa(lp6058
(Vyoung
p6059
g11
tp6060
a(Vones
p6061
g47
tp6062
aa(lp6063
(Vold
p6064
g11
tp6065
a(Vdogs
p6066
g47
tp6067
aa(lp6068
(Vvery
p6069
g4
tp6070
a(Vintuitive
p6071
g11
tp6072
aa(lp6073
g6072
a(Vgameplay
p6074
g14
tp6075
aasI1082
(lp6076
(lp6077
(Vrandomly
p6078
g4
tp6079
a(Vhave
p6080
g7
tp6081
aa(lp6082
(Ventire
p6083
g11
tp6084
a(Vlevel
p6085
g14
tp6086
aa(lp6087
(Vonly
p6088
g4
tp6089
a(Vshot
p6090
g11
tp6091
aasI1083
(lp6092
(lp6093
(Vn't
p6094
g4
tp6095
a(Vthink
p6096
g7
tp6097
aa(lp6098
(Vstill
p6099
g4
tp6100
a(Vbe
p6101
g7
tp6102
aa(lp6103
(Vmuch
p6104
g4
tp6105
a(Vfun
p6106
g63
tp6107
aa(lp6108
(Vgreat
p6109
g11
tp6110
a(Vfun
p6111
g14
tp6112
aasI1084
(lp6113
(lp6114
(Vn't
p6115
g4
tp6116
a(Vgo
p6117
g7
tp6118
aasI1085
(lp6119
(lp6120
(Vreally
p6121
g4
tp6122
a(Vdid
p6123
g156
tp6124
aa(lp6125
(Vmost
p6126
g191
tp6127
a(Ventertaining
p6128
g11
tp6129
aasI1086
(lp6130
(lp6131
(Vso
p6132
g4
tp6133
a(VAMAZING
p6134
g128
tp6135
aa(lp6136
(Vso
p6137
g4
tp6138
a(Vinterested
p6139
g11
tp6140
aasI1087
(lp6141
(lp6142
(Vn't
p6143
g4
tp6144
a(Vdownload
p6145
g7
tp6146
aa(lp6147
(Vn't
p6148
g4
tp6149
a(Vwork
p6150
g7
tp6151
aasI1088
(lp6152
sI1089
(lp6153
sI1090
(lp6154
(lp6155
(Vangry
p6156
g11
tp6157
a(Vbirds
p6158
g47
tp6159
aa(lp6160
(Vjust
p6161
g4
tp6162
a(Vgot
p6163
g156
tp6164
aasI1091
(lp6165
sI1092
(lp6166
(lp6167
(Vangry
p6168
g11
tp6169
a(Vbirds
p6170
g47
tp6171
aasI1093
(lp6172
(lp6173
(Vfresh
p6174
g11
tp6175
a(V'another
p6176
g11
tp6177
aa(lp6178
(Vfresh
p6179
g11
tp6180
a(Vtake
p6181
g14
tp6182
aasI1094
(lp6183
(lp6184
(VReally
p6185
g4
tp6186
a(Vfun
p6187
g63
tp6188
aasI1095
(lp6189
(lp6190
(Vnew
p6191
g11
tp6192
a(Vtheme
p6193
g14
tp6194
aa(lp6195
(Vexciting
p6196
g11
tp6197
a(Vnew
p6198
g11
tp6199
aa(lp6200
g6199
a(Vabilities
p6201
g47
tp6202
aa(lp6203
(Vn't
p6204
g4
tp6205
a(Vstop
p6206
g7
tp6207
aasI1096
(lp6208
(lp6209
(VBrilliant
p6210
g11
tp6211
a(Vgameplay
p6212
g14
tp6213
aa(lp6214
(Vwell
p6215
g4
tp6216
a(Vintergrated
p6217
g63
tp6218
aa(lp6219
(Vtoo
p6220
g4
tp6221
a(Vcheesey
p6222
g11
tp6223
aasI1097
(lp6224
(lp6225
(Vn't
p6226
g4
tp6227
a(Vknow
p6228
g7
tp6229
aa(lp6230
(Vlast
p6231
g11
tp6232
a(Vangry
p6233
g14
tp6234
aa(lp6235
(Vever
p6236
g4
tp6237
a(Vbe
p6238
g7
tp6239
aasI1098
(lp6240
(lp6241
(Vmobile
p6242
g11
tp6243
a(Vgame
p6244
g14
tp6245
aa(lp6246
(Vwhole
p6247
g11
tp6248
a(Vyear
p6249
g14
tp6250
aasI1099
(lp6251
sI1100
(lp6252
(lp6253
(Vnew
p6254
g11
tp6255
a(Vlevels
p6256
g47
tp6257
aasI1101
(lp6258
(lp6259
(Vinternal
p6260
g11
tp6261
a(Vmemory
p6262
g14
tp6263
aa(lp6264
(Vdownload
p6265
g11
tp6266
a(Vangry
p6267
g14
tp6268
aa(lp6269
(Voriginal
p6270
g11
tp6271
a(Vangry
p6272
g14
tp6273
aasI1102
(lp6274
(lp6275
(Vunlockable
p6276
g11
tp6277
a(Varea
p6278
g14
tp6279
aa(lp6280
(Vnot
p6281
g4
tp6282
a(Vaccess
p6283
g7
tp6284
aasI1103
(lp6285
(lp6286
(Vn't
p6287
g4
tp6288
a(Vknow
p6289
g7
tp6290
aasI1104
(lp6291
(lp6292
(Vextra
p6293
g11
tp6294
a(Vmissions
p6295
g47
tp6296
aa(lp6297
(Vnot
p6298
g4
tp6299
a(Vget
p6300
g7
tp6301
aa(lp6302
(Vextra
p6303
g11
tp6304
a(Vlevels
p6305
g47
tp6306
aa(lp6307
(VOtherwise
p6308
g4
tp6309
a(Vgreat
p6310
g11
tp6311
aa(lp6312
g6311
a(Vgame
p6313
g14
tp6314
aa(lp6315
(Vjust
p6316
g4
tp6317
a(Vrocking
p6318
g128
tp6319
aasI1105
(lp6320
(lp6321
(Vfinally
p6322
g4
tp6323
a(Vchanged
p6324
g156
tp6325
aa(lp6326
(Vnormal
p6327
g11
tp6328
a(Vsized
p6329
g11
tp6330
aa(lp6331
g6330
a(Vbuttons
p6332
g47
tp6333
aasI1106
(lp6334
(lp6335
(Vso
p6336
g4
tp6337
a(Vintrusive
p6338
g11
tp6339
aasI1107
(lp6340
sI1108
(lp6341
sI1109
(lp6342
sI1110
(lp6343
(lp6344
(Vn't
p6345
g4
tp6346
a(Vfinish
p6347
g7
tp6348
aasI1111
(lp6349
sI1112
(lp6350
(lp6351
(Vvisually
p6352
g4
tp6353
a(Vnoisy
p6354
g11
tp6355
aa(lp6356
g6355
a(Vad
p6357
g14
tp6358
aa(lp6359
(Vnot
p6360
g4
tp6361
a(Vbe
p6362
g7
tp6363
aasI1113
(lp6364
(lp6365
(Vbad
p6366
g11
tp6367
a(Vpiggies
p6368
g47
tp6369
aasI1114
(lp6370
sI1115
(lp6371
(lp6372
(Vvery
p6373
g4
tp6374
a(Vaddictive
p6375
g11
tp6376
aasI1116
(lp6377
(lp6378
(Vn't
p6379
g4
tp6380
a(Vstop
p6381
g7
tp6382
aasI1117
(lp6383
sI1118
(lp6384
(lp6385
(Vnot
p6386
g4
tp6387
a(Vallowing
p6388
g128
tp6389
aa(lp6390
(VOnce
p6391
g4
tp6392
a(Vcorrected
p6393
g156
tp6394
aa(lp6395
(Vdefinitely
p6396
g4
tp6397
a(Vbe
p6398
g7
tp6399
aasI1119
(lp6400
sI1120
(lp6401
(lp6402
(Vmany
p6403
g11
tp6404
a(Vothers
p6405
g47
tp6406
aa(lp6407
(Vother
p6408
g11
tp6409
a(Vlevel
p6410
g14
tp6411
aa(lp6412
(Vnot
p6413
g4
tp6414
a(Vgain
p6415
g7
tp6416
aasI1121
(lp6417
(lp6418
(VNot
p6419
g4
tp6420
a(Vmany
p6421
g11
tp6422
aa(lp6423
g6422
a(Vlevels
p6424
g47
tp6425
aa(lp6426
(Vreally
p6427
g4
tp6428
a(Vdifferent
p6429
g11
tp6430
aa(lp6431
(VNot
p6432
g4
tp6433
a(Vworth
p6434
g11
tp6435
aa(lp6436
(VReally
p6437
g4
tp6438
a(Vdisappointed
p6439
g63
tp6440
aa(lp6441
(VEven
p6442
g4
tp6443
a(Vpurchased
p6444
g63
tp6445
aasI1122
(lp6446
(lp6447
(Vgreen
p6448
g11
tp6449
a(Vlight
p6450
g14
tp6451
aasI1123
(lp6452
(lp6453
(Vn't
p6454
g4
tp6455
a(Vever
p6456
g7
tp6457
aa(lp6458
(Vtime
p6459
g14
tp6460
a(Vgreat
p6461
g11
tp6462
aasI1124
(lp6463
(lp6464
(Vn't
p6465
g4
tp6466
a(Vhave
p6467
g7
tp6468
aa(lp6469
(Venough
p6470
g11
tp6471
a(Vspace
p6472
g14
tp6473
aasI1125
(lp6474
(lp6475
(Vnew
p6476
g11
tp6477
a(Vangry
p6478
g14
tp6479
aasI1126
(lp6480
(lp6481
(Vnot
p6482
g4
tp6483
a(Vaccepted
p6484
g63
tp6485
aa(lp6486
(Vthen
p6487
g4
tp6488
a(Vreload
p6489
g7
tp6490
aa(lp6491
(Vlast
p6492
g11
tp6493
a(Vapp
p6494
g14
tp6495
aa(lp6496
(Valso
p6497
g4
tp6498
a(Vtask
p6499
g7
tp6500
aasI1127
(lp6501
sI1128
(lp6502
sI1129
(lp6503
(lp6504
(Vtotally
p6505
g4
tp6506
a(Vmessed
p6507
g156
tp6508
aa(lp6509
(Vreally
p6510
g4
tp6511
a(Vupset
p6512
g63
tp6513
aasI1130
(lp6514
(lp6515
(Vinnovative
p6516
g11
tp6517
a(Vtheme
p6518
g14
tp6519
aa(lp6520
(Voriginal
p6521
g11
tp6522
a(Vbird-slinging
p6523
g11
tp6524
aa(lp6525
g6524
a(Vgame
p6526
g14
tp6527
aa(lp6528
(Vnew
p6529
g11
tp6530
a(Vpowers
p6531
g47
tp6532
aa(lp6533
(Vcriminal
p6534
g11
tp6535
a(Voffence
p6536
g14
tp6537
aa(lp6538
(Vmust-have
p6539
g11
tp6540
a(Vgame
p6541
g14
tp6542
aasI1131
(lp6543
(lp6544
(VC'mon
p6545
g11
tp6546
a(Vstar
p6547
g14
tp6548
aa(lp6549
(Vangry
p6550
g11
tp6551
a(Vbirds
p6552
g47
tp6553
aa(lp6554
(Vwhole
p6555
g11
tp6556
a(Vnutha
p6557
g14
tp6558
aasI1132
(lp6559
sI1133
(lp6560
sI1134
(lp6561
sI1135
(lp6562
(lp6563
(Vso
p6564
g4
tp6565
a(Vstop
p6566
g7
tp6567
aa(lp6568
(Vnot
p6569
g4
tp6570
a(Vhave
p6571
g7
tp6572
aasI1136
(lp6573
(lp6574
(Vbig
p6575
g11
tp6576
a(Vfan
p6577
g14
tp6578
aa(lp6579
(Vquite
p6580
g4
tp6581
a(Vgood
p6582
g11
tp6583
aa(lp6584
(Vso
p6585
g4
tp6586
a(Vyeah
p6587
g11
tp6588
aa(lp6589
(Vdefinitely
p6590
g4
tp6591
a(Vworth
p6592
g11
tp6593
aasI1137
(lp6594
(lp6595
(VDefinitely
p6596
g4
tp6597
a(Vworth
p6598
g11
tp6599
aa(lp6600
g6599
a(Vdownloading
p6601
g14
tp6602
aasI1138
(lp6603
(lp6604
(Vother
p6605
g11
tp6606
a(Vangry
p6607
g14
tp6608
aasI1139
(lp6609
(lp6610
(Vyears
p6611
g47
tp6612
a(Vold
p6613
g11
tp6614
aasI1140
(lp6615
sI1141
(lp6616
(lp6617
(Vjust
p6618
g4
tp6619
a(Vdosent
p6620
g11
tp6621
aa(lp6622
g6621
a(Vfeel
p6623
g14
tp6624
aa(lp6625
(Vblack
p6626
g11
tp6627
a(Vbird
p6628
g14
tp6629
aasI1142
(lp6630
sI1143
(lp6631
(lp6632
(Vgreat
p6633
g11
tp6634
a(Vgame
p6635
g14
tp6636
aasI1144
(lp6637
sI1145
(lp6638
sI1146
(lp6639
(lp6640
(Vangry
p6641
g11
tp6642
a(Vbirds
p6643
g47
tp6644
aa(lp6645
(VNOT
p6646
g4
tp6647
a(VBE
p6648
g7
tp6649
aa(lp6650
(Vn't
p6651
g4
tp6652
a(Vlike
p6653
g7
tp6654
aa(lp6655
(Vnow
p6656
g4
tp6657
a(Vplastering
p6658
g128
tp6659
aa(lp6660
(Vnew
p6661
g11
tp6662
a(Vgames
p6663
g47
tp6664
aa(lp6665
(Vother
p6666
g11
tp6667
a(Vversions
p6668
g47
tp6669
aa(lp6670
(Vangry
p6671
g11
tp6672
a(Vbirds
p6673
g47
tp6674
aa(lp6675
(Veven
p6676
g4
tp6677
a(Vupdating
p6678
g128
tp6679
aa(lp6680
(Vonly
p6681
g4
tp6682
a(Vintrusive
p6683
g11
tp6684
aa(lp6685
(Vrather
p6686
g4
tp6687
a(Vuse
p6688
g7
tp6689
aa(lp6690
(Vother
p6691
g11
tp6692
a(Vthings
p6693
g47
tp6694
aa(lp6695
(Vpretty
p6696
g4
tp6697
a(Vboring
p6698
g128
tp6699
aa(lp6700
(Vsimply
p6701
g4
tp6702
a(Vgoing
p6703
g128
tp6704
aa(lp6705
(Vn't
p6706
g4
tp6707
a(Vget
p6708
g7
tp6709
aa(lp6710
(Vnow
p6711
g4
tp6712
a(Vbeing
p6713
g128
tp6714
aasI1147
(lp6715
sI1148
(lp6716
(lp6717
(Vn't
p6718
g4
tp6719
a(Vclose
p6720
g11
tp6721
aasI1149
(lp6722
sI1150
(lp6723
sI1151
(lp6724
(lp6725
(Val
p6726
g11
tp6727
a(Vcomes
p6728
g47
tp6729
aa(lp6730
(Vgreat
p6731
g11
tp6732
a(Vgame
p6733
g14
tp6734
aa(lp6735
(Vother
p6736
g11
tp6737
a(Vlevels
p6738
g47
tp6739
aasI1152
(lp6740
(lp6741
(Vlovable
p6742
g11
tp6743
a(Vgame
p6744
g14
tp6745
aasI1153
(lp6746
sI1154
(lp6747
sI1155
(lp6748
(lp6749
(Vmore
p6750
g1310
tp6751
a(Vfun
p6752
g11
tp6753
aasI1156
(lp6754
(lp6755
(Vother
p6756
g11
tp6757
a(Vangry
p6758
g14
tp6759
aasI1157
(lp6760
(lp6761
(Vnot
p6762
g4
tp6763
a(Vwork
p6764
g7
tp6765
aasI1158
(lp6766
(lp6767
(VJust
p6768
g4
tp6769
a(Vupdated
p6770
g63
tp6771
aa(lp6772
(Vnew
p6773
g11
tp6774
a(Vlevels
p6775
g47
tp6776
aa(lp6777
(Vnew
p6778
g11
tp6779
a(Vbirds
p6780
g47
tp6781
aasI1159
(lp6782
(lp6783
(VJust
p6784
g4
tp6785
a(Vcurious
p6786
g11
tp6787
aasI1160
(lp6788
(lp6789
(Vcant
p6790
g11
tp6791
a(Vinstall
p6792
g14
tp6793
aasI1161
(lp6794
(lp6795
(Vnot
p6796
g4
tp6797
a(Vable
p6798
g11
tp6799
aa(lp6800
(Vn't
p6801
g4
tp6802
a(Vget
p6803
g7
tp6804
aasI1162
(lp6805
(lp6806
(Valways
p6807
g4
tp6808
a(Vliked
p6809
g156
tp6810
aa(lp6811
(Vtotally
p6812
g4
tp6813
a(Vaddictive
p6814
g11
tp6815
aasI1163
(lp6816
(lp6817
(Vnot
p6818
g4
tp6819
a(Vwork
p6820
g7
tp6821
aasI1164
(lp6822
(lp6823
(Vmuch
p6824
g4
tp6825
a(Vfun
p6826
g63
tp6827
aasI1165
(lp6828
sI1166
(lp6829
sI1167
(lp6830
sI1168
(lp6831
(lp6832
(Vangry
p6833
g11
tp6834
a(Vbirds
p6835
g47
tp6836
aasI1169
(lp6837
sI1170
(lp6838
(lp6839
(Vreally
p6840
g4
tp6841
a(Vgreat
p6842
g11
tp6843
aa(lp6844
g6843
a(Vgame
p6845
g14
tp6846
aasI1171
(lp6847
(lp6848
(Vwell
p6849
g4
tp6850
a(Vworth
p6851
g11
tp6852
aa(lp6853
(VOnce
p6854
g4
tp6855
a(Vcomplete
p6856
g11
tp6857
aa(lp6858
(Vonly
p6859
g4
tp6860
a(Vwant
p6861
g7
tp6862
aa(lp6863
(Voriginal
p6864
g11
tp6865
a(Vtrilogy
p6866
g14
tp6867
aasI1172
(lp6868
(lp6869
(Vsuper-duper
p6870
g11
tp6871
a(Vlightsaber
p6872
g14
tp6873
aasI1173
(lp6874
sI1174
(lp6875
(lp6876
(Vfavorite
p6877
g11
tp6878
a(Vangry
p6879
g14
tp6880
aasI1175
(lp6881
(lp6882
(V.must
p6883
g11
tp6884
a(Vplay
p6885
g14
tp6886
aasI1176
(lp6887
sI1177
(lp6888
sI1178
(lp6889
sI1179
(lp6890
(lp6891
(Vjust
p6892
g4
tp6893
a(Vcompleted
p6894
g156
tp6895
aa(lp6896
(Vnot
p6897
g4
tp6898
a(Vopened
p6899
g63
tp6900
aasI1180
(lp6901
(lp6902
(Vangry
p6903
g11
tp6904
a(Vbirds
p6905
g47
tp6906
aasI1181
(lp6907
sI1182
(lp6908
sI1183
(lp6909
sI1184
(lp6910
sI1185
(lp6911
(lp6912
(Vlight
p6913
g11
tp6914
a(Vsabers
p6915
g47
tp6916
aasI1186
(lp6917
sI1187
(lp6918
sI1188
(lp6919
(lp6920
(Vseveral
p6921
g11
tp6922
a(Vtimes
p6923
g47
tp6924
aa(lp6925
(Vnot
p6926
g4
tp6927
a(Vwork
p6928
g7
tp6929
aa(lp6930
(Vn't
p6931
g4
tp6932
a(Vload
p6933
g7
tp6934
aasI1189
(lp6935
sI1190
(lp6936
(lp6937
(Vgreat
p6938
g11
tp6939
a(Vfun
p6940
g14
tp6941
aa(lp6942
(Vn't
p6943
g4
tp6944
a(Vdowlond
p6945
g7
tp6946
aa(lp6947
(Vn't
p6948
g4
tp6949
a(Vdowlond
p6950
g7
tp6951
aa(lp6952
(Vjust
p6953
g4
tp6954
a(Vdid
p6955
g156
tp6956
aa(lp6957
(Vfirst
p6958
g11
tp6959
a(Vbit
p6960
g14
tp6961
aa(lp6962
(Vlong
p6963
g11
tp6964
a(Vtime
p6965
g14
tp6966
aa(lp6967
(Vso
p6968
g4
tp6969
a(Vgood
p6970
g11
tp6971
aa(lp6972
g6971
a(Vapp
p6973
g14
tp6974
aasI1191
(lp6975
(lp6976
(Vn't
p6977
g4
tp6978
a(Vrate
p6979
g7
tp6980
aa(lp6981
(Vn't
p6982
g4
tp6983
a(Vplay
p6984
g7
tp6985
aa(lp6986
(Vangry
p6987
g11
tp6988
a(Vbirds
p6989
g47
tp6990
aa(lp6991
(Vnot
p6992
g4
tp6993
a(Vnecessary
p6994
g11
tp6995
aasI1192
(lp6996
(lp6997
(Vvery
p6998
g4
tp6999
a(Vfun
p7000
g11
tp7001
aasI1193
(lp7002
(lp7003
(Vnever
p7004
g4
tp7005
a(Vdid
p7006
g156
tp7007
aa(lp7008
(Vthere
p7009
g4
tp7010
a(Vwas
p7011
g156
tp7012
aa(lp7013
(Vimmediately
p7014
g4
tp7015
a(Vdownload
p7016
g156
tp7017
aa(lp7018
(Vnot
p7019
g4
tp7020
a(Vrefuse
p7021
g7
tp7022
aa(lp7023
(Vn't
p7024
g4
tp7025
a(Vwait
p7026
g7
tp7027
aasI1194
(lp7028
(lp7029
(VShockingly
p7030
g4
tp7031
a(Vpoor
p7032
g11
tp7033
aasI1195
(lp7034
(lp7035
(Vwonderful
p7036
g11
tp7037
a(Vabilities
p7038
g47
tp7039
aa(lp7040
(Vonly
p7041
g11
tp7042
a(Vdisappointing
p7043
g11
tp7044
aa(lp7045
g7044
a(Vfactor
p7046
g14
tp7047
aa(lp7048
(Vtrue
p7049
g11
tp7050
a(Vstart
p7051
g14
tp7052
aasI1196
(lp7053
sI1197
(lp7054
(lp7055
(Vreally
p7056
g4
tp7057
a(Vappreciate
p7058
g11
tp7059
aa(lp7060
(Vwhole
p7061
g11
tp7062
a(Vfamily
p7063
g14
tp7064
aa(lp7065
(Vvery
p7066
g4
tp7067
a(Vfair
p7068
g11
tp7069
aa(lp7070
(Vn't
p7071
g4
tp7072
a(Vhave
p7073
g7
tp7074
aa(lp7075
(Vgood
p7076
g11
tp7077
a(Vtime
p7078
g14
tp7079
aa(lp7080
(Vn't
p7081
g4
tp7082
a(Vmake
p7083
g7
tp7084
aa(lp7085
(Voriginal
p7086
g11
tp7087
a(Vangry
p7088
g14
tp7089
aa(lp7090
(Vincredible
p7091
g11
tp7092
a(Vlittle
p7093
g14
tp7094
aasI1198
(lp7095
(lp7096
(Vepic
p7097
g11
tp7098
a(Vintegalactic
p7099
g11
tp7100
aa(lp7101
(Vcomplete
p7102
g11
tp7103
a(Vepisode
p7104
g14
tp7105
aasI1199
(lp7106
(lp7107
(Vvery
p7108
g4
tp7109
a(Vgood
p7110
g11
tp7111
aa(lp7112
(Vlast
p7113
g11
tp7114
a(Vupdate
p7115
g14
tp7116
aasI1200
(lp7117
(lp7118
(Vvery
p7119
g4
tp7120
a(Vmuch
p7121
g11
tp7122
aasI1201
(lp7123
(lp7124
(Vnot
p7125
g4
tp7126
a(Vget
p7127
g7
tp7128
aasI1202
(lp7129
(lp7130
(Vplay
p7131
g14
tp7132
a(Vother
p7133
g11
tp7134
aa(lp7135
g7134
a(Vlevels
p7136
g47
tp7137
aa(lp7138
(Vrich
p7139
g11
tp7140
a(Venough
p7141
g11
tp7142
aa(lp7143
g7142
a(Vcome
p7144
g14
tp7145
aasI1203
(lp7146
sI1204
(lp7147
sI1205
(lp7148
sI1206
(lp7149
sI1207
(lp7150
sI1208
(lp7151
(lp7152
(Vperfect
p7153
g11
tp7154
a(Vstar
p7155
g14
tp7156
aa(lp7157
(Vangry
p7158
g11
tp7159
a(Vbirds
p7160
g47
tp7161
aasI1209
(lp7162
(lp7163
(Vvery
p7164
g4
tp7165
a(Vgood
p7166
g11
tp7167
aa(lp7168
(Vlast
p7169
g11
tp7170
a(Vupdate
p7171
g14
tp7172
aasI1210
(lp7173
(lp7174
(Vplay
p7175
g14
tp7176
a(Vother
p7177
g11
tp7178
aa(lp7179
g7178
a(Vlevels
p7180
g47
tp7181
aa(lp7182
(Vrich
p7183
g11
tp7184
a(Venough
p7185
g11
tp7186
aa(lp7187
g7186
a(Vcome
p7188
g14
tp7189
aasI1211
(lp7190
(lp7191
(Vnot
p7192
g4
tp7193
a(Vget
p7194
g7
tp7195
aasI1212
(lp7196
sI1213
(lp7197
(lp7198
(Vnot
p7199
g4
tp7200
a(Vopen
p7201
g7
tp7202
aa(lp7203
(Vsecond
p7204
g11
tp7205
a(Vtime
p7206
g14
tp7207
aasI1214
(lp7208
sI1215
(lp7209
sI1216
(lp7210
(lp7211
(Valready
p7212
g4
tp7213
a(Vupdated
p7214
g63
tp7215
aasI1217
(lp7216
(lp7217
(Vnext
p7218
g11
tp7219
a(Vplanet
p7220
g14
tp7221
aasI1218
(lp7222
(lp7223
(Vactually
p7224
g4
tp7225
a(Vpay
p7226
g7
tp7227
aa(lp7228
(Vown
p7229
g11
tp7230
a(Vlevels
p7231
g47
tp7232
aa(lp7233
(Vown
p7234
g11
tp7235
a(Vfort
p7236
g14
tp7237
aasI1219
(lp7238
sI1220
(lp7239
sI1221
(lp7240
sI1222
(lp7241
sI1223
(lp7242
(lp7243
(Vnot
p7244
g4
tp7245
a(Vopen
p7246
g7
tp7247
aa(lp7248
(Vsecond
p7249
g11
tp7250
a(Vtime
p7251
g14
tp7252
aasI1224
(lp7253
(lp7254
(Vnext
p7255
g11
tp7256
a(Vlevel
p7257
g14
tp7258
aa(lp7259
(Vnot
p7260
g4
tp7261
a(Vunlock
p7262
g7
tp7263
aasI1225
(lp7264
(lp7265
(Valready
p7266
g4
tp7267
a(Vupdated
p7268
g63
tp7269
aasI1226
(lp7270
(lp7271
(Vnext
p7272
g11
tp7273
a(Vplanet
p7274
g14
tp7275
aasI1227
(lp7276
sI1228
(lp7277
(lp7278
(Vactually
p7279
g4
tp7280
a(Vpay
p7281
g7
tp7282
aa(lp7283
(Vown
p7284
g11
tp7285
a(Vlevels
p7286
g47
tp7287
aa(lp7288
(Vown
p7289
g11
tp7290
a(Vfort
p7291
g14
tp7292
aasI1229
(lp7293
sI1230
(lp7294
(lp7295
(Vawesome
p7296
g14
tp7297
a(Vunbelievable
p7298
g11
tp7299
aasI1231
(lp7300
sI1232
(lp7301
sI1233
(lp7302
(lp7303
(Veven
p7304
g4
tp7305
a(Vopen
p7306
g11
tp7307
aasI1234
(lp7308
sI1235
(lp7309
sI1236
(lp7310
(lp7311
(Vnot
p7312
g4
tp7313
a(Vopen
p7314
g7
tp7315
aa(lp7316
(Vsecond
p7317
g11
tp7318
a(Vtime
p7319
g14
tp7320
aasI1237
(lp7321
(lp7322
(Vnext
p7323
g11
tp7324
a(Vlevel
p7325
g14
tp7326
aa(lp7327
(Vnot
p7328
g4
tp7329
a(Vunlock
p7330
g7
tp7331
aasI1238
(lp7332
(lp7333
(Vnext
p7334
g11
tp7335
a(Vplanet
p7336
g14
tp7337
aasI1239
(lp7338
sI1240
(lp7339
sI1241
(lp7340
(lp7341
(Vawesome
p7342
g14
tp7343
a(Vunbelievable
p7344
g11
tp7345
aasI1242
(lp7346
sI1243
(lp7347
sI1244
(lp7348
sI1245
(lp7349
(lp7350
(Veven
p7351
g4
tp7352
a(Vopen
p7353
g11
tp7354
aasI1246
(lp7355
sI1247
(lp7356
sI1248
(lp7357
sI1249
(lp7358
sI1250
(lp7359
sI1251
(lp7360
(lp7361
(Veven
p7362
g4
tp7363
a(Vopen
p7364
g11
tp7365
aasI1252
(lp7366
sI1253
(lp7367
sI1254
(lp7368
(lp7369
(Vnot
p7370
g4
tp7371
a(Vgood
p7372
g11
tp7373
aa(lp7374
g7373
a(Vfreezes
p7375
g47
tp7376
aasI1255
(lp7377
sI1256
(lp7378
sI1257
(lp7379
sI1258
(lp7380
sI1259
(lp7381
sI1260
(lp7382
sI1261
(lp7383
sI1262
(lp7384
(lp7385
(Vnot
p7386
g4
tp7387
a(Vgood
p7388
g11
tp7389
aa(lp7390
g7389
a(Vfreezes
p7391
g47
tp7392
aasI1263
(lp7393
sI1264
(lp7394
sI1265
(lp7395
sI1266
(lp7396
sI1267
(lp7397
sI1268
(lp7398
sI1269
(lp7399
(lp7400
(Vbird
p7401
g11
tp7402
a(Vpreview
p7403
g14
tp7404
aa(lp7405
(Vmany
p7406
g11
tp7407
a(Vnew
p7408
g11
tp7409
aa(lp7410
g7409
a(Vones
p7411
g47
tp7412
aasI1270
(lp7413
sI1271
(lp7414
sI1272
(lp7415
sI1273
(lp7416
sI1274
(lp7417
(lp7418
(Vnot
p7419
g4
tp7420
a(Vgood
p7421
g11
tp7422
aa(lp7423
g7422
a(Vfreezes
p7424
g47
tp7425
aasI1275
(lp7426
sI1276
(lp7427
(lp7428
(VNot
p7429
g4
tp7430
a(Vhappy
p7431
g11
tp7432
aasI1277
(lp7433
(lp7434
(Vnext
p7435
g11
tp7436
a(Vangry
p7437
g14
tp7438
aasI1278
(lp7439
sI1279
(lp7440
sI1280
(lp7441
sI1281
(lp7442
sI1282
(lp7443
sI1283
(lp7444
sI1284
(lp7445
(lp7446
(VNot
p7447
g4
tp7448
a(Vhappy
p7449
g11
tp7450
aasI1285
(lp7451
(lp7452
(Veasiest
p7453
g11
tp7454
a(Vangry
p7455
g14
tp7456
aasI1286
(lp7457
(lp7458
(Vnext
p7459
g11
tp7460
a(Vangry
p7461
g14
tp7462
aasI1287
(lp7463
sI1288
(lp7464
sI1289
(lp7465
sI1290
(lp7466
sI1291
(lp7467
sI1292
(lp7468
sI1293
(lp7469
sI1294
(lp7470
(lp7471
(VNot
p7472
g4
tp7473
a(Vhappy
p7474
g11
tp7475
aasI1295
(lp7476
(lp7477
(Veasiest
p7478
g11
tp7479
a(Vangry
p7480
g14
tp7481
aasI1296
(lp7482
(lp7483
(Vnext
p7484
g11
tp7485
a(Vangry
p7486
g14
tp7487
aasI1297
(lp7488
sI1298
(lp7489
sI1299
(lp7490
sI1300
(lp7491
sI1301
(lp7492
sI1302
(lp7493
(lp7494
(VAbsolutely
p7495
g4
tp7496
a(Ventertaining
p7497
g128
tp7498
aa(lp7499
(Vcompletely
p7500
g4
tp7501
a(Vhappy
p7502
g11
tp7503
aasI1303
(lp7504
sI1304
(lp7505
(lp7506
(Veasiest
p7507
g11
tp7508
a(Vangry
p7509
g14
tp7510
aasI1305
(lp7511
sI1306
(lp7512
(lp7513
(Vnext
p7514
g11
tp7515
a(Vangry
p7516
g14
tp7517
aasI1307
(lp7518
sI1308
(lp7519
sI1309
(lp7520
sI1310
(lp7521
sI1311
(lp7522
sI1312
(lp7523
sI1313
(lp7524
sI1314
(lp7525
(lp7526
(VAbsolutely
p7527
g4
tp7528
a(Ventertaining
p7529
g128
tp7530
aa(lp7531
(Vcompletely
p7532
g4
tp7533
a(Vhappy
p7534
g11
tp7535
aasI1315
(lp7536
(lp7537
(Vespecially
p7538
g4
tp7539
a(Vlove
p7540
g7
tp7541
aa(lp7542
(Vn't
p7543
g4
tp7544
a(Vlet
p7545
g7
tp7546
aa(lp7547
(VNot
p7548
g4
tp7549
a(Vhappy
p7550
g11
tp7551
aasI1316
(lp7552
(lp7553
(Veasiest
p7554
g11
tp7555
a(Vangry
p7556
g14
tp7557
aasI1317
(lp7558
(lp7559
(Veven
p7560
g4
tp7561
a(Vhave
p7562
g7
tp7563
aasI1318
(lp7564
sI1319
(lp7565
sI1320
(lp7566
(lp7567
(Vn't
p7568
g4
tp7569
a(Vwork
p7570
g7
tp7571
aa(lp7572
(Vfree
p7573
g11
tp7574
a(Vparts
p7575
g47
tp7576
aasI1321
(lp7577
sI1322
(lp7578
sI1323
(lp7579
(lp7580
(VAbsolutely
p7581
g4
tp7582
a(Ventertaining
p7583
g128
tp7584
aa(lp7585
(Vcompletely
p7586
g4
tp7587
a(Vhappy
p7588
g11
tp7589
aasI1324
(lp7590
sI1325
(lp7591
(lp7592
(Vn't
p7593
g4
tp7594
a(Vlet
p7595
g7
tp7596
aasI1326
(lp7597
(lp7598
(Vespecially
p7599
g4
tp7600
a(Vlove
p7601
g7
tp7602
aa(lp7603
(Vn't
p7604
g4
tp7605
a(Vlet
p7606
g7
tp7607
aa(lp7608
(VNot
p7609
g4
tp7610
a(Vhappy
p7611
g11
tp7612
aasI1327
(lp7613
(lp7614
(Veven
p7615
g4
tp7616
a(Vhave
p7617
g7
tp7618
aasI1328
(lp7619
sI1329
(lp7620
sI1330
(lp7621
sI1331
(lp7622
(lp7623
(Vn't
p7624
g4
tp7625
a(Vclose
p7626
g11
tp7627
aa(lp7628
g7627
a(Vads
p7629
g47
tp7630
aasI1332
(lp7631
sI1333
(lp7632
sI1334
(lp7633
(lp7634
(Vn't
p7635
g4
tp7636
a(Vlet
p7637
g7
tp7638
aasI1335
(lp7639
(lp7640
(Vespecially
p7641
g4
tp7642
a(Vlove
p7643
g7
tp7644
aa(lp7645
(Vn't
p7646
g4
tp7647
a(Vlet
p7648
g7
tp7649
aa(lp7650
(VNot
p7651
g4
tp7652
a(Vhappy
p7653
g11
tp7654
aasI1336
(lp7655
(lp7656
(Vother
p7657
g11
tp7658
a(Vangry
p7659
g14
tp7660
aasI1337
(lp7661
sI1338
(lp7662
sI1339
(lp7663
sI1340
(lp7664
(lp7665
(Vfun
p7666
g14
tp7667
a(Vnew
p7668
g11
tp7669
aa(lp7670
g7669
a(Vtrust
p7671
g14
tp7672
aasI1341
(lp7673
sI1342
(lp7674
(lp7675
(Vn't
p7676
g4
tp7677
a(Vlet
p7678
g7
tp7679
aasI1343
(lp7680
sI1344
(lp7681
sI1345
(lp7682
(lp7683
(Vother
p7684
g11
tp7685
a(Vangry
p7686
g14
tp7687
aasI1346
(lp7688
sI1347
(lp7689
(lp7690
(Vnice
p7691
g11
tp7692
a(Vtwist
p7693
g14
tp7694
aasI1348
(lp7695
sI1349
(lp7696
sI1350
(lp7697
(lp7698
(Vnot
p7699
g4
tp7700
a(Vwork
p7701
g7
tp7702
aa(lp7703
(Vother
p7704
g11
tp7705
a(Vdevice
p7706
g14
tp7707
aa(lp7708
(Vnot
p7709
g4
tp7710
a(Vwork
p7711
g7
tp7712
aa(lp7713
(Vother
p7714
g11
tp7715
a(Vdevice
p7716
g14
tp7717
aasI1351
(lp7718
sI1352
(lp7719
sI1353
(lp7720
(lp7721
(Vother
p7722
g11
tp7723
a(Vangry
p7724
g14
tp7725
aasI1354
(lp7726
sI1355
(lp7727
sI1356
(lp7728
(lp7729
(Vnice
p7730
g11
tp7731
a(Vtwist
p7732
g14
tp7733
aasI1357
(lp7734
sI1358
(lp7735
sI1359
(lp7736
sI1360
(lp7737
sI1361
(lp7738
sI1362
(lp7739
(lp7740
(Vnice
p7741
g11
tp7742
a(Vtwist
p7743
g14
tp7744
aasI1363
(lp7745
sI1364
(lp7746
sI1365
(lp7747
sI1366
(lp7748
sI1367
(lp7749
(lp7750
(Vepic
p7751
g11
tp7752
a(Vgame
p7753
g14
tp7754
aasI1368
(lp7755
sI1369
(lp7756
sI1370
(lp7757
sI1371
(lp7758
sI1372
(lp7759
(lp7760
(Vnice
p7761
g11
tp7762
a(Vtwist
p7763
g14
tp7764
aasI1373
(lp7765
sI1374
(lp7766
sI1375
(lp7767
sI1376
(lp7768
sI1377
(lp7769
(lp7770
(Vepic
p7771
g11
tp7772
a(Vgame
p7773
g14
tp7774
aasI1378
(lp7775
sI1379
(lp7776
sI1380
(lp7777
sI1381
(lp7778
sI1382
(lp7779
sI1383
(lp7780
sI1384
(lp7781
sI1385
(lp7782
sI1386
(lp7783
(lp7784
(VTotally
p7785
g4
tp7786
a(Vdifferent
p7787
g11
tp7788
aa(lp7789
g7788
a(Vview
p7790
g14
tp7791
aasI1387
(lp7792
sI1388
(lp7793
sI1389
(lp7794
sI1390
(lp7795
sI1391
(lp7796
sI1392
(lp7797
sI1393
(lp7798
sI1394
(lp7799
sI1395
(lp7800
(lp7801
(VTotally
p7802
g4
tp7803
a(Vdifferent
p7804
g11
tp7805
aa(lp7806
g7805
a(Vview
p7807
g14
tp7808
aasI1396
(lp7809
sI1397
(lp7810
sI1398
(lp7811
sI1399
(lp7812
(lp7813
(Vad
p7814
g14
tp7815
a(Vfree
p7816
g11
tp7817
aa(lp7818
(Vstill
p7819
g4
tp7820
a(Vgetting
p7821
g128
tp7822
aasI1400
(lp7823
sI1401
(lp7824
sI1402
(lp7825
sI1403
(lp7826
(lp7827
(VTotally
p7828
g4
tp7829
a(Vdifferent
p7830
g11
tp7831
aa(lp7832
g7831
a(Vview
p7833
g14
tp7834
aasI1404
(lp7835
sI1405
(lp7836
(lp7837
(VJust
p7838
g4
tp7839
a(Vgot
p7840
g156
tp7841
aasI1406
(lp7842
sI1407
(lp7843
sI1408
(lp7844
sI1409
(lp7845
sI1410
(lp7846
(lp7847
(Vangry
p7848
g11
tp7849
a(Vbirds
p7850
g47
tp7851
aa(lp7852
(Vangry
p7853
g11
tp7854
a(Vbirds
p7855
g47
tp7856
aasI1411
(lp7857
sI1412
(lp7858
(lp7859
(Vad
p7860
g14
tp7861
a(Vfree
p7862
g11
tp7863
aa(lp7864
(Vstill
p7865
g4
tp7866
a(Vgetting
p7867
g128
tp7868
aasI1413
(lp7869
sI1414
(lp7870
sI1415
(lp7871
sI1416
(lp7872
sI1417
(lp7873
(lp7874
(Vmuch
p7875
g4
tp7876
a(Vfun
p7877
g63
tp7878
aasI1418
(lp7879
(lp7880
(VJust
p7881
g4
tp7882
a(Vgot
p7883
g156
tp7884
aasI1419
(lp7885
sI1420
(lp7886
sI1421
(lp7887
sI1422
(lp7888
sI1423
(lp7889
(lp7890
(Vangry
p7891
g11
tp7892
a(Vbirds
p7893
g47
tp7894
aa(lp7895
(Vangry
p7896
g11
tp7897
a(Vbirds
p7898
g47
tp7899
aasI1424
(lp7900
sI1425
(lp7901
sI1426
(lp7902
sI1427
(lp7903
sI1428
(lp7904
(lp7905
(Vmuch
p7906
g4
tp7907
a(Vfun
p7908
g63
tp7909
aasI1429
(lp7910
sI1430
(lp7911
sI1431
(lp7912
sI1432
(lp7913
sI1433
(lp7914
(lp7915
(Vangry
p7916
g11
tp7917
a(Vbirds
p7918
g47
tp7919
aa(lp7920
(Vangry
p7921
g11
tp7922
a(Vbirds
p7923
g47
tp7924
aasI1434
(lp7925
sI1435
(lp7926
sI1436
(lp7927
sI1437
(lp7928
sI1438
(lp7929
(lp7930
(Vmuch
p7931
g4
tp7932
a(Vfun
p7933
g63
tp7934
aasI1439
(lp7935
sI1440
(lp7936
sI1441
(lp7937
(lp7938
(Vnew
p7939
g11
tp7940
a(Vpink
p7941
g14
tp7942
aa(lp7943
(Vpretty
p7944
g4
tp7945
a(Vcool
p7946
g11
tp7947
aa(lp7948
(Vnew
p7949
g11
tp7950
a(Vpower
p7951
g14
tp7952
aasI1442
(lp7953
(lp7954
(V3yr
p7955
g11
tp7956
a(Vold
p7957
g11
tp7958
aa(lp7959
g7958
a(Vgson
p7960
g14
tp7961
aasI1443
(lp7962
(lp7963
(Vvery
p7964
g4
tp7965
a(Vaddicting
p7966
g128
tp7967
aa(lp7968
(Vvery
p7969
g4
tp7970
a(Vnice
p7971
g11
tp7972
aasI1444
(lp7973
sI1445
(lp7974
sI1446
(lp7975
sI1447
(lp7976
sI1448
(lp7977
sI1449
(lp7978
sI1450
(lp7979
(lp7980
(Vnew
p7981
g11
tp7982
a(Vgame
p7983
g14
tp7984
aasI1451
(lp7985
sI1452
(lp7986
sI1453
(lp7987
(lp7988
(Vnew
p7989
g11
tp7990
a(Vpink
p7991
g14
tp7992
aa(lp7993
(Vpretty
p7994
g4
tp7995
a(Vcool
p7996
g11
tp7997
aa(lp7998
(Vnew
p7999
g11
tp8000
a(Vpower
p8001
g14
tp8002
aasI1454
(lp8003
(lp8004
(V3yr
p8005
g11
tp8006
a(Vold
p8007
g11
tp8008
aa(lp8009
g8008
a(Vgson
p8010
g14
tp8011
aasI1455
(lp8012
(lp8013
(Vvery
p8014
g4
tp8015
a(Vaddicting
p8016
g128
tp8017
aa(lp8018
(Vvery
p8019
g4
tp8020
a(Vnice
p8021
g11
tp8022
aasI1456
(lp8023
sI1457
(lp8024
sI1458
(lp8025
sI1459
(lp8026
sI1460
(lp8027
sI1461
(lp8028
(lp8029
(Vnew
p8030
g11
tp8031
a(Vgame
p8032
g14
tp8033
aasI1462
(lp8034
sI1463
(lp8035
(lp8036
(Vn't
p8037
g4
tp8038
a(Vmove
p8039
g7
tp8040
aa(lp8041
(Vsecond
p8042
g11
tp8043
a(Vlevel
p8044
g14
tp8045
aasI1464
(lp8046
sI1465
(lp8047
(lp8048
(Vnew
p8049
g11
tp8050
a(Vpink
p8051
g14
tp8052
aa(lp8053
(Vpretty
p8054
g4
tp8055
a(Vcool
p8056
g11
tp8057
aa(lp8058
(Vnew
p8059
g11
tp8060
a(Vpower
p8061
g14
tp8062
aasI1466
(lp8063
sI1467
(lp8064
(lp8065
(Vvery
p8066
g4
tp8067
a(Vaddicting
p8068
g128
tp8069
aa(lp8070
(Vvery
p8071
g4
tp8072
a(Vnice
p8073
g11
tp8074
aasI1468
(lp8075
sI1469
(lp8076
sI1470
(lp8077
sI1471
(lp8078
sI1472
(lp8079
(lp8080
(Vn't
p8081
g4
tp8082
a(Vmove
p8083
g7
tp8084
aa(lp8085
(Vsecond
p8086
g11
tp8087
a(Vlevel
p8088
g14
tp8089
aasI1473
(lp8090
(lp8091
(Vcharacters
p8092
g47
tp8093
a(Vnew
p8094
g11
tp8095
aasI1474
(lp8096
sI1475
(lp8097
sI1476
(lp8098
sI1477
(lp8099
sI1478
(lp8100
sI1479
(lp8101
sI1480
(lp8102
(lp8103
(Vn't
p8104
g4
tp8105
a(Vmove
p8106
g7
tp8107
aa(lp8108
(Vsecond
p8109
g11
tp8110
a(Vlevel
p8111
g14
tp8112
aasI1481
(lp8113
(lp8114
(Vcharacters
p8115
g47
tp8116
a(Vnew
p8117
g11
tp8118
aasI1482
(lp8119
sI1483
(lp8120
sI1484
(lp8121
sI1485
(lp8122
sI1486
(lp8123
sI1487
(lp8124
sI1488
(lp8125
sI1489
(lp8126
sI1490
(lp8127
sI1491
(lp8128
(lp8129
(Vvery
p8130
g4
tp8131
a(Vaddictive
p8132
g11
tp8133
aa(lp8134
g8133
a(Vgame
p8135
g14
tp8136
aasI1492
(lp8137
sI1493
(lp8138
(lp8139
(Vcharacters
p8140
g47
tp8141
a(Vnew
p8142
g11
tp8143
aasI1494
(lp8144
sI1495
(lp8145
sI1496
(lp8146
sI1497
(lp8147
sI1498
(lp8148
sI1499
(lp8149
sI1500
(lp8150
sI1501
(lp8151
sI1502
(lp8152
(lp8153
(Vnew
p8154
g11
tp8155
a(Vpowers
p8156
g47
tp8157
aasI1503
(lp8158
(lp8159
(Vvery
p8160
g4
tp8161
a(Vaddictive
p8162
g11
tp8163
aa(lp8164
g8163
a(Vgame
p8165
g14
tp8166
aasI1504
(lp8167
sI1505
(lp8168
sI1506
(lp8169
sI1507
(lp8170
sI1508
(lp8171
s.