(dp0
S'5.0'
p1
(lp2
(dp3
S'index'
p4
I1610
sS'title'
p5
S'Awesome'
p6
sS'text'
p7
S'Loved it first time round now i carnt beleve its on my phone. hopefully vice city next'
p8
sa(dp9
g4
I1611
sg5
S'Great on the S3'
p10
sg7
S'Awesome game and port,works excellent on the Galaxy S3 touch controls are good as far as that scheme goes,was amazed as actually runs much smoother than the PS2 version I played all those years ago :-)'
p11
sa(dp12
g4
I1692
sg5
S'Just like ps2!'
p13
sg7
S"Fantastic game, just like it was on consoles! Used to crash a lot on gingerbread (galaxy s2) but since update to Ics, it's been flawless. Very easy and fun to mod, if you're into that stuff."
p14
sa(dp15
g4
I1717
sg5
S'Works great on Galaxy S2 Skyrocket'
p16
sg7
S'OK.  I gotta say the update totally rocks.  Performance is amazing.'
p17
sa(dp18
g4
I1745
sg5
S'Incredible'
p19
sg7
S'This game is unbelievable...Way better than it was for ps2 or psp. Rockstar did an unbelievable job on this game...Samsung galaxy S II'
p20
sa(dp21
g4
I1602
sg5
S'Fizx for crashes'
p22
sg7
S'Having had issues with crashes and no sound, I emailed rockstar and got a reply. If you clear the data, losing your saves, and re download but do not let the device sleep nor click, you should be fine. Worked for me.'
p23
sa(dp24
g4
I1640
sg5
S'Sound Glitch'
p25
sg7
S"No sound. Come on rockstar, you're better than that lol. Fix the problem (like I know you'll do) and this is an instant 5 stars."
p26
sa(dp27
g4
I1662
sg5
S'Best Game for Android'
p28
sg7
S"I got this game thinking it would work fine on an old device. Unfortunately, it did not. So I upgraded, then had instantaneous entertainment right on my tablet. If you're wondering, yes, it has cheat codes, though you need a physical keyboard to enter them. Other than that,  absolutely enjoy this game."
p29
sa(dp30
g4
I1678
sg5
S"It won't work"
p31
sg7
S"I can click on app but it.just flashes the screen then nothing doesn't go into app...maybe my phone but idk... but whatev i got.it for .99 pennies ...save.for when i get tablet... skeet skeet skeet"
p32
sa(dp33
g4
I1748
sg5
S'Tweak your graphics settings!'
p34
sg7
S"Was getting a lot of crashes/force closes on my Galaxy S2. However once I realised that my graphics settings should have been on maximum, I've had no problems at all! Tbh I didn't realise you could tweak them at first. No idea why performance would be worse on lower settings though, but it certainly was the case"
p35
sasS'2.0'
p36
(lp37
(dp38
g4
I1402
sg5
S'Crashes.'
p39
sg7
S'I have HTC one v. Same SoC as xperia play and play store said compatible yet crashes after five minutes on the lowest settings. Lazy port.'
p40
sa(dp41
g4
I1438
sg5
S'Great Game, Horrible Port'
p42
sg7
S"I've tried very hard to enjoy this port, but these bugs are making it INCREDIBLY hard. From audio bugs during melee combat, pause menu glitches that prevent me from even quitting the game or changing the controls, having Claude suddenly start running towards the save house on a grid and not being able to stop, etc.  I can work with the controls, but not the bugs. And no, reinstalling did zilch."
p43
sa(dp44
g4
I1562
sg5
S'Really wished it worked better.'
p45
sg7
S"I have no sound and it keeps lagging if you guys can fix that it'll be great. Game looks awesome though and I'm dying no play it but the lag makes me mad. Please fix it"
p46
sa(dp47
g4
I1591
sg5
S'Crashes and no sound'
p48
sg7
S'Iv been playin the game for a week now and itvwaa fine, i could put up with no sound, however after about 40 seconds of pressing resume game it crashes and turns off, FIX IT! Waste of my money until that problem has been solved'
p49
sa(dp50
g4
I1655
sg5
S'Freezing the phone'
p51
sg7
S'I was really excited when I noticed the 0.97\xa2\xbe price on the game. Bought it and was all really to expel nostalgia out of my pores. Game starts, "oh man,this is so fluid! This is gonna be so awesome!" 1minute in the game stops, no force close request, no buttons respond... had to remove the battery. Tried maybe 5 more times because I really wanted to play it,but had to remove the battery on all of them. Hopefully this will get fixed for my phone. 2stars but hopefully will be able to increase.'
p52
sa(dp53
g4
I1143
sg5
S'One of the best'
p54
sg7
S'Entertaining and fun I always play it. Its worth the money'
p55
sa(dp56
g4
I1144
sg5
S'Love the game but...'
p57
sg7
S"This game is very addicting, but I paid for the game once. I don't want to have to pay for different levels.. once should be enough."
p58
sa(dp59
g4
I1156
sg5
S'Good game.'
p60
sg7
S'I love the game I just hate that I have to totally uninstall it to get the updates. Now I  have to play the whole thing over :-('
p61
sa(dp62
g4
I1158
sg5
S'Eh.'
p63
sg7
S'I love the game. But it never has updates and ive played every level over & over again. needs more asap!'
p64
sa(dp65
g4
I1202
sg5
S'Not happy'
p66
sg7
S"I use to love this game will the free version now since I bought it everytime I beat a level it force closes on me.. It's very lame my four year old daughter won't even play the game anymore and i use to have to pry her hands from my phone just so I can make a phone call... EPIC FAIL!!!"
p67
sasS'1.0'
p68
(lp69
(dp70
g4
I1626
sg5
S'Waste'
p71
sg7
S"No sound. Steal a vechile, the vechie drags right. It's a good thing didn't waste money on the full price thing. Fix the no sound!!!!!"
p72
sa(dp73
g4
I1648
sg5
S'Crap!! Asus tf101'
p74
sg7
S"Constantly freezes and has to do a force close. Don't waste your time time or money, REFUND!!!"
p75
sa(dp76
g4
I1697
sg5
S'Samsung DROID CHARGE CRASH'
p77
sg7
S'THE GAME CRASHES MY DROID CHARGE EVERYTIME WITHIN 5 MINUTES OF GAMEPLAY. Please make it compatible with more Samsung Devices.'
p78
sa(dp79
g4
I1700
sg5
S'Smh'
p80
sg7
S'Its just a black screen fix then i will change the star...for the price it needd to work'
p81
sa(dp82
g4
I1715
sg5
S'Fails to load'
p83
sg7
S'Accept the usage policy and then need to download more files. The fails here and asks if date and time are set correctly.... Wtf Update: now August and still not booting up even after un installs. Very disappointed. I UPDATE: Now October and still no resolution'
p84
sa(dp85
g4
I1193
sg5
S'No more levels?'
p86
sg7
S'Bought the app, and loved it... But recent updates indicate NO LEVELS COMING SOON!!'
p87
sa(dp88
g4
I1196
sg5
S'keeps on crashing'
p89
sg7
S'good game but not stable yet on Samsung handsets'
p90
sa(dp91
g4
I1373
sg5
S"Doesn't run"
p92
sg7
S"I want to give this a high rating because... GTA3 on a smartphone, c'mon... But on my HTC Thunderbolt it frequently crashes, sometimes even during the intro. I'm a little disappointed."
p93
sa(dp94
g4
I1582
sg5
S'Doesnt work'
p95
sg7
S'I bought this for my galaxy tab because it worked greatly on my xperia play, but it kept telling me, " data authorazation error. Is the time on you device set correctly?" does anyone know if i can fix it?'
p96
sa(dp97
g4
I1639
sg5
S'Great game, poor version'
p98
sg7
S"The GTA franchise a great bunch of games. Had this for iPhone and never had any problems. Constantly crashes on this version. Can't seem to play for more than 5 min without it crashing. Poor effort."
p99
sasS'4.0'
p100
(lp101
(dp102
g4
I1565
sg5
S'Good port'
p103
sg7
S"It's a great looking port and controls surprisingly well using just the touch screen. I would give it five stars except that once in a while the controls just stop working for a few seconds. I also get a lot of frame drops after playing it for for a bit no matter what video settings I choose. If those issues are fixed in a future patch I would gladly change my rating to five out of five."
p104
sa(dp105
g4
I1585
sg5
S'Great port but touchscreen buttons should be a little bit bigger'
p106
sg7
S"Awesome game works well my only complaint is that there's no way to change the settings to make the buttons bigger sometimes it can be kind of hard to play. If they could fix that this would be a 5 star app no doubt"
p107
sa(dp108
g4
I1642
sg5
S'Only one problem...'
p109
sg7
S"This game is great, brings back goo memories, but the only reason i didn't give it 5 stars is because there's no sound on my eee pad Asus transformers, please fix and if you do, I'll give u 5 stars. Thank you :-)"
p110
sa(dp111
g4
I1667
sg5
S'Great game with a few bugs.'
p112
sg7
S"Currently the sound isn't working and I ran into some issues whilst trying to save, but nothing game-breaking. Other than that, runs very well on my Evo LTE. Once the sound returns, it'll be 5 stars."
p113
sa(dp114
g4
I1749
sg5
S'What you remember'
p115
sg7
S'Still a great game after all these years. Touch controls work better than expected. My only knock is the background textures. The surroundings look too plain. Get it!'
p116
sa(dp117
g4
I1471
sg5
S'Awesome, but....'
p118
sg7
S"It's so nice to be able to play this classic on my phone. However, the driving controls are buggy. For me, the left and right turn buttons along with the gas will stick and stay on which is extremely frustrating during missions,  especially when its raining. Please fix this! Thanks!"
p119
sa(dp120
g4
I1599
sg5
S"Won't let me save..."
p121
sg7
S'Awesome job works absolutely great on VZW S3. Only one problem I have encountered and that is that when you go to save or even quit without saving the screen goes black and I end up having to hit Home and force close. With a game this size thats a bad bug to have since you have to start over every time you play. Not a big enough problem for me to uninstall/request refund tho just because in all other aspects this is a beautifully made game and plays well. I would request that Rockstar please update and fix.'
p122
sa(dp123
g4
I1646
sg5
S'WTF!'
p124
sg7
S"Would've been great to know I needed to download 11 more files BEFORE paying for this game. It'd also be great if said files didn't take forever to download. KEEPS GOING TO 30% AND GIVING ME AN ERRIR SCREEN."
p125
sa(dp126
g4
I1672
sg5
S'Ok'
p127
sg7
S"Audio is really choppy like there's too much bass really staticy car controls clunky and aiming and fighting controls difficult also update pls....but tis exactly GTA 3 ps2 graffics included but looks great on mobile device still"
p128
sa(dp129
g4
I1740
sg5
S'Great remake!!! Update plz'
p130
sg7
S"The game sometimes freezes and crashes, and after the title Page and intro the sound does not work. And it's not my settings I checked. I have a Motorola razr V and the sound does not work at all after intro."
p131
sasS'3.0'
p132
(lp133
(dp134
g4
I1447
sg5
S'Could be better'
p135
sg7
S"A lot of bugs, can't access menu's a lot of the time, guy gets randomly stuck all the time, with only way to fix is to load a previous save. But it is quite phenomenal to be able to play this on a phone. Runs smooth, controlls are hard to get used to, but that was expected. HTC Amaze 4g"
p136
sa(dp137
g4
I1450
sg5
S'It s good'
p138
sg7
S'Has it on my incredible and it was good buy slow due to single processor. Now I have a bionic and I have no sound but it plays super fast, but sometimes it just stops and closes and I have to start the mission over again from the start.please update'
p139
sa(dp140
g4
I1525
sg5
S'ok....it plays'
p141
sg7
S'just three stars for now. it seems somewhat unstable, but after a reboot played and didnt crash. as it loads new areas, people, etc, it stutters quite a bit on my tf300t, but is pretty playable. If you could smooth out the caching issues and the stuttering, id give it 5 stars because it does play really well.'
p142
sa(dp143
g4
I1576
sg5
S'Great game but poorly developed'
p144
sg7
S"Ok so I love the game. But it keeps crashing and I don't get any sound apart from the rockstar bit when you open the game. Please update and fix!!"
p145
sa(dp146
g4
I1605
sg5
S'Gotta tweek the gameplay.'
p147
sg7
S"Game graphics is awesome but shooting is slow, inverted aiming is on when it is off, the steering on analog doesn't work properly and the sniper doesn't  move as fast as a console game play. It's a challenge just to accelerate at a normal speed. Hats off to Rockstar to get this game out there. Just tweek it a little. Hope to see GTA 5 on the market."
p148
sa(dp149
g4
I1524
sg5
S'Accelerometer issue on smartphones'
p150
sg7
S'Accelerometer steering is not working on smartphones.  Seriously there must be millions of users who play this on their smartphones. Still rockstar cannot fix cannot fix an issue they know about.  If they would happen to fix it this game would be 5 stars.'
p151
sa(dp152
g4
I1550
sg5
S'Meh'
p153
sg7
S"Plays great for awhile, then gets real glitchy. Buttons stop functioning correctly, mostly. Moving by foot isn't steady and you often have to stop and start again. Not quite worth the money yet, hopefully an update soon fixes these issues. - Motorola Photon"
p154
sa(dp155
g4
I1645
sg5
S'There are always issues'
p156
sg7
S"Game is good, just like you remember, but controls lack precision, impossible to aim, driving is difficult with touch screen controls, even with analog setting on.  The biggest flaw I found so far is in the menu options.  When attempting to save, you can tap on the slot you want to save, but nothing happens.  And sometimes the screen will be blank, with the background present, but you can't see what you are selecting, this doesn't really matter because selecting something does nothing.  Please fix this."
p157
sa(dp158
g4
I1735
sg5
S'Not happy'
p159
sg7
S"Game is very fun but extremely glitchy. Major problems when trying to pause a game. Always freezes up on window. Almost don't want to even open the game due to this issue, have to restart phone to get game to quit."
p160
sa(dp161
g4
I1744
sg5
S'Needs a little work'
p162
sg7
S"Constant force close issues, I try to do the first mission for the auto guy, but when I start shooting, it closes, and when I'm driving, it will just close. Please fix, I really enjoy this game. Fix and I will give 5 starts no doubt"
p163
sas.