(dp0
I0
(lp1
(lp2
(Vn't
p3
S'RB'
p4
tp5
a(Vcuz
p6
S'VB'
p7
tp8
aa(lp9
(Vvery
p10
S'JJ'
p11
tp12
a(Vannoying
p13
S'NN'
p14
tp15
aasI1
(lp16
(lp17
(V-step
p18
g11
tp19
a(Vrequirement
p20
g14
tp21
aa(lp22
(Vthen
p23
g4
tp24
a(Vexit
p25
g7
tp26
aa(lp27
(Vonly
p28
g4
tp29
a(Vtake
p30
g7
tp31
aa(lp32
(Vnot
p33
g4
tp34
a(Vlet
p35
g7
tp36
aasI2
(lp37
(lp38
(Vvery
p39
g4
tp40
a(Vgood
p41
g11
tp42
aa(lp43
(Vprevious
p44
g11
tp45
a(Vgames
p46
S'NNS'
p47
tp48
aa(lp49
(Va
p50
S'DT'
p51
tp52
a(Vdifferent
p53
g11
tp54
aa(lp55
g54
a(Vtwist
p56
g14
tp57
aa(lp58
(Vn't
p59
g4
tp60
a(Vbeat
p61
g7
tp62
aa(lp63
(Vvery
p64
g4
tp65
a(Vfun
p66
S'VBN'
p67
tp68
aasI3
(lp69
(lp70
(Vn't
p71
g4
tp72
a(Vcuz
p73
g7
tp74
aa(lp75
(Vvery
p76
g11
tp77
a(Vannoying
p78
g14
tp79
aasI4
(lp80
(lp81
(V-step
p82
g11
tp83
a(Vrequirement
p84
g14
tp85
aa(lp86
(Vthen
p87
g4
tp88
a(Vexit
p89
g7
tp90
aa(lp91
(Vonly
p92
g4
tp93
a(Vtake
p94
g7
tp95
aa(lp96
(Vnot
p97
g4
tp98
a(Vlet
p99
g7
tp100
aasI5
(lp101
(lp102
(Vvery
p103
g4
tp104
a(Vgood
p105
g11
tp106
aa(lp107
(Vprevious
p108
g11
tp109
a(Vgames
p110
g47
tp111
aa(lp112
(g50
g51
tp113
a(Vdifferent
p114
g11
tp115
aa(lp116
g115
a(Vtwist
p117
g14
tp118
aa(lp119
(Vn't
p120
g4
tp121
a(Vbeat
p122
g7
tp123
aa(lp124
(Vvery
p125
g4
tp126
a(Vfun
p127
g67
tp128
aasI6
(lp129
(lp130
(Vpretty
p131
g4
tp132
a(Vfreaking
p133
S'VBG'
p134
tp135
aa(lp136
(Vsomething
p137
g14
tp138
a(Vnew
p139
g11
tp140
aasI7
(lp141
(lp142
(VReally
p143
g4
tp144
a(Vloving
p145
g134
tp146
aa(lp147
(Vso
p148
g4
tp149
a(Vcool
p150
g11
tp151
aasI8
(lp152
(lp153
(Vangry
p154
g11
tp155
a(Vbirds
p156
g47
tp157
aa(lp158
(Veventually
p159
g4
tp160
a(Vgot
p161
S'VBD'
p162
tp163
aa(lp164
(Vthe
p165
g51
tp166
a(Vbest
p167
S'JJS'
p168
tp169
aa(lp170
(Vnext
p171
g11
tp172
a(Vupdate
p173
g14
tp174
aasI9
(lp175
(lp176
(g50
g51
tp177
a(Vgood
p178
g11
tp179
aa(lp180
g179
a(Vangry
p181
g14
tp182
aasI10
(lp183
(lp184
(Vlast
p185
g11
tp186
a(Vupdate
p187
g14
tp188
aa(lp189
(Vnot
p190
g4
tp191
a(Vopen
p192
g7
tp193
aasI11
(lp194
(lp195
(Vthe
p196
g51
tp197
a(Vsame
p198
g11
tp199
aa(lp200
g199
a(Vresult
p201
g14
tp202
aasI12
(lp203
sI13
(lp204
sI14
(lp205
(lp206
(Vmost
p207
S'RBS'
p208
tp209
a(Vinteresting
p210
g11
tp211
aasI15
(lp212
sI16
(lp213
sI17
(lp214
sI18
(lp215
sI19
(lp216
sI20
(lp217
(lp218
(Vstill
p219
g4
tp220
a(Vawful
p221
g11
tp222
aa(lp223
(g50
g51
tp224
a(Vlow
p225
g11
tp226
aa(lp227
g226
a(Vrate
p228
g14
tp229
aasI21
(lp230
(lp231
(VBrilliant
p232
g11
tp233
a(V!
p234
g14
tp235
aa(lp236
(VBrilliant
p237
g11
tp238
a(Vagain
p239
g14
tp240
aasI22
(lp241
(lp242
(Vn't
p243
g4
tp244
a(Vplay
p245
g7
tp246
aa(lp247
(Vthe
p248
g51
tp249
a(Vfirst
p250
g11
tp251
aasI23
(lp252
(lp253
(Vreluctantly
p254
g4
tp255
a(Vspent
p256
g162
tp257
aa(lp258
(Vnever
p259
g4
tp260
a(Vshowed
p261
g162
tp262
aa(lp263
(Vnever
p264
g4
tp265
a(Vgot
p266
g162
tp267
aasI24
(lp268
(lp269
(Vvery
p270
g4
tp271
a(Vaddictive
p272
g11
tp273
aa(lp274
(Vvery
p275
g4
tp276
a(Vfun
p277
g11
tp278
aasI25
(lp279
sI26
(lp280
sI27
(lp281
(lp282
(Vthe
p283
g51
tp284
a(Vclassic
p285
g11
tp286
aa(lp287
g286
a(Vcharacters
p288
g47
tp289
aasI28
(lp290
(lp291
(Vn't
p292
g4
tp293
a(Vhave
p294
g7
tp295
aasI29
(lp296
(lp297
(VReally
p298
g4
tp299
a(Vfun
p300
g67
tp301
aasI30
(lp302
sI31
(lp303
(lp304
(Vthe
p305
g51
tp306
a(Vbest
p307
g168
tp308
aasI32
(lp309
(lp310
(Vis
p311
S'VBZ'
p312
tp313
a(Vsuch
p314
g11
tp315
aa(lp316
(Van
p317
g51
tp318
a(Ventertaining
p319
g11
tp320
aa(lp321
g320
a(Vgame
p322
g14
tp323
aa(lp324
(Vis
p325
g312
tp326
a(Vgreat
p327
g11
tp328
aa(lp329
(VAnother
p330
g51
tp331
a(Vgreat
p332
g11
tp333
aasI33
(lp334
sI34
(lp335
(lp336
(Vn't
p337
g4
tp338
a(Vget
p339
g7
tp340
aa(lp341
(g50
g51
tp342
a(Vblack
p343
g11
tp344
aasI35
(lp345
(lp346
(Vangry
p347
g11
tp348
a(Vbirds
p349
g47
tp350
aa(lp351
(Vnot
p352
g4
tp353
a(Vusing
p354
g134
tp355
aasI36
(lp356
(lp357
(Vown
p358
g11
tp359
a(Vspin
p360
g14
tp361
aasI37
(lp362
(lp363
(V's
p364
g312
tp365
a(Vnext
p366
g11
tp367
aa(lp368
g367
a(Vangry
p369
g14
tp370
aasI38
(lp371
(lp372
(Vangry
p373
g11
tp374
a(Vbirds
p375
g47
tp376
aa(lp377
(Vthe
p378
g51
tp379
a(Vbest
p380
g168
tp381
aasI39
(lp382
(lp383
(Vn't
p384
g4
tp385
a(Vdisappointed
p386
g67
tp387
aasI40
(lp388
(lp389
(VThe
p390
g51
tp391
a(Vbest
p392
g168
tp393
aasI41
(lp394
(lp395
(Vhard
p396
g4
tp397
a(Vmost
p398
g168
tp399
aa(lp400
(Vtoo
p401
g4
tp402
a(Vbig
p403
g11
tp404
aasI42
(lp405
(lp406
(Vvery
p407
g4
tp408
a(Vcute
p409
g11
tp410
aa(lp411
(Vvarious
p412
g11
tp413
a(Vfeatures
p414
g47
tp415
aa(lp416
(Vthe
p417
g51
tp418
a(Vprevious
p419
g11
tp420
aa(lp421
g420
a(Vgames
p422
g47
tp423
aasI43
(lp424
(lp425
(g50
g51
tp426
a(Vbig
p427
g11
tp428
aa(lp429
g428
a(Vboss
p430
g14
tp431
aa(lp432
(Vdarth
p433
g11
tp434
a(Vpig
p435
g14
tp436
aasI44
(lp437
(lp438
(Vfunny
p439
g11
tp440
a(Vstar
p441
g14
tp442
aasI45
(lp443
(lp444
(Vbrings
p445
g312
tp446
a(Vmany
p447
g11
tp448
aa(lp449
g448
a(Vfresh
p450
g11
tp451
aa(lp452
(Venjoyable
p453
g11
tp454
a(Videas
p455
g47
tp456
aa(lp457
(Vthe
p458
g51
tp459
a(Vbest
p460
g168
tp461
aasI46
(lp462
(lp463
(Vreally
p464
g4
tp465
a(Vexcited
p466
g67
tp467
aa(lp468
(Veven
p469
g4
tp470
a(Vload
p471
g7
tp472
aa(lp473
(Vn't
p474
g4
tp475
a(Vplay
p476
g7
tp477
aa(lp478
(Vthe
p479
g51
tp480
a(Vfull
p481
g11
tp482
aa(lp483
g482
a(Vgame
p484
g14
tp485
aa(lp486
(Vn't
p487
g4
tp488
a(Vshow
p489
g7
tp490
aasI47
(lp491
sI48
(lp492
(lp493
(Vaboslutly
p494
g4
tp495
a(Vamazing
p496
g134
tp497
aa(lp498
(Vlittle
p499
g4
tp500
a(Vanoying
p501
g134
tp502
aa(lp503
(Voverall
p504
g11
tp505
a(Vgreat
p506
g11
tp507
aasI49
(lp508
(lp509
(Vn't
p510
g4
tp511
a(Vgon
p512
g7
tp513
aa(lp514
(VNOT
p515
g4
tp516
a(Vdisappointed
p517
g67
tp518
aasI50
(lp519
(lp520
(g50
g51
tp521
a(Vhuge
p522
g11
tp523
aa(lp524
g523
a(Vhelp
p525
g14
tp526
aasI51
(lp527
(lp528
(Vads
p529
g47
tp530
a(Vfree
p531
g11
tp532
aa(lp533
(Vn't
p534
g4
tp535
a(Vunlock
p536
g7
tp537
aa(lp538
(Valso
p539
g4
tp540
a(Vhappened
p541
g162
tp542
aa(lp543
(g50
g51
tp544
a(Vgood
p545
g11
tp546
aa(lp547
g546
a(Vgame
p548
g14
tp549
aa(lp550
(VMore
p551
S'JJR'
p552
tp553
a(Vcontent
p554
g14
tp555
aasI52
(lp556
(lp557
(Vpretty
p558
g4
tp559
a(Vsweet
p560
g11
tp561
aasI53
(lp562
(lp563
(Vthe
p564
g51
tp565
a(Vnew
p566
g11
tp567
aasI54
(lp568
(lp569
(Vthe
p570
g51
tp571
a(V2nd
p572
g11
tp573
aa(lp574
g573
a(Vbest
p575
g168
tp576
aa(lp577
g576
a(Vgame
p578
g14
tp579
aa(lp580
(Vthe
p581
g51
tp582
a(Voriginal
p583
g11
tp584
aa(lp585
g584
a(Vangry
p586
g14
tp587
aa(lp588
(Vangry
p589
g11
tp590
a(Vbird
p591
g14
tp592
aa(lp593
(Vquite
p594
g4
tp595
a(Vgood
p596
g11
tp597
aasI55
(lp598
(lp599
(Vgoes
p600
g312
tp601
a(Vblack
p602
g11
tp603
aa(lp604
(Vn't
p605
g4
tp606
a(Vwork
p607
g7
tp608
aa(lp609
(Vthe
p610
g51
tp611
a(Vsame
p612
g11
tp613
aa(lp614
g613
a(Vthing
p615
g14
tp616
aa(lp617
(Vnewest
p618
g168
tp619
a(Vupdate
p620
g14
tp621
aasI56
(lp622
(lp623
(Vnot
p624
g4
tp625
a(Vworking
p626
g134
tp627
aa(lp628
(Vgives
p629
g312
tp630
a(Vblack
p631
g11
tp632
aa(lp633
g632
a(Vscreen
p634
g14
tp635
aa(lp636
(Vthe
p637
g51
tp638
a(Vsame
p639
g11
tp640
aa(lp641
(Vn't
p642
g4
tp643
a(Vexist
p644
g7
tp645
aasI57
(lp646
(lp647
(Vwhoever
p648
g552
tp649
a(Vowns
p650
g47
tp651
aasI58
(lp652
(lp653
(VAbsolutely
p654
g4
tp655
a(Vamazing
p656
g134
tp657
aasI59
(lp658
(lp659
(Vfirst
p660
g11
tp661
a(Vlevel
p662
g14
tp663
aasI60
(lp664
(lp665
(Vn't
p666
g4
tp667
a(Vopen
p668
g7
tp669
aa(lp670
(V.I
p671
g11
tp672
a(Vneeeeed
p673
g14
tp674
aasI61
(lp675
(lp676
(Vangry
p677
g11
tp678
a(Vbirds
p679
g47
tp680
aasI62
(lp681
(lp682
(Vnot
p683
g4
tp684
a(Vwork
p685
g7
tp686
aasI63
(lp687
(lp688
(Vnot
p689
g4
tp690
a(Vdownload
p691
g7
tp692
aa(lp693
(Vis
p694
g312
tp695
a(Vincompatible
p696
g11
tp697
aa(lp698
(VNow
p699
g4
tp700
a(Vcompatible
p701
g11
tp702
aasI64
(lp703
sI65
(lp704
(lp705
(Vhardly
p706
g4
tp707
a(Vget
p708
g7
tp709
aasI66
(lp710
sI67
(lp711
(lp712
(Vthe
p713
g51
tp714
a(Vnew
p715
g11
tp716
aa(lp717
g716
a(Vupdate
p718
g14
tp719
aa(lp720
(Vblack
p721
g11
tp722
a(Vsquares
p723
g47
tp724
aa(lp725
(Vthe
p726
g51
tp727
a(Vactual
p728
g11
tp729
aa(lp730
g729
a(Vgraphics
p731
g47
tp732
aasI68
(lp733
(lp734
(Vn't
p735
g4
tp736
a(Vsay
p737
g7
tp738
aa(lp739
(Venough
p740
g11
tp741
a(Vgood
p742
g11
tp743
aa(lp744
g743
a(Vthings
p745
g47
tp746
aasI69
(lp747
(lp748
(Vn't
p749
g4
tp750
a(Vwant
p751
g7
tp752
aasI70
(lp753
sI71
(lp754
sI72
(lp755
(lp756
(Vis
p757
g312
tp758
a(Vepic
p759
g11
tp760
aa(lp761
(Vis
p762
g312
tp763
a(Vfantastic
p764
g11
tp765
aasI73
(lp766
sI74
(lp767
(lp768
(VBest
p769
g168
tp770
a(Vangry
p771
g14
tp772
aasI75
(lp773
(lp774
(Vvery
p775
g4
tp776
a(Vstrategic
p777
g11
tp778
aa(lp779
g778
a(Vturn
p780
g14
tp781
aa(lp782
(Vonly
p783
g4
tp784
a(Vthrilled
p785
g67
tp786
aa(lp787
(Vthe
p788
g51
tp789
a(Vyoung
p790
g11
tp791
aa(lp792
g791
a(Vones
p793
g47
tp794
aa(lp795
(Vthe
p796
g51
tp797
a(Vold
p798
g11
tp799
aa(lp800
g799
a(Vdogs
p801
g47
tp802
aa(lp803
(Vvery
p804
g4
tp805
a(Vintuitive
p806
g11
tp807
aa(lp808
g807
a(Vgameplay
p809
g14
tp810
aasI76
(lp811
(lp812
(Vrandomly
p813
g4
tp814
a(Vhave
p815
g7
tp816
aa(lp817
(Vthe
p818
g51
tp819
a(Ventire
p820
g11
tp821
aa(lp822
g821
a(Vlevel
p823
g14
tp824
aa(lp825
(Vonly
p826
g4
tp827
a(Vshot
p828
g11
tp829
aasI77
(lp830
(lp831
(Vn't
p832
g4
tp833
a(Vthink
p834
g7
tp835
aa(lp836
(Vstill
p837
g4
tp838
a(Vbe
p839
g7
tp840
aa(lp841
(Vmuch
p842
g4
tp843
a(Vfun
p844
g67
tp845
aa(lp846
(Vthe
p847
g51
tp848
a(Vbest
p849
g168
tp850
aa(lp851
(V's
p852
g312
tp853
a(Vgreat
p854
g11
tp855
aa(lp856
g855
a(Vfun
p857
g14
tp858
aasI78
(lp859
(lp860
(Vn't
p861
g4
tp862
a(Vgo
p863
g7
tp864
aa(lp865
(Vthe
p866
g51
tp867
a(Vbest
p868
g168
tp869
aasI79
(lp870
(lp871
(Vreally
p872
g4
tp873
a(Vdid
p874
g162
tp875
aa(lp876
(Vmost
p877
g208
tp878
a(Ventertaining
p879
g11
tp880
aasI80
(lp881
(lp882
(Vso
p883
g4
tp884
a(VAMAZING
p885
g134
tp886
aa(lp887
(Vso
p888
g4
tp889
a(Vinterested
p890
g11
tp891
aasI81
(lp892
(lp893
(Vn't
p894
g4
tp895
a(Vdownload
p896
g7
tp897
aa(lp898
(Vn't
p899
g4
tp900
a(Vwork
p901
g7
tp902
aa(lp903
(Vthe
p904
g51
tp905
a(Vadd
p906
g11
tp907
aasI82
(lp908
sI83
(lp909
(lp910
(Vthe
p911
g51
tp912
a(Vtop
p913
g11
tp914
aasI84
(lp915
(lp916
(Vwars
p917
g312
tp918
a(Vangry
p919
g11
tp920
aa(lp921
g920
a(Vbirds
p922
g47
tp923
aa(lp924
(Vthe
p925
g51
tp926
a(Vcoolest
p927
g168
tp928
aa(lp929
g928
a(Vapp
p930
g14
tp931
aa(lp932
(Vjust
p933
g4
tp934
a(Vgot
p935
g162
tp936
aa(lp937
(Vmore
p938
g552
tp939
a(Vboards
p940
g47
tp941
aasI85
(lp942
sI86
(lp943
(lp944
(Vangry
p945
g11
tp946
a(Vbirds
p947
g47
tp948
aasI87
(lp949
(lp950
(V's
p951
g312
tp952
a(Vdifficult
p953
g11
tp954
aa(lp955
(Vfresh
p956
g11
tp957
a(V'another
p958
g11
tp959
aa(lp960
(g50
g51
tp961
a(Vfresh
p962
g11
tp963
aa(lp964
g963
a(Vtake
p965
g14
tp966
aasI88
(lp967
(lp968
(VReally
p969
g4
tp970
a(Vfun
p971
g67
tp972
aasI89
(lp973
(lp974
(Vnew
p975
g11
tp976
a(Vtheme
p977
g14
tp978
aa(lp979
(Vexciting
p980
g11
tp981
a(Vnew
p982
g11
tp983
aa(lp984
g983
a(Vabilities
p985
g47
tp986
aa(lp987
(Vn't
p988
g4
tp989
a(Vstop
p990
g7
tp991
aasI90
(lp992
(lp993
(VBrilliant
p994
g11
tp995
a(Vgameplay
p996
g14
tp997
aa(lp998
(Vwell
p999
g4
tp1000
a(Vintergrated
p1001
g67
tp1002
aa(lp1003
(Vtoo
p1004
g4
tp1005
a(Vcheesey
p1006
g11
tp1007
aasI91
(lp1008
(lp1009
(Vn't
p1010
g4
tp1011
a(Vknow
p1012
g7
tp1013
aa(lp1014
(Vthe
p1015
g51
tp1016
a(Vlast
p1017
g11
tp1018
aa(lp1019
g1018
a(Vangry
p1020
g14
tp1021
aa(lp1022
(Vever
p1023
g4
tp1024
a(Vbe
p1025
g7
tp1026
aasI92
(lp1027
(lp1028
(Vthe
p1029
g51
tp1030
a(Vbest
p1031
g168
tp1032
aa(lp1033
g1032
a(Vangry
p1034
g14
tp1035
aa(lp1036
(Vthe
p1037
g51
tp1038
a(Vbest
p1039
g168
tp1040
aa(lp1041
g1040
a(Vmobile
p1042
g11
tp1043
aa(lp1044
g1043
a(Vgame
p1045
g14
tp1046
aa(lp1047
(Vthe
p1048
g51
tp1049
a(Vwhole
p1050
g11
tp1051
aa(lp1052
g1051
a(Vyear
p1053
g14
tp1054
aasI93
(lp1055
sI94
(lp1056
(lp1057
(Vis
p1058
g312
tp1059
a(Vgreat
p1060
g11
tp1061
aa(lp1062
(Vthe
p1063
g51
tp1064
a(Vnew
p1065
g11
tp1066
aa(lp1067
g1066
a(Vlevels
p1068
g47
tp1069
aasI95
(lp1070
(lp1071
(Vinternal
p1072
g11
tp1073
a(Vmemory
p1074
g14
tp1075
aa(lp1076
(Vdownload
p1077
g11
tp1078
a(Vangry
p1079
g14
tp1080
aa(lp1081
(Vthe
p1082
g51
tp1083
a(Voriginal
p1084
g11
tp1085
aa(lp1086
g1085
a(Vangry
p1087
g14
tp1088
aasI96
(lp1089
(lp1090
(Vthe
p1091
g51
tp1092
a(Vunlockable
p1093
g11
tp1094
aa(lp1095
g1094
a(Varea
p1096
g14
tp1097
aa(lp1098
(Vnot
p1099
g4
tp1100
a(Vaccess
p1101
g7
tp1102
aasI97
(lp1103
(lp1104
(Vn't
p1105
g4
tp1106
a(Vknow
p1107
g7
tp1108
aasI98
(lp1109
(lp1110
(Vthe
p1111
g51
tp1112
a(Vextra
p1113
g11
tp1114
aa(lp1115
g1114
a(Vmissions
p1116
g47
tp1117
aa(lp1118
(Vnot
p1119
g4
tp1120
a(Vget
p1121
g7
tp1122
aa(lp1123
(Vextra
p1124
g11
tp1125
a(Vlevels
p1126
g47
tp1127
aa(lp1128
(VOtherwise
p1129
g4
tp1130
a(Vgreat
p1131
g11
tp1132
aa(lp1133
g1132
a(Vgame
p1134
g14
tp1135
aa(lp1136
(Vjust
p1137
g4
tp1138
a(Vrocking
p1139
g134
tp1140
aasI99
(lp1141
(lp1142
(Vfinally
p1143
g4
tp1144
a(Vchanged
p1145
g162
tp1146
aa(lp1147
(Vthe
p1148
g51
tp1149
a(Vsmallest
p1150
g168
tp1151
aa(lp1152
g1151
a(Vbuttons
p1153
g47
tp1154
aa(lp1155
(Vnormal
p1156
g11
tp1157
a(Vsized
p1158
g11
tp1159
aa(lp1160
g1159
a(Vbuttons
p1161
g47
tp1162
aasI100
(lp1163
(lp1164
(Vso
p1165
g4
tp1166
a(Vintrusive
p1167
g11
tp1168
aa(lp1169
(Vthe
p1170
g51
tp1171
a(Vbest
p1172
g168
tp1173
aa(lp1174
g1173
a(Vangry
p1175
g14
tp1176
aasI101
(lp1177
sI102
(lp1178
sI103
(lp1179
sI104
(lp1180
(lp1181
(Vn't
p1182
g4
tp1183
a(Vfinish
p1184
g7
tp1185
aa(lp1186
(V's
p1187
g312
tp1188
a(Vinvalid
p1189
g11
tp1190
aasI105
(lp1191
sI106
(lp1192
(lp1193
(Vvisually
p1194
g4
tp1195
a(Vnoisy
p1196
g11
tp1197
aa(lp1198
g1197
a(Vad
p1199
g14
tp1200
aa(lp1201
(Vnot
p1202
g4
tp1203
a(Vbe
p1204
g7
tp1205
aasI107
(lp1206
(lp1207
(Vbad
p1208
g11
tp1209
a(Vpiggies
p1210
g47
tp1211
aasI108
(lp1212
sI109
(lp1213
(lp1214
(Vvery
p1215
g4
tp1216
a(Vaddictive
p1217
g11
tp1218
aasI110
(lp1219
(lp1220
(Vn't
p1221
g4
tp1222
a(Vstop
p1223
g7
tp1224
aasI111
(lp1225
sI112
(lp1226
(lp1227
(Vnot
p1228
g4
tp1229
a(Vallowing
p1230
g134
tp1231
aa(lp1232
(VOnce
p1233
g4
tp1234
a(Vcorrected
p1235
g162
tp1236
aa(lp1237
(Vdefinitely
p1238
g4
tp1239
a(Vbe
p1240
g7
tp1241
aasI113
(lp1242
(lp1243
(Vthe
p1244
g51
tp1245
a(Vmost
p1246
g168
tp1247
aa(lp1248
(V's
p1249
g312
tp1250
a(Vcompatible
p1251
g11
tp1252
aasI114
(lp1253
(lp1254
(Vmany
p1255
g11
tp1256
a(Vothers
p1257
g47
tp1258
aa(lp1259
(Vthe
p1260
g51
tp1261
a(Vother
p1262
g11
tp1263
aa(lp1264
g1263
a(Vlevel
p1265
g14
tp1266
aa(lp1267
(Vnot
p1268
g4
tp1269
a(Vgain
p1270
g7
tp1271
aasI115
(lp1272
(lp1273
(VNot
p1274
g4
tp1275
a(Vmany
p1276
g11
tp1277
aa(lp1278
g1277
a(Vlevels
p1279
g47
tp1280
aa(lp1281
(Vreally
p1282
g4
tp1283
a(Vdifferent
p1284
g11
tp1285
aa(lp1286
(VNot
p1287
g4
tp1288
a(Vworth
p1289
g11
tp1290
aa(lp1291
(VReally
p1292
g4
tp1293
a(Vdisappointed
p1294
g67
tp1295
aa(lp1296
(VEven
p1297
g4
tp1298
a(Vpurchased
p1299
g67
tp1300
aasI116
(lp1301
(lp1302
(Vthe
p1303
g51
tp1304
a(Vgreen
p1305
g11
tp1306
aa(lp1307
g1306
a(Vlight
p1308
g14
tp1309
aa(lp1310
(Vnot
p1311
g4
tp1312
a(Vther
p1313
g552
tp1314
aasI117
(lp1315
(lp1316
(Vn't
p1317
g4
tp1318
a(Vever
p1319
g7
tp1320
aa(lp1321
(Vthe
p1322
g51
tp1323
a(Vbest
p1324
g168
tp1325
aa(lp1326
g1325
a(Vrepresentation
p1327
g14
tp1328
aa(lp1329
(Vtime
p1330
g14
tp1331
a(Vgreat
p1332
g11
tp1333
aasI118
(lp1334
(lp1335
(Vn't
p1336
g4
tp1337
a(Vhave
p1338
g7
tp1339
aa(lp1340
(Venough
p1341
g11
tp1342
a(Vspace
p1343
g14
tp1344
aasI119
(lp1345
(lp1346
(VThe
p1347
g51
tp1348
a(Vnew
p1349
g11
tp1350
aa(lp1351
g1350
a(Vangry
p1352
g14
tp1353
aa(lp1354
(Vthe
p1355
g51
tp1356
a(Vbest
p1357
g168
tp1358
aasI120
(lp1359
(lp1360
(Vnot
p1361
g4
tp1362
a(Vaccepted
p1363
g67
tp1364
aa(lp1365
(Vthen
p1366
g4
tp1367
a(Vreload
p1368
g7
tp1369
aa(lp1370
(Vthe
p1371
g51
tp1372
a(Vsame
p1373
g11
tp1374
aa(lp1375
(Vthe
p1376
g51
tp1377
a(Vlast
p1378
g11
tp1379
aa(lp1380
g1379
a(Vapp
p1381
g14
tp1382
aa(lp1383
(Valso
p1384
g4
tp1385
a(Vtask
p1386
g7
tp1387
aasI121
(lp1388
sI122
(lp1389
sI123
(lp1390
(lp1391
(Vtotally
p1392
g4
tp1393
a(Vmessed
p1394
g162
tp1395
aa(lp1396
(Vhas
p1397
g312
tp1398
a(Vdisappear
p1399
g11
tp1400
aa(lp1401
(Vreally
p1402
g4
tp1403
a(Vupset
p1404
g67
tp1405
aasI124
(lp1406
(lp1407
(Van
p1408
g51
tp1409
a(Vinnovative
p1410
g11
tp1411
aa(lp1412
g1411
a(Vtheme
p1413
g14
tp1414
aa(lp1415
(Vthe
p1416
g51
tp1417
a(Voriginal
p1418
g11
tp1419
aa(lp1420
g1419
a(Vbird-slinging
p1421
g11
tp1422
aa(lp1423
g1422
a(Vgame
p1424
g14
tp1425
aa(lp1426
(Vnew
p1427
g11
tp1428
a(Vpowers
p1429
g47
tp1430
aa(lp1431
(g50
g51
tp1432
a(Vcriminal
p1433
g11
tp1434
aa(lp1435
g1434
a(Voffence
p1436
g14
tp1437
aa(lp1438
(Vthis
p1439
g51
tp1440
a(Vmust-have
p1441
g11
tp1442
aa(lp1443
g1442
a(Vgame
p1444
g14
tp1445
aasI125
(lp1446
(lp1447
(VC'mon
p1448
g11
tp1449
a(Vstar
p1450
g14
tp1451
aa(lp1452
(Vangry
p1453
g11
tp1454
a(Vbirds
p1455
g47
tp1456
aa(lp1457
(g50
g51
tp1458
a(Vwhole
p1459
g11
tp1460
aa(lp1461
g1460
a(Vnutha
p1462
g14
tp1463
aasI126
(lp1464
(lp1465
(VThe
p1466
g51
tp1467
a(Vbest
p1468
g168
tp1469
aa(lp1470
g1469
a(Vgame
p1471
g14
tp1472
aasI127
(lp1473
sI128
(lp1474
sI129
(lp1475
(lp1476
(Vso
p1477
g4
tp1478
a(Vstop
p1479
g7
tp1480
aa(lp1481
(Vnot
p1482
g4
tp1483
a(Vhave
p1484
g7
tp1485
aasI130
(lp1486
(lp1487
(g50
g51
tp1488
a(Vbig
p1489
g11
tp1490
aa(lp1491
g1490
a(Vfan
p1492
g14
tp1493
aa(lp1494
(Vquite
p1495
g4
tp1496
a(Vgood
p1497
g11
tp1498
aa(lp1499
(Vruns
p1500
g312
tp1501
a(Vsmooth
p1502
g11
tp1503
aa(lp1504
(Vso
p1505
g4
tp1506
a(Vyeah
p1507
g11
tp1508
aa(lp1509
(Vdefinitely
p1510
g4
tp1511
a(Vworth
p1512
g11
tp1513
aasI131
(lp1514
(lp1515
(VDefinitely
p1516
g4
tp1517
a(Vworth
p1518
g11
tp1519
aa(lp1520
g1519
a(Vdownloading
p1521
g14
tp1522
aasI132
(lp1523
(lp1524
(Vthe
p1525
g51
tp1526
a(Vother
p1527
g11
tp1528
aa(lp1529
g1528
a(Vangry
p1530
g14
tp1531
aasI133
(lp1532
(lp1533
(Vyears
p1534
g47
tp1535
a(Vold
p1536
g11
tp1537
aasI134
(lp1538
(lp1539
(VBest
p1540
g168
tp1541
a(Vgame
p1542
g14
tp1543
aasI135
(lp1544
(lp1545
(Vseems
p1546
g312
tp1547
a(Vwierd
p1548
g11
tp1549
aa(lp1550
(Vjust
p1551
g4
tp1552
a(Vdosent
p1553
g11
tp1554
aa(lp1555
g1554
a(Vfeel
p1556
g14
tp1557
aa(lp1558
(Vthe
p1559
g51
tp1560
a(Vblack
p1561
g11
tp1562
aa(lp1563
g1562
a(Vbird
p1564
g14
tp1565
aasI136
(lp1566
sI137
(lp1567
(lp1568
(Vanother
p1569
g51
tp1570
a(Vgreat
p1571
g11
tp1572
aa(lp1573
g1572
a(Vgame
p1574
g14
tp1575
aasI138
(lp1576
sI139
(lp1577
(lp1578
(g50
g51
tp1579
a(Vgreat
p1580
g11
tp1581
aa(lp1582
(Vthe
p1583
g51
tp1584
a(Vbetter
p1585
g552
tp1586
aasI140
(lp1587
(lp1588
(Vangry
p1589
g11
tp1590
a(Vbirds
p1591
g47
tp1592
aa(lp1593
(VNOT
p1594
g4
tp1595
a(VBE
p1596
g7
tp1597
aa(lp1598
(Vn't
p1599
g4
tp1600
a(Vlike
p1601
g7
tp1602
aa(lp1603
(Vnow
p1604
g4
tp1605
a(Vplastering
p1606
g134
tp1607
aa(lp1608
(Vnew
p1609
g11
tp1610
a(Vgames
p1611
g47
tp1612
aa(lp1613
(Vother
p1614
g11
tp1615
a(Vversions
p1616
g47
tp1617
aa(lp1618
(Vangry
p1619
g11
tp1620
a(Vbirds
p1621
g47
tp1622
aa(lp1623
(Veven
p1624
g4
tp1625
a(Vupdating
p1626
g134
tp1627
aa(lp1628
(Vonly
p1629
g4
tp1630
a(Vintrusive
p1631
g11
tp1632
aa(lp1633
(Vrather
p1634
g4
tp1635
a(Vuse
p1636
g7
tp1637
aa(lp1638
(Vother
p1639
g11
tp1640
a(Vthings
p1641
g47
tp1642
aa(lp1643
(Vpretty
p1644
g4
tp1645
a(Vboring
p1646
g134
tp1647
aa(lp1648
(Vsimply
p1649
g4
tp1650
a(Vgoing
p1651
g134
tp1652
aa(lp1653
(Vn't
p1654
g4
tp1655
a(Vget
p1656
g7
tp1657
aa(lp1658
(Vnow
p1659
g4
tp1660
a(Vbeing
p1661
g134
tp1662
aasI141
(lp1663
sI142
(lp1664
(lp1665
(Vn't
p1666
g4
tp1667
a(Vclose
p1668
g11
tp1669
aasI143
(lp1670
sI144
(lp1671
(lp1672
(VBest
p1673
g168
tp1674
a(Vgame
p1675
g14
tp1676
aa(lp1677
(Vis
p1678
g312
tp1679
a(Vless
p1680
g552
tp1681
aasI145
(lp1682
(lp1683
(Vthe
p1684
g51
tp1685
a(VBEST
p1686
g168
tp1687
aa(lp1688
g1687
a(Vangry
p1689
g14
tp1690
aa(lp1691
(Val
p1692
g11
tp1693
a(Vcomes
p1694
g47
tp1695
aa(lp1696
(g50
g51
tp1697
a(Vgreat
p1698
g11
tp1699
aa(lp1700
g1699
a(Vgame
p1701
g14
tp1702
aa(lp1703
(Vthe
p1704
g51
tp1705
a(Vother
p1706
g11
tp1707
aa(lp1708
g1707
a(Vlevels
p1709
g47
tp1710
aasI146
(lp1711
(lp1712
(Van
p1713
g51
tp1714
a(Vlovable
p1715
g11
tp1716
aa(lp1717
g1716
a(Vgame
p1718
g14
tp1719
aasI147
(lp1720
sI148
(lp1721
sI149
(lp1722
(lp1723
(Vmore
p1724
S'RBR'
p1725
tp1726
a(Vfun
p1727
g11
tp1728
aasI150
(lp1729
(lp1730
(Vthe
p1731
g51
tp1732
a(Vother
p1733
g11
tp1734
aa(lp1735
g1734
a(Vangry
p1736
g14
tp1737
aasI151
(lp1738
(lp1739
(Vnot
p1740
g4
tp1741
a(Vwork
p1742
g7
tp1743
aasI152
(lp1744
(lp1745
(VJust
p1746
g4
tp1747
a(Vupdated
p1748
g67
tp1749
aa(lp1750
(Vnew
p1751
g11
tp1752
a(Vlevels
p1753
g47
tp1754
aa(lp1755
(Vthe
p1756
g51
tp1757
a(Vnew
p1758
g11
tp1759
aa(lp1760
g1759
a(Vbirds
p1761
g47
tp1762
aasI153
(lp1763
(lp1764
(VJust
p1765
g4
tp1766
a(Vcurious
p1767
g11
tp1768
aasI154
(lp1769
(lp1770
(Vcant
p1771
g11
tp1772
a(Vinstall
p1773
g14
tp1774
aasI155
(lp1775
(lp1776
(Vthe
p1777
g51
tp1778
a(Vnewest
p1779
g168
tp1780
aa(lp1781
g1780
a(Vupdate
p1782
g14
tp1783
aa(lp1784
(Vnot
p1785
g4
tp1786
a(Vable
p1787
g11
tp1788
aa(lp1789
(Vn't
p1790
g4
tp1791
a(Vget
p1792
g7
tp1793
aasI156
(lp1794
(lp1795
(Valways
p1796
g4
tp1797
a(Vliked
p1798
g162
tp1799
aa(lp1800
(Vtotally
p1801
g4
tp1802
a(Vaddictive
p1803
g11
tp1804
aasI157
(lp1805
(lp1806
(Vnot
p1807
g4
tp1808
a(Vwork
p1809
g7
tp1810
aasI158
(lp1811
(lp1812
(Vmuch
p1813
g4
tp1814
a(Vfun
p1815
g67
tp1816
aasI159
(lp1817
sI160
(lp1818
sI161
(lp1819
sI162
(lp1820
(lp1821
(Vthe
p1822
g51
tp1823
a(Vorigonal
p1824
g11
tp1825
aa(lp1826
(Vangry
p1827
g11
tp1828
a(Vbirds
p1829
g47
tp1830
aasI163
(lp1831
sI164
(lp1832
(lp1833
(Vreally
p1834
g4
tp1835
a(Vgreat
p1836
g11
tp1837
aa(lp1838
g1837
a(Vgame
p1839
g14
tp1840
aasI165
(lp1841
(lp1842
(Vwell
p1843
g4
tp1844
a(Vworth
p1845
g11
tp1846
aa(lp1847
(VOnce
p1848
g4
tp1849
a(Vcomplete
p1850
g11
tp1851
aa(lp1852
(Vonly
p1853
g4
tp1854
a(Vwant
p1855
g7
tp1856
aa(lp1857
(Vthe
p1858
g51
tp1859
a(Voriginal
p1860
g11
tp1861
aa(lp1862
g1861
a(Vtrilogy
p1863
g14
tp1864
aasI166
(lp1865
(lp1866
(Vsuper-duper
p1867
g11
tp1868
a(Vlightsaber
p1869
g14
tp1870
aa(lp1871
(Vthe
p1872
g51
tp1873
a(Vbest
p1874
g168
tp1875
aasI167
(lp1876
sI168
(lp1877
(lp1878
(Vfavorite
p1879
g11
tp1880
a(Vangry
p1881
g14
tp1882
aasI169
(lp1883
(lp1884
(V.must
p1885
g11
tp1886
a(Vplay
p1887
g14
tp1888
aasI170
(lp1889
(lp1890
(Vthe
p1891
g51
tp1892
a(Vbest
p1893
g168
tp1894
aa(lp1895
g1894
a(Vangry
p1896
g14
tp1897
aasI171
(lp1898
(lp1899
(Vmost
p1900
g168
tp1901
a(Vstages
p1902
g47
tp1903
aasI172
(lp1904
(lp1905
(VThe
p1906
g51
tp1907
a(Vbest
p1908
g168
tp1909
aasI173
(lp1910
(lp1911
(Vjust
p1912
g4
tp1913
a(Vcompleted
p1914
g162
tp1915
aa(lp1916
(Vthe
p1917
g51
tp1918
a(Vfirst
p1919
g11
tp1920
aa(lp1921
(Vnot
p1922
g4
tp1923
a(Vopened
p1924
g67
tp1925
aasI174
(lp1926
(lp1927
(Vangry
p1928
g11
tp1929
a(Vbirds
p1930
g47
tp1931
aasI175
(lp1932
(lp1933
(Vthe
p1934
g51
tp1935
a(Vcoolest
p1936
g168
tp1937
aa(lp1938
g1937
a(Vmixture
p1939
g14
tp1940
aasI176
(lp1941
(lp1942
(V's
p1943
g312
tp1944
a(Vgood
p1945
g11
tp1946
aasI177
(lp1947
sI178
(lp1948
sI179
(lp1949
(lp1950
(Vthe
p1951
g51
tp1952
a(VBEST
p1953
g168
tp1954
aa(lp1955
(Vlight
p1956
g11
tp1957
a(Vsabers
p1958
g47
tp1959
aasI180
(lp1960
(lp1961
(Vthe
p1962
g51
tp1963
a(Vfirst
p1964
g11
tp1965
aasI181
(lp1966
(lp1967
(VThe
p1968
g51
tp1969
a(Vbest
p1970
g168
tp1971
aa(lp1972
g1971
a(Vversion
p1973
g14
tp1974
aasI182
(lp1975
(lp1976
(Vseveral
p1977
g11
tp1978
a(Vtimes
p1979
g47
tp1980
aa(lp1981
(Vnot
p1982
g4
tp1983
a(Vwork
p1984
g7
tp1985
aa(lp1986
(Vn't
p1987
g4
tp1988
a(Vload
p1989
g7
tp1990
aasI183
(lp1991
sI184
(lp1992
(lp1993
(Vis
p1994
g312
tp1995
a(Vgreat
p1996
g11
tp1997
aa(lp1998
g1997
a(Vfun
p1999
g14
tp2000
aa(lp2001
(Vn't
p2002
g4
tp2003
a(Vdowlond
p2004
g7
tp2005
aa(lp2006
(Vn't
p2007
g4
tp2008
a(Vdowlond
p2009
g7
tp2010
aa(lp2011
(Vjust
p2012
g4
tp2013
a(Vdid
p2014
g162
tp2015
aa(lp2016
(Vthe
p2017
g51
tp2018
a(Vfirst
p2019
g11
tp2020
aa(lp2021
g2020
a(Vbit
p2022
g14
tp2023
aa(lp2024
(g50
g51
tp2025
a(Vlong
p2026
g11
tp2027
aa(lp2028
g2027
a(Vtime
p2029
g14
tp2030
aa(lp2031
(Vso
p2032
g4
tp2033
a(Vgood
p2034
g11
tp2035
aa(lp2036
g2035
a(Vapp
p2037
g14
tp2038
aasI185
(lp2039
(lp2040
(Vn't
p2041
g4
tp2042
a(Vrate
p2043
g7
tp2044
aa(lp2045
(Vn't
p2046
g4
tp2047
a(Vplay
p2048
g7
tp2049
aa(lp2050
(Vangry
p2051
g11
tp2052
a(Vbirds
p2053
g47
tp2054
aa(lp2055
(Vnot
p2056
g4
tp2057
a(Vnecessary
p2058
g11
tp2059
aasI186
(lp2060
(lp2061
(Vvery
p2062
g4
tp2063
a(Vfun
p2064
g11
tp2065
aasI187
(lp2066
(lp2067
(Vnever
p2068
g4
tp2069
a(Vdid
p2070
g162
tp2071
aa(lp2072
(Vthere
p2073
g4
tp2074
a(Vwas
p2075
g162
tp2076
aa(lp2077
(Vimmediately
p2078
g4
tp2079
a(Vdownload
p2080
g162
tp2081
aa(lp2082
(Vnot
p2083
g4
tp2084
a(Vrefuse
p2085
g7
tp2086
aa(lp2087
(Vn't
p2088
g4
tp2089
a(Vwait
p2090
g7
tp2091
aa(lp2092
(Vmore
p2093
g552
tp2094
a(Vupdates
p2095
g47
tp2096
aa(lp2097
(Vthe
p2098
g51
tp2099
a(Vonly
p2100
g11
tp2101
aa(lp2102
(Vmore
p2103
g552
tp2104
a(Vstar
p2105
g14
tp2106
aasI188
(lp2107
(lp2108
(VShockingly
p2109
g4
tp2110
a(Vpoor
p2111
g11
tp2112
aasI189
(lp2113
(lp2114
(Vwonderful
p2115
g11
tp2116
a(Vabilities
p2117
g47
tp2118
aa(lp2119
(Vthe
p2120
g51
tp2121
a(Vonly
p2122
g11
tp2123
aa(lp2124
g2123
a(Vdisappointing
p2125
g11
tp2126
aa(lp2127
g2126
a(Vfactor
p2128
g14
tp2129
aa(lp2130
(g50
g51
tp2131
a(Vtrue
p2132
g11
tp2133
aa(lp2134
g2133
a(Vstart
p2135
g14
tp2136
aa(lp2137
(Vthe
p2138
g51
tp2139
a(Vbest
p2140
g168
tp2141
aa(lp2142
g2141
a(Vgame
p2143
g14
tp2144
aasI190
(lp2145
sI191
(lp2146
(lp2147
(Vreally
p2148
g4
tp2149
a(Vappreciate
p2150
g11
tp2151
aa(lp2152
(Vthe
p2153
g51
tp2154
a(Vwhole
p2155
g11
tp2156
aa(lp2157
g2156
a(Vfamily
p2158
g14
tp2159
aa(lp2160
(Vvery
p2161
g4
tp2162
a(Vfair
p2163
g11
tp2164
aa(lp2165
(Vn't
p2166
g4
tp2167
a(Vhave
p2168
g7
tp2169
aa(lp2170
(g50
g51
tp2171
a(Vgood
p2172
g11
tp2173
aa(lp2174
g2173
a(Vtime
p2175
g14
tp2176
aa(lp2177
(Vn't
p2178
g4
tp2179
a(Vmake
p2180
g7
tp2181
aa(lp2182
(Vthe
p2183
g51
tp2184
a(Voriginal
p2185
g11
tp2186
aa(lp2187
g2186
a(Vangry
p2188
g14
tp2189
aa(lp2190
(Vthis
p2191
g51
tp2192
a(Vincredible
p2193
g11
tp2194
aa(lp2195
g2194
a(Vlittle
p2196
g14
tp2197
aasI192
(lp2198
(lp2199
(Van
p2200
g51
tp2201
a(Vepic
p2202
g11
tp2203
aa(lp2204
g2203
a(Vintegalactic
p2205
g11
tp2206
aa(lp2207
(Vcomplete
p2208
g11
tp2209
a(Vepisode
p2210
g14
tp2211
aa(lp2212
(Vthe
p2213
g51
tp2214
a(Vbest
p2215
g168
tp2216
aa(lp2217
g2216
a(Vgame
p2218
g14
tp2219
aasI193
(lp2220
(lp2221
(Vvery
p2222
g4
tp2223
a(Vgood
p2224
g11
tp2225
aa(lp2226
(Vlast
p2227
g11
tp2228
a(Vupdate
p2229
g14
tp2230
aa(lp2231
(Vthe
p2232
g51
tp2233
a(Vbest
p2234
g168
tp2235
aa(lp2236
g2235
a(Vupdate
p2237
g14
tp2238
aasI194
(lp2239
(lp2240
(Vvery
p2241
g4
tp2242
a(Vmuch
p2243
g11
tp2244
aasI195
(lp2245
(lp2246
(Vnot
p2247
g4
tp2248
a(Vget
p2249
g7
tp2250
aasI196
(lp2251
(lp2252
(Vplay
p2253
g14
tp2254
a(Vother
p2255
g11
tp2256
aa(lp2257
g2256
a(Vlevels
p2258
g47
tp2259
aa(lp2260
(Vrich
p2261
g11
tp2262
a(Venough
p2263
g11
tp2264
aa(lp2265
g2264
a(Vcome
p2266
g14
tp2267
aasI197
(lp2268
(lp2269
(g50
g51
tp2270
a(Vblack
p2271
g11
tp2272
aasI198
(lp2273
(lp2274
(Vall
p2275
g51
tp2276
a(Vangry
p2277
g11
tp2278
aasI199
(lp2279
sI200
(lp2280
sI201
(lp2281
sI202
(lp2282
(lp2283
(V's
p2284
g312
tp2285
a(Vperfect
p2286
g11
tp2287
aa(lp2288
g2287
a(Vstar
p2289
g14
tp2290
aa(lp2291
(Vangry
p2292
g11
tp2293
a(Vbirds
p2294
g47
tp2295
aasI203
(lp2296
(lp2297
(Vvery
p2298
g4
tp2299
a(Vgood
p2300
g11
tp2301
aa(lp2302
(Vlast
p2303
g11
tp2304
a(Vupdate
p2305
g14
tp2306
aa(lp2307
(Vthe
p2308
g51
tp2309
a(Vbest
p2310
g168
tp2311
aa(lp2312
g2311
a(Vupdate
p2313
g14
tp2314
aasI204
(lp2315
(lp2316
(Vplay
p2317
g14
tp2318
a(Vother
p2319
g11
tp2320
aa(lp2321
g2320
a(Vlevels
p2322
g47
tp2323
aa(lp2324
(Vrich
p2325
g11
tp2326
a(Venough
p2327
g11
tp2328
aa(lp2329
g2328
a(Vcome
p2330
g14
tp2331
aasI205
(lp2332
(lp2333
(Vnot
p2334
g4
tp2335
a(Vget
p2336
g7
tp2337
aasI206
(lp2338
(lp2339
(Vthe
p2340
g51
tp2341
a(Vbest
p2342
g168
tp2343
aa(lp2344
g2343
a(Vhandheld
p2345
g14
tp2346
aasI207
(lp2347
(lp2348
(Vnot
p2349
g4
tp2350
a(Vopen
p2351
g7
tp2352
aa(lp2353
(Vthe
p2354
g51
tp2355
a(Vsecond
p2356
g11
tp2357
aa(lp2358
g2357
a(Vtime
p2359
g14
tp2360
aasI208
(lp2361
sI209
(lp2362
sI210
(lp2363
(lp2364
(Valready
p2365
g4
tp2366
a(Vupdated
p2367
g67
tp2368
aasI211
(lp2369
(lp2370
(Vthe
p2371
g51
tp2372
a(Vnext
p2373
g11
tp2374
aa(lp2375
g2374
a(Vplanet
p2376
g14
tp2377
aasI212
(lp2378
(lp2379
(g50
g51
tp2380
a(Vnice
p2381
g11
tp2382
aa(lp2383
(Vactually
p2384
g4
tp2385
a(Vpay
p2386
g7
tp2387
aa(lp2388
(Vown
p2389
g11
tp2390
a(Vlevels
p2391
g47
tp2392
aa(lp2393
(g50
g51
tp2394
a(Vcertain
p2395
g11
tp2396
aa(lp2397
(Vown
p2398
g11
tp2399
a(Vfort
p2400
g14
tp2401
aasI213
(lp2402
sI214
(lp2403
(lp2404
(VBest
p2405
g168
tp2406
a(Vgame
p2407
g14
tp2408
aasI215
(lp2409
(lp2410
(Vthe
p2411
g51
tp2412
a(Vbest
p2413
g168
tp2414
aa(lp2415
g2414
a(Vhandheld
p2416
g14
tp2417
aasI216
(lp2418
sI217
(lp2419
(lp2420
(Vnot
p2421
g4
tp2422
a(Vopen
p2423
g7
tp2424
aa(lp2425
(Vthe
p2426
g51
tp2427
a(Vsecond
p2428
g11
tp2429
aa(lp2430
g2429
a(Vtime
p2431
g14
tp2432
aasI218
(lp2433
(lp2434
(Vthe
p2435
g51
tp2436
a(Vnext
p2437
g11
tp2438
aa(lp2439
g2438
a(Vlevel
p2440
g14
tp2441
aa(lp2442
(Vnot
p2443
g4
tp2444
a(Vunlock
p2445
g7
tp2446
aasI219
(lp2447
(lp2448
(Valready
p2449
g4
tp2450
a(Vupdated
p2451
g67
tp2452
aasI220
(lp2453
(lp2454
(Vthe
p2455
g51
tp2456
a(Vnext
p2457
g11
tp2458
aa(lp2459
g2458
a(Vplanet
p2460
g14
tp2461
aasI221
(lp2462
sI222
(lp2463
(lp2464
(g50
g51
tp2465
a(Vnice
p2466
g11
tp2467
aa(lp2468
(Vactually
p2469
g4
tp2470
a(Vpay
p2471
g7
tp2472
aa(lp2473
(Vown
p2474
g11
tp2475
a(Vlevels
p2476
g47
tp2477
aa(lp2478
(g50
g51
tp2479
a(Vcertain
p2480
g11
tp2481
aa(lp2482
(Vown
p2483
g11
tp2484
a(Vfort
p2485
g14
tp2486
aasI223
(lp2487
sI224
(lp2488
(lp2489
(Vawesome
p2490
g14
tp2491
a(Vunbelievable
p2492
g11
tp2493
aasI225
(lp2494
sI226
(lp2495
(lp2496
(Vthe
p2497
g51
tp2498
a(Vbest
p2499
g168
tp2500
aa(lp2501
g2500
a(Vangry
p2502
g14
tp2503
aasI227
(lp2504
(lp2505
(Veven
p2506
g4
tp2507
a(Vopen
p2508
g11
tp2509
aasI228
(lp2510
sI229
(lp2511
sI230
(lp2512
(lp2513
(Vnot
p2514
g4
tp2515
a(Vopen
p2516
g7
tp2517
aa(lp2518
(Vthe
p2519
g51
tp2520
a(Vsecond
p2521
g11
tp2522
aa(lp2523
g2522
a(Vtime
p2524
g14
tp2525
aasI231
(lp2526
(lp2527
(Vthe
p2528
g51
tp2529
a(Vnext
p2530
g11
tp2531
aa(lp2532
g2531
a(Vlevel
p2533
g14
tp2534
aa(lp2535
(Vnot
p2536
g4
tp2537
a(Vunlock
p2538
g7
tp2539
aasI232
(lp2540
(lp2541
(Vthe
p2542
g51
tp2543
a(Vnext
p2544
g11
tp2545
aa(lp2546
g2545
a(Vplanet
p2547
g14
tp2548
aasI233
(lp2549
sI234
(lp2550
sI235
(lp2551
(lp2552
(Vawesome
p2553
g14
tp2554
a(Vunbelievable
p2555
g11
tp2556
aasI236
(lp2557
sI237
(lp2558
(lp2559
(Vthe
p2560
g51
tp2561
a(Vbest
p2562
g168
tp2563
aa(lp2564
g2563
a(Vangry
p2565
g14
tp2566
aasI238
(lp2567
sI239
(lp2568
(lp2569
(Veven
p2570
g4
tp2571
a(Vopen
p2572
g11
tp2573
aasI240
(lp2574
sI241
(lp2575
sI242
(lp2576
sI243
(lp2577
sI244
(lp2578
sI245
(lp2579
(lp2580
(Veven
p2581
g4
tp2582
a(Vopen
p2583
g11
tp2584
aasI246
(lp2585
sI247
(lp2586
sI248
(lp2587
(lp2588
(Vnot
p2589
g4
tp2590
a(Vgood
p2591
g11
tp2592
aa(lp2593
g2592
a(Vfreezes
p2594
g47
tp2595
aasI249
(lp2596
sI250
(lp2597
sI251
(lp2598
sI252
(lp2599
(lp2600
(VThe
p2601
g51
tp2602
a(Vbest
p2603
g168
tp2604
aa(lp2605
g2604
a(Vangry
p2606
g14
tp2607
aasI253
(lp2608
sI254
(lp2609
sI255
(lp2610
sI256
(lp2611
(lp2612
(Vnot
p2613
g4
tp2614
a(Vgood
p2615
g11
tp2616
aa(lp2617
g2616
a(Vfreezes
p2618
g47
tp2619
aasI257
(lp2620
sI258
(lp2621
sI259
(lp2622
sI260
(lp2623
sI261
(lp2624
(lp2625
(VThe
p2626
g51
tp2627
a(Vbest
p2628
g168
tp2629
aa(lp2630
g2629
a(Vangry
p2631
g14
tp2632
aasI262
(lp2633
(lp2634
(Vthe
p2635
g51
tp2636
a(Vbest
p2637
g168
tp2638
aa(lp2639
g2638
a(Vangry
p2640
g14
tp2641
aasI263
(lp2642
(lp2643
(Vbird
p2644
g11
tp2645
a(Vpreview
p2646
g14
tp2647
aa(lp2648
(V's
p2649
g312
tp2650
a(Vhard
p2651
g11
tp2652
aa(lp2653
(V's
p2654
g312
tp2655
a(Vmany
p2656
g11
tp2657
aa(lp2658
g2657
a(Vnew
p2659
g11
tp2660
aa(lp2661
g2660
a(Vones
p2662
g47
tp2663
aasI264
(lp2664
sI265
(lp2665
sI266
(lp2666
sI267
(lp2667
sI268
(lp2668
(lp2669
(Vnot
p2670
g4
tp2671
a(Vgood
p2672
g11
tp2673
aa(lp2674
g2673
a(Vfreezes
p2675
g47
tp2676
aasI269
(lp2677
sI270
(lp2678
(lp2679
(VNot
p2680
g4
tp2681
a(Vhappy
p2682
g11
tp2683
aasI271
(lp2684
(lp2685
(Vnext
p2686
g11
tp2687
a(Vangry
p2688
g14
tp2689
aasI272
(lp2690
sI273
(lp2691
(lp2692
(VBest
p2693
g168
tp2694
a(Vseries
p2695
g14
tp2696
aasI274
(lp2697
sI275
(lp2698
sI276
(lp2699
sI277
(lp2700
sI278
(lp2701
(lp2702
(VNot
p2703
g4
tp2704
a(Vhappy
p2705
g11
tp2706
aasI279
(lp2707
(lp2708
(VMost
p2709
g168
tp2710
a(Veasiest
p2711
g11
tp2712
aa(lp2713
g2712
a(Vangry
p2714
g14
tp2715
aasI280
(lp2716
(lp2717
(Vnext
p2718
g11
tp2719
a(Vangry
p2720
g14
tp2721
aasI281
(lp2722
(lp2723
(VBest
p2724
g168
tp2725
a(Vangry
p2726
g14
tp2727
aasI282
(lp2728
sI283
(lp2729
(lp2730
(VBest
p2731
g168
tp2732
a(Vseries
p2733
g14
tp2734
aasI284
(lp2735
sI285
(lp2736
sI286
(lp2737
sI287
(lp2738
sI288
(lp2739
(lp2740
(VNot
p2741
g4
tp2742
a(Vhappy
p2743
g11
tp2744
aasI289
(lp2745
(lp2746
(VMost
p2747
g168
tp2748
a(Veasiest
p2749
g11
tp2750
aa(lp2751
g2750
a(Vangry
p2752
g14
tp2753
aasI290
(lp2754
(lp2755
(Vnext
p2756
g11
tp2757
a(Vangry
p2758
g14
tp2759
aasI291
(lp2760
(lp2761
(VBest
p2762
g168
tp2763
a(Vangry
p2764
g14
tp2765
aasI292
(lp2766
sI293
(lp2767
sI294
(lp2768
(lp2769
(VBest
p2770
g168
tp2771
a(Vgame
p2772
g14
tp2773
aasI295
(lp2774
(lp2775
(Vthe
p2776
g51
tp2777
a(Vbest
p2778
g168
tp2779
aa(lp2780
g2779
a(Vangry
p2781
g14
tp2782
aasI296
(lp2783
(lp2784
(VAbsolutely
p2785
g4
tp2786
a(Ventertaining
p2787
g134
tp2788
aa(lp2789
(Vcompletely
p2790
g4
tp2791
a(Vhappy
p2792
g11
tp2793
aasI297
(lp2794
sI298
(lp2795
(lp2796
(VMost
p2797
g168
tp2798
a(Veasiest
p2799
g11
tp2800
aa(lp2801
g2800
a(Vangry
p2802
g14
tp2803
aasI299
(lp2804
sI300
(lp2805
(lp2806
(Vnext
p2807
g11
tp2808
a(Vangry
p2809
g14
tp2810
aasI301
(lp2811
sI302
(lp2812
(lp2813
(VBest
p2814
g168
tp2815
a(Vangry
p2816
g14
tp2817
aasI303
(lp2818
sI304
(lp2819
sI305
(lp2820
sI306
(lp2821
sI307
(lp2822
(lp2823
(Vthe
p2824
g51
tp2825
a(Vbest
p2826
g168
tp2827
aa(lp2828
g2827
a(Vangry
p2829
g14
tp2830
aasI308
(lp2831
(lp2832
(VAbsolutely
p2833
g4
tp2834
a(Ventertaining
p2835
g134
tp2836
aa(lp2837
(Vcompletely
p2838
g4
tp2839
a(Vhappy
p2840
g11
tp2841
aasI309
(lp2842
(lp2843
(Vespecially
p2844
g4
tp2845
a(Vlove
p2846
g7
tp2847
aa(lp2848
(Vn't
p2849
g4
tp2850
a(Vlet
p2851
g7
tp2852
aa(lp2853
(VNot
p2854
g4
tp2855
a(Vhappy
p2856
g11
tp2857
aasI310
(lp2858
(lp2859
(VMost
p2860
g168
tp2861
a(Veasiest
p2862
g11
tp2863
aa(lp2864
g2863
a(Vangry
p2865
g14
tp2866
aasI311
(lp2867
(lp2868
(Veven
p2869
g4
tp2870
a(Vhave
p2871
g7
tp2872
aasI312
(lp2873
sI313
(lp2874
sI314
(lp2875
(lp2876
(Vn't
p2877
g4
tp2878
a(Vwork
p2879
g7
tp2880
aa(lp2881
(Vthe
p2882
g51
tp2883
a(Vfree
p2884
g11
tp2885
aa(lp2886
g2885
a(Vparts
p2887
g47
tp2888
aasI315
(lp2889
sI316
(lp2890
sI317
(lp2891
(lp2892
(VAbsolutely
p2893
g4
tp2894
a(Ventertaining
p2895
g134
tp2896
aa(lp2897
(Vcompletely
p2898
g4
tp2899
a(Vhappy
p2900
g11
tp2901
aasI318
(lp2902
sI319
(lp2903
(lp2904
(Vn't
p2905
g4
tp2906
a(Vlet
p2907
g7
tp2908
aa(lp2909
(Vthe
p2910
g51
tp2911
a(Vnew
p2912
g11
tp2913
aasI320
(lp2914
(lp2915
(Vespecially
p2916
g4
tp2917
a(Vlove
p2918
g7
tp2919
aa(lp2920
(Vn't
p2921
g4
tp2922
a(Vlet
p2923
g7
tp2924
aa(lp2925
(VNot
p2926
g4
tp2927
a(Vhappy
p2928
g11
tp2929
aasI321
(lp2930
(lp2931
(Veven
p2932
g4
tp2933
a(Vhave
p2934
g7
tp2935
aasI322
(lp2936
sI323
(lp2937
sI324
(lp2938
sI325
(lp2939
(lp2940
(Vn't
p2941
g4
tp2942
a(Vclose
p2943
g11
tp2944
aa(lp2945
g2944
a(Vads
p2946
g47
tp2947
aasI326
(lp2948
sI327
(lp2949
sI328
(lp2950
(lp2951
(Vn't
p2952
g4
tp2953
a(Vlet
p2954
g7
tp2955
aa(lp2956
(Vthe
p2957
g51
tp2958
a(Vnew
p2959
g11
tp2960
aasI329
(lp2961
(lp2962
(Vespecially
p2963
g4
tp2964
a(Vlove
p2965
g7
tp2966
aa(lp2967
(Vn't
p2968
g4
tp2969
a(Vlet
p2970
g7
tp2971
aa(lp2972
(VNot
p2973
g4
tp2974
a(Vhappy
p2975
g11
tp2976
aasI330
(lp2977
(lp2978
(Vall
p2979
g51
tp2980
a(Vother
p2981
g11
tp2982
aa(lp2983
g2982
a(Vangry
p2984
g14
tp2985
aasI331
(lp2986
sI332
(lp2987
sI333
(lp2988
sI334
(lp2989
(lp2990
(Vfun
p2991
g14
tp2992
a(Vnew
p2993
g11
tp2994
aa(lp2995
g2994
a(Vtrust
p2996
g14
tp2997
aasI335
(lp2998
(lp2999
(Vthe
p3000
g51
tp3001
a(Vother
p3002
g11
tp3003
aasI336
(lp3004
(lp3005
(Vn't
p3006
g4
tp3007
a(Vlet
p3008
g7
tp3009
aa(lp3010
(Vthe
p3011
g51
tp3012
a(Vnew
p3013
g11
tp3014
aasI337
(lp3015
sI338
(lp3016
sI339
(lp3017
(lp3018
(Vall
p3019
g51
tp3020
a(Vother
p3021
g11
tp3022
aa(lp3023
g3022
a(Vangry
p3024
g14
tp3025
aasI340
(lp3026
sI341
(lp3027
(lp3028
(VA
p3029
g51
tp3030
a(Vnice
p3031
g11
tp3032
aa(lp3033
g3032
a(Vtwist
p3034
g14
tp3035
aasI342
(lp3036
sI343
(lp3037
sI344
(lp3038
(lp3039
(Vnot
p3040
g4
tp3041
a(Vwork
p3042
g7
tp3043
aa(lp3044
(Vother
p3045
g11
tp3046
a(Vdevice
p3047
g14
tp3048
aa(lp3049
(Vnot
p3050
g4
tp3051
a(Vwork
p3052
g7
tp3053
aa(lp3054
(Vother
p3055
g11
tp3056
a(Vdevice
p3057
g14
tp3058
aasI345
(lp3059
sI346
(lp3060
(lp3061
(VBest
p3062
g168
tp3063
a(Vgame
p3064
g14
tp3065
aa(lp3066
(Vis
p3067
g312
tp3068
a(Vstrong
p3069
g11
tp3070
aasI347
(lp3071
(lp3072
(Vall
p3073
g51
tp3074
a(Vother
p3075
g11
tp3076
aa(lp3077
g3076
a(Vangry
p3078
g14
tp3079
aasI348
(lp3080
sI349
(lp3081
sI350
(lp3082
(lp3083
(g3029
g51
tp3084
a(Vnice
p3085
g11
tp3086
aa(lp3087
g3086
a(Vtwist
p3088
g14
tp3089
aasI351
(lp3090
sI352
(lp3091
sI353
(lp3092
sI354
(lp3093
sI355
(lp3094
sI356
(lp3095
(lp3096
(g3029
g51
tp3097
a(Vnice
p3098
g11
tp3099
aa(lp3100
g3099
a(Vtwist
p3101
g14
tp3102
aasI357
(lp3103
sI358
(lp3104
(lp3105
(Vthe
p3106
g51
tp3107
a(Vfunnest
p3108
g168
tp3109
aa(lp3110
g3109
a(Vgame
p3111
g14
tp3112
aasI359
(lp3113
sI360
(lp3114
sI361
(lp3115
(lp3116
(Vepic
p3117
g11
tp3118
a(Vgame
p3119
g14
tp3120
aasI362
(lp3121
sI363
(lp3122
sI364
(lp3123
sI365
(lp3124
sI366
(lp3125
(lp3126
(g3029
g51
tp3127
a(Vnice
p3128
g11
tp3129
aa(lp3130
g3129
a(Vtwist
p3131
g14
tp3132
aasI367
(lp3133
sI368
(lp3134
(lp3135
(Vthe
p3136
g51
tp3137
a(Vfunnest
p3138
g168
tp3139
aa(lp3140
g3139
a(Vgame
p3141
g14
tp3142
aasI369
(lp3143
sI370
(lp3144
sI371
(lp3145
(lp3146
(Vepic
p3147
g11
tp3148
a(Vgame
p3149
g14
tp3150
aasI372
(lp3151
sI373
(lp3152
sI374
(lp3153
sI375
(lp3154
sI376
(lp3155
sI377
(lp3156
(lp3157
(Vthe
p3158
g51
tp3159
a(Vfunnest
p3160
g168
tp3161
aa(lp3162
g3161
a(Vgame
p3163
g14
tp3164
aasI378
(lp3165
sI379
(lp3166
sI380
(lp3167
(lp3168
(VTotally
p3169
g4
tp3170
a(Vdifferent
p3171
g11
tp3172
aa(lp3173
g3172
a(Vview
p3174
g14
tp3175
aasI381
(lp3176
(lp3177
(Vis
p3178
g312
tp3179
a(Vgreat
p3180
g11
tp3181
aasI382
(lp3182
sI383
(lp3183
sI384
(lp3184
sI385
(lp3185
sI386
(lp3186
sI387
(lp3187
(lp3188
(Vthe
p3189
g51
tp3190
a(Vfunnest
p3191
g168
tp3192
aa(lp3193
g3192
a(Vgame
p3194
g14
tp3195
aasI388
(lp3196
sI389
(lp3197
(lp3198
(VTotally
p3199
g4
tp3200
a(Vdifferent
p3201
g11
tp3202
aa(lp3203
g3202
a(Vview
p3204
g14
tp3205
aasI390
(lp3206
sI391
(lp3207
(lp3208
(Vis
p3209
g312
tp3210
a(Vgreat
p3211
g11
tp3212
aasI392
(lp3213
(lp3214
(VBest
p3215
g168
tp3216
a(Vapp
p3217
g14
tp3218
aasI393
(lp3219
(lp3220
(Vad
p3221
g14
tp3222
a(Vfree
p3223
g11
tp3224
aa(lp3225
(Vstill
p3226
g4
tp3227
a(Vgetting
p3228
g134
tp3229
aasI394
(lp3230
sI395
(lp3231
sI396
(lp3232
sI397
(lp3233
(lp3234
(VTotally
p3235
g4
tp3236
a(Vdifferent
p3237
g11
tp3238
aa(lp3239
g3238
a(Vview
p3240
g14
tp3241
aasI398
(lp3242
sI399
(lp3243
(lp3244
(VJust
p3245
g4
tp3246
a(Vgot
p3247
g162
tp3248
aasI400
(lp3249
(lp3250
(Vis
p3251
g312
tp3252
a(Vgreat
p3253
g11
tp3254
aasI401
(lp3255
sI402
(lp3256
(lp3257
(VBest
p3258
g168
tp3259
a(Vapp
p3260
g14
tp3261
aasI403
(lp3262
sI404
(lp3263
(lp3264
(Vangry
p3265
g11
tp3266
a(Vbirds
p3267
g47
tp3268
aa(lp3269
(Vangry
p3270
g11
tp3271
a(Vbirds
p3272
g47
tp3273
aasI405
(lp3274
sI406
(lp3275
(lp3276
(Vad
p3277
g14
tp3278
a(Vfree
p3279
g11
tp3280
aa(lp3281
(Vstill
p3282
g4
tp3283
a(Vgetting
p3284
g134
tp3285
aasI407
(lp3286
sI408
(lp3287
sI409
(lp3288
sI410
(lp3289
sI411
(lp3290
(lp3291
(Vmuch
p3292
g4
tp3293
a(Vfun
p3294
g67
tp3295
aasI412
(lp3296
(lp3297
(VJust
p3298
g4
tp3299
a(Vgot
p3300
g162
tp3301
aasI413
(lp3302
sI414
(lp3303
sI415
(lp3304
sI416
(lp3305
sI417
(lp3306
(lp3307
(Vangry
p3308
g11
tp3309
a(Vbirds
p3310
g47
tp3311
aa(lp3312
(Vangry
p3313
g11
tp3314
a(Vbirds
p3315
g47
tp3316
aasI418
(lp3317
sI419
(lp3318
sI420
(lp3319
sI421
(lp3320
sI422
(lp3321
(lp3322
(Vmuch
p3323
g4
tp3324
a(Vfun
p3325
g67
tp3326
aasI423
(lp3327
sI424
(lp3328
(lp3329
(VBest
p3330
g168
tp3331
a(Vangry
p3332
g14
tp3333
aasI425
(lp3334
sI426
(lp3335
sI427
(lp3336
(lp3337
(Vangry
p3338
g11
tp3339
a(Vbirds
p3340
g47
tp3341
aa(lp3342
(Vangry
p3343
g11
tp3344
a(Vbirds
p3345
g47
tp3346
aasI428
(lp3347
sI429
(lp3348
sI430
(lp3349
sI431
(lp3350
sI432
(lp3351
(lp3352
(Vmuch
p3353
g4
tp3354
a(Vfun
p3355
g67
tp3356
aasI433
(lp3357
sI434
(lp3358
sI435
(lp3359
(lp3360
(VThe
p3361
g51
tp3362
a(Vnew
p3363
g11
tp3364
aa(lp3365
g3364
a(Vpink
p3366
g14
tp3367
aa(lp3368
(Vpretty
p3369
g4
tp3370
a(Vcool
p3371
g11
tp3372
aa(lp3373
(Vnew
p3374
g11
tp3375
a(Vpower
p3376
g14
tp3377
aasI436
(lp3378
(lp3379
(V3yr
p3380
g11
tp3381
a(Vold
p3382
g11
tp3383
aa(lp3384
g3383
a(Vgson
p3385
g14
tp3386
aasI437
(lp3387
(lp3388
(Vvery
p3389
g4
tp3390
a(Vaddicting
p3391
g134
tp3392
aa(lp3393
(Vvery
p3394
g4
tp3395
a(Vnice
p3396
g11
tp3397
aasI438
(lp3398
sI439
(lp3399
sI440
(lp3400
sI441
(lp3401
sI442
(lp3402
sI443
(lp3403
sI444
(lp3404
(lp3405
(g50
g51
tp3406
a(Vnew
p3407
g11
tp3408
aa(lp3409
g3408
a(Vgame
p3410
g14
tp3411
aasI445
(lp3412
sI446
(lp3413
sI447
(lp3414
(lp3415
(VThe
p3416
g51
tp3417
a(Vnew
p3418
g11
tp3419
aa(lp3420
g3419
a(Vpink
p3421
g14
tp3422
aa(lp3423
(Vpretty
p3424
g4
tp3425
a(Vcool
p3426
g11
tp3427
aa(lp3428
(Vnew
p3429
g11
tp3430
a(Vpower
p3431
g14
tp3432
aasI448
(lp3433
(lp3434
(V3yr
p3435
g11
tp3436
a(Vold
p3437
g11
tp3438
aa(lp3439
g3438
a(Vgson
p3440
g14
tp3441
aasI449
(lp3442
(lp3443
(Vvery
p3444
g4
tp3445
a(Vaddicting
p3446
g134
tp3447
aa(lp3448
(Vvery
p3449
g4
tp3450
a(Vnice
p3451
g11
tp3452
aasI450
(lp3453
sI451
(lp3454
sI452
(lp3455
sI453
(lp3456
sI454
(lp3457
sI455
(lp3458
(lp3459
(g50
g51
tp3460
a(Vnew
p3461
g11
tp3462
aa(lp3463
g3462
a(Vgame
p3464
g14
tp3465
aasI456
(lp3466
sI457
(lp3467
(lp3468
(Van
p3469
g51
tp3470
a(Vupdate
p3471
g11
tp3472
aa(lp3473
(Vn't
p3474
g4
tp3475
a(Vmove
p3476
g7
tp3477
aa(lp3478
(Vthe
p3479
g51
tp3480
a(Vsecond
p3481
g11
tp3482
aa(lp3483
g3482
a(Vlevel
p3484
g14
tp3485
aa(lp3486
(Vgreatest
p3487
g168
tp3488
a(Vgame
p3489
g14
tp3490
aasI458
(lp3491
sI459
(lp3492
(lp3493
(VThe
p3494
g51
tp3495
a(Vnew
p3496
g11
tp3497
aa(lp3498
g3497
a(Vpink
p3499
g14
tp3500
aa(lp3501
(Vpretty
p3502
g4
tp3503
a(Vcool
p3504
g11
tp3505
aa(lp3506
(Vnew
p3507
g11
tp3508
a(Vpower
p3509
g14
tp3510
aasI460
(lp3511
sI461
(lp3512
(lp3513
(Vvery
p3514
g4
tp3515
a(Vaddicting
p3516
g134
tp3517
aa(lp3518
(Vvery
p3519
g4
tp3520
a(Vnice
p3521
g11
tp3522
aasI462
(lp3523
sI463
(lp3524
sI464
(lp3525
sI465
(lp3526
sI466
(lp3527
(lp3528
(Van
p3529
g51
tp3530
a(Vupdate
p3531
g11
tp3532
aa(lp3533
(Vn't
p3534
g4
tp3535
a(Vmove
p3536
g7
tp3537
aa(lp3538
(Vthe
p3539
g51
tp3540
a(Vsecond
p3541
g11
tp3542
aa(lp3543
g3542
a(Vlevel
p3544
g14
tp3545
aa(lp3546
(Vgreatest
p3547
g168
tp3548
a(Vgame
p3549
g14
tp3550
aasI467
(lp3551
(lp3552
(Vcharacters
p3553
g47
tp3554
a(Vnew
p3555
g11
tp3556
aasI468
(lp3557
sI469
(lp3558
sI470
(lp3559
sI471
(lp3560
sI472
(lp3561
sI473
(lp3562
sI474
(lp3563
(lp3564
(Van
p3565
g51
tp3566
a(Vupdate
p3567
g11
tp3568
aa(lp3569
(Vn't
p3570
g4
tp3571
a(Vmove
p3572
g7
tp3573
aa(lp3574
(Vthe
p3575
g51
tp3576
a(Vsecond
p3577
g11
tp3578
aa(lp3579
g3578
a(Vlevel
p3580
g14
tp3581
aa(lp3582
(Vgreatest
p3583
g168
tp3584
a(Vgame
p3585
g14
tp3586
aasI475
(lp3587
(lp3588
(Vcharacters
p3589
g47
tp3590
a(Vnew
p3591
g11
tp3592
aasI476
(lp3593
sI477
(lp3594
sI478
(lp3595
sI479
(lp3596
(lp3597
(VReally
p3598
g4
tp3599
a(Vwonder
p3600
g552
tp3601
aasI480
(lp3602
sI481
(lp3603
sI482
(lp3604
sI483
(lp3605
sI484
(lp3606
sI485
(lp3607
(lp3608
(Vvery
p3609
g4
tp3610
a(Vaddictive
p3611
g11
tp3612
aa(lp3613
g3612
a(Vgame
p3614
g14
tp3615
aasI486
(lp3616
sI487
(lp3617
(lp3618
(Vcharacters
p3619
g47
tp3620
a(Vnew
p3621
g11
tp3622
aasI488
(lp3623
sI489
(lp3624
(lp3625
(VReally
p3626
g4
tp3627
a(Vwonder
p3628
g552
tp3629
aasI490
(lp3630
(lp3631
(Vis
p3632
g312
tp3633
a(Vnice
p3634
g11
tp3635
aasI491
(lp3636
sI492
(lp3637
sI493
(lp3638
sI494
(lp3639
sI495
(lp3640
sI496
(lp3641
(lp3642
(VThe
p3643
g51
tp3644
a(Vnew
p3645
g11
tp3646
aa(lp3647
g3646
a(Vpowers
p3648
g47
tp3649
aasI497
(lp3650
(lp3651
(Vvery
p3652
g4
tp3653
a(Vaddictive
p3654
g11
tp3655
aa(lp3656
g3655
a(Vgame
p3657
g14
tp3658
aasI498
(lp3659
sI499
(lp3660
sI500
(lp3661
(lp3662
(Vis
p3663
g312
tp3664
a(Vnice
p3665
g11
tp3666
aasI501
(lp3667
sI502
(lp3668
sI503
(lp3669
(lp3670
(Vtotally
p3671
g4
tp3672
a(Vaddictive
p3673
g11
tp3674
aa(lp3675
(Vutterly
p3676
g4
tp3677
a(Vbrilliant
p3678
g11
tp3679
aasI504
(lp3680
(lp3681
(VBrilliant
p3682
g11
tp3683
a(Vgraphics
p3684
g47
tp3685
aa(lp3686
(Vautomatic
p3687
g11
tp3688
a(Vimo
p3689
g14
tp3690
aasI505
(lp3691
(lp3692
(Vso
p3693
g4
tp3694
a(Vaddicted
p3695
g67
tp3696
aa(lp3697
(VThe
p3698
g51
tp3699
a(Vonly
p3700
g11
tp3701
aa(lp3702
g3701
a(Vreason
p3703
g14
tp3704
aa(lp3705
(Vn't
p3706
g4
tp3707
a(Vget
p3708
g7
tp3709
aasI506
(lp3710
(lp3711
(Vtotally
p3712
g4
tp3713
a(Vaddictive
p3714
g11
tp3715
aa(lp3716
(Vutterly
p3717
g4
tp3718
a(Vbrilliant
p3719
g11
tp3720
aasI507
(lp3721
(lp3722
(VBrilliant
p3723
g11
tp3724
a(Vgraphics
p3725
g47
tp3726
aa(lp3727
(Vautomatic
p3728
g11
tp3729
a(Vimo
p3730
g14
tp3731
aasI508
(lp3732
(lp3733
(Vso
p3734
g4
tp3735
a(Vaddicted
p3736
g67
tp3737
aa(lp3738
(VThe
p3739
g51
tp3740
a(Vonly
p3741
g11
tp3742
aa(lp3743
g3742
a(Vreason
p3744
g14
tp3745
aa(lp3746
(Vn't
p3747
g4
tp3748
a(Vget
p3749
g7
tp3750
aasI509
(lp3751
(lp3752
(g50
g51
tp3753
a(Vgreat
p3754
g11
tp3755
aa(lp3756
g3755
a(Vgame
p3757
g14
tp3758
aa(lp3759
(g50
g51
tp3760
a(Vnew
p3761
g11
tp3762
aa(lp3763
g3762
a(Vtwist
p3764
g14
tp3765
aa(lp3766
(Vfavorite
p3767
g11
tp3768
a(Vgame
p3769
g14
tp3770
aasI510
(lp3771
(lp3772
(Vreally
p3773
g4
tp3774
a(Vetchy
p3775
g11
tp3776
aa(lp3777
(Vpretty
p3778
g4
tp3779
a(Vfun
p3780
g67
tp3781
aasI511
(lp3782
(lp3783
(Vpretty
p3784
g4
tp3785
a(Vgood
p3786
g11
tp3787
aa(lp3788
g3787
a(Vgame
p3789
g14
tp3790
aasI512
(lp3791
(lp3792
(Vn't
p3793
g4
tp3794
a(Vneed
p3795
g7
tp3796
aasI513
(lp3797
(lp3798
(Vlast
p3799
g11
tp3800
a(Vupdate
p3801
g14
tp3802
aa(lp3803
(VNever
p3804
g4
tp3805
a(Vhad
p3806
g162
tp3807
aasI514
(lp3808
(lp3809
(Vlower
p3810
g552
tp3811
a(Vstars
p3812
g47
tp3813
aa(lp3814
(Vthis
p3815
g51
tp3816
a(Vlast
p3817
g11
tp3818
aa(lp3819
g3818
a(Vupdate
p3820
g14
tp3821
aa(lp3822
(g50
g51
tp3823
a(Vsecond
p3824
g11
tp3825
aa(lp3826
(Valways
p3827
g4
tp3828
a(Vdie
p3829
g7
tp3830
aa(lp3831
(Vthe
p3832
g51
tp3833
a(Vfree
p3834
g11
tp3835
aa(lp3836
g3835
a(Vcoin
p3837
g14
tp3838
aasI515
(lp3839
(lp3840
(Vhigh
p3841
g11
tp3842
a(Vscore
p3843
g14
tp3844
aa(lp3845
(Veven
p3846
g4
tp3847
a(Vwent
p3848
g162
tp3849
aa(lp3850
(Vall
p3851
g51
tp3852
a(Vother
p3853
g11
tp3854
aa(lp3855
g3854
a(VApps
p3856
g47
tp3857
aa(lp3858
(g50
g51
tp3859
a(Vgreat
p3860
g11
tp3861
aasI516
(lp3862
(lp3863
(Vmindless
p3864
g11
tp3865
a(Vgames
p3866
g47
tp3867
aa(lp3868
g3867
a(Vsuch
p3869
g11
tp3870
aa(lp3871
(Vangry
p3872
g11
tp3873
a(Vbirds
p3874
g47
tp3875
aa(lp3876
(Vso
p3877
g4
tp3878
a(Vdifferent
p3879
g11
tp3880
aa(lp3881
(Vso
p3882
g4
tp3883
a(Vaddicted
p3884
g67
tp3885
aasI517
(lp3886
(lp3887
(Vtoo
p3888
g4
tp3889
a(Vmany
p3890
g11
tp3891
aa(lp3892
g3891
a(Vtimes
p3893
g47
tp3894
aa(lp3895
(VAlso
p3896
g4
tp3897
a(Vhome
p3898
g162
tp3899
aa(lp3900
(Vn't
p3901
g4
tp3902
a(Vfit
p3903
g7
tp3904
aa(lp3905
(Vactual
p3906
g11
tp3907
a(Vscreen
p3908
g14
tp3909
aasI518
(lp3910
(lp3911
(Vn't
p3912
g4
tp3913
a(Vrate
p3914
g7
tp3915
aasI519
(lp3916
(lp3917
(VBrilliant
p3918
g11
tp3919
a(Vgame
p3920
g14
tp3921
aa(lp3922
(Vvery
p3923
g4
tp3924
a(Vaddictive
p3925
g11
tp3926
aa(lp3927
(Vgame
p3928
g14
tp3929
a(Vflat
p3930
g11
tp3931
aa(lp3932
(Vthe
p3933
g51
tp3934
a(Vpast
p3935
g11
tp3936
aa(lp3937
g3936
a(Vhour
p3938
g14
tp3939
aasI520
(lp3940
(lp3941
(Vjust
p3942
g4
tp3943
a(Vmore
p3944
g552
tp3945
aa(lp3946
(Vthe
p3947
g51
tp3948
a(Vsame
p3949
g11
tp3950
aa(lp3951
(Vnot
p3952
g4
tp3953
a(Vok
p3954
g7
tp3955
aa(lp3956
(Vthe
p3957
g51
tp3958
a(Vconstant
p3959
g11
tp3960
aa(lp3961
g3960
a(Vgegging
p3962
g14
tp3963
aa(lp3964
(Vother
p3965
g11
tp3966
a(Vapps
p3967
g47
tp3968
aa(lp3969
(Vbuy
p3970
g14
tp3971
a(Vmore
p3972
g552
tp3973
aa(lp3974
g3973
a(Vcoins
p3975
g47
tp3976
aa(lp3977
(Vreally
p3978
g4
tp3979
a(Vannoying
p3980
g134
tp3981
aasI521
(lp3982
(lp3983
(Vbetween..after
p3984
g11
tp3985
a(Vrunning
p3986
g14
tp3987
aasI522
(lp3988
(lp3989
(Vjust
p3990
g4
tp3991
a(Vgot
p3992
g162
tp3993
aa(lp3994
(g50
g51
tp3995
a(Vnew
p3996
g11
tp3997
aa(lp3998
(Vn't
p3999
g4
tp4000
a(Vstop
p4001
g7
tp4002
aasI523
(lp4003
(lp4004
(Vthe
p4005
g51
tp4006
a(Vbest
p4007
g168
tp4008
aa(lp4009
g4008
a(Vgame
p4010
g14
tp4011
aa(lp4012
(Vginger
p4013
g552
tp4014
a(Vbread
p4015
g14
tp4016
aa(lp4017
(Vrecently
p4018
g4
tp4019
a(Vupdated
p4020
g67
tp4021
aa(lp4022
(Vnot
p4023
g4
tp4024
a(Vgoing
p4025
g134
tp4026
aasI524
(lp4027
(lp4028
(g50
g51
tp4029
a(Vsimple
p4030
g11
tp4031
aa(lp4032
g4031
a(Vgame
p4033
g14
tp4034
aa(lp4035
(Vso
p4036
g4
tp4037
a(Vrare
p4038
g11
tp4039
aa(lp4040
(Vfree
p4041
g11
tp4042
a(Vgame
p4043
g14
tp4044
aa(lp4045
(Vno
p4046
g51
tp4047
a(Vintrusive
p4048
g11
tp4049
aa(lp4050
g4049
a(Vads
p4051
g47
tp4052
aasI525
(lp4053
(lp4054
(VToo
p4055
g4
tp4056
a(Vbad
p4057
g11
tp4058
aa(lp4059
(g50
g51
tp4060
a(Vgreat
p4061
g11
tp4062
aa(lp4063
g4062
a(Vgame
p4064
g14
tp4065
aasI526
(lp4066
(lp4067
(Vso
p4068
g4
tp4069
a(VAddictive
p4070
g11
tp4071
aa(lp4072
(Vnot
p4073
g4
tp4074
a(Vget
p4075
g7
tp4076
aasI527
(lp4077
(lp4078
(Vn't
p4079
g4
tp4080
a(Vlose
p4081
g7
tp4082
aasI528
(lp4083
(lp4084
(Veven
p4085
g4
tp4086
a(Vcount
p4087
g7
tp4088
aa(lp4089
(Vnever
p4090
g4
tp4091
a(Vhappened
p4092
g67
tp4093
aa(lp4094
(Vn
p4095
g11
tp4096
a(Vu
p4097
g14
tp4098
aasI529
(lp4099
(lp4100
(g50
g51
tp4101
a(Vhard
p4102
g11
tp4103
aa(lp4104
g4103
a(Vreset
p4105
g14
tp4106
aa(lp4107
(Vsomething
p4108
g14
tp4109
a(Vother
p4110
g11
tp4111
aa(lp4112
(Vjungle
p4113
g11
tp4114
a(Vbridges
p4115
g47
tp4116
aasI530
(lp4117
(lp4118
(g50
g51
tp4119
a(Vcertain
p4120
g11
tp4121
aa(lp4122
g4121
a(Vstage
p4123
g14
tp4124
aa(lp4125
(Vsuch
p4126
g11
tp4127
a(Vspeeds
p4128
g47
tp4129
aa(lp4130
(Vspecial
p4131
g11
tp4132
a(Vpowers
p4133
g47
tp4134
aasI531
(lp4135
(lp4136
(Vstop
p4137
g11
tp4138
a(Vplaying
p4139
g14
tp4140
aa(lp4141
(Vthe
p4142
g51
tp4143
a(Vonly
p4144
g11
tp4145
aa(lp4146
g4145
a(Vproble
p4147
g11
tp4148
aa(lp4149
(Vown
p4150
g11
tp4151
a(Vplz
p4152
g14
tp4153
aasI532
(lp4154
(lp4155
(Vgraphically
p4156
g4
tp4157
a(Vamazing.but
p4158
g11
tp4159
aa(lp4160
(Vthe
p4161
g51
tp4162
a(Vbest
p4163
g168
tp4164
aa(lp4165
g4164
a(Vfree
p4166
g11
tp4167
aasI533
(lp4168
sI534
(lp4169
(lp4170
(Vis
p4171
g312
tp4172
a(Vsuch
p4173
g11
tp4174
aa(lp4175
(g50
g51
tp4176
a(Vgreat
p4177
g11
tp4178
aa(lp4179
g4178
a(Vgame
p4180
g14
tp4181
aa(lp4182
(Vmore
p4183
g552
tp4184
a(Vinteresting
p4185
g11
tp4186
aa(lp4187
(Vgreat
p4188
g11
tp4189
a(Vjob
p4190
g14
tp4191
aasI535
(lp4192
sI536
(lp4193
(lp4194
(VMost
p4195
g168
tp4196
a(Vbrilliant
p4197
g11
tp4198
aa(lp4199
g4198
a(Vgame
p4200
g14
tp4201
aa(lp4202
(Vn't
p4203
g4
tp4204
a(Vplay
p4205
g7
tp4206
aasI537
(lp4207
(lp4208
(Vgreat
p4209
g11
tp4210
a(Vgreat
p4211
g11
tp4212
aa(lp4213
g4212
a(Vgreat
p4214
g11
tp4215
aa(lp4216
g4215
a(Vlil
p4217
g14
tp4218
aasI538
(lp4219
(lp4220
(Vn't
p4221
g4
tp4222
a(Vdiminish
p4223
g7
tp4224
aa(lp4225
(Vgood
p4226
g11
tp4227
a(Vfun
p4228
g14
tp4229
aasI539
(lp4230
(lp4231
(Vlittle
p4232
g4
tp4233
a(Vslow
p4234
g11
tp4235
aasI540
(lp4236
(lp4237
(VThe
p4238
g51
tp4239
a(Vbest
p4240
g168
tp4241
aa(lp4242
g4241
a(Vgame
p4243
g14
tp4244
aasI541
(lp4245
(lp4246
(Vmost
p4247
g208
tp4248
a(Vawesome
p4249
g11
tp4250
aa(lp4251
g4250
a(Vgames
p4252
g47
tp4253
aa(lp4254
(Vever
p4255
g4
tp4256
a(Vplayed
p4257
g67
tp4258
aasI542
(lp4259
(lp4260
(Vamusing
p4261
g11
tp4262
a(Vwaste
p4263
g14
tp4264
aa(lp4265
(g50
g51
tp4266
a(Vgood
p4267
g11
tp4268
aa(lp4269
g4268
a(Vway
p4270
g14
tp4271
aasI543
(lp4272
(lp4273
(Vis
p4274
g312
tp4275
a(Veasy
p4276
g11
tp4277
aa(lp4278
(g50
g51
tp4279
a(Vgood
p4280
g11
tp4281
aa(lp4282
g4281
a(Vquality
p4283
g14
tp4284
aa(lp4285
(g50
g51
tp4286
a(Vtime-wasting
p4287
g11
tp4288
aasI544
(lp4289
(lp4290
(Vreally
p4291
g4
tp4292
a(Vslow
p4293
g11
tp4294
aasI545
(lp4295
sI546
(lp4296
(lp4297
(VReally
p4298
g4
tp4299
a(Vgood
p4300
g11
tp4301
aa(lp4302
g4301
a(Vgame
p4303
g14
tp4304
aa(lp4305
(Vgets
p4306
g312
tp4307
a(Vbetter
p4308
g552
tp4309
aa(lp4310
(Vother
p4311
g11
tp4312
a(Vgames
p4313
g47
tp4314
aasI547
(lp4315
(lp4316
(Vjust
p4317
g4
tp4318
a(Vgot
p4319
g162
tp4320
aa(lp4321
(Vthe
p4322
g51
tp4323
a(Vnew
p4324
g11
tp4325
aa(lp4326
g4325
a(Vupdate
p4327
g14
tp4328
aa(lp4329
(Vnever
p4330
g4
tp4331
a(Vlagged
p4332
g67
tp4333
aa(lp4334
(Vnew
p4335
g11
tp4336
a(Vgames
p4337
g47
tp4338
aa(lp4339
(Vis
p4340
g312
tp4341
a(Vunmanageable
p4342
g11
tp4343
aa(lp4344
(Vn't
p4345
g4
tp4346
a(Vwant
p4347
g7
tp4348
aasI548
(lp4349
(lp4350
(Vvery
p4351
g4
tp4352
a(Vnifty
p4353
g11
tp4354
aa(lp4355
g4354
a(Vlittle
p4356
g11
tp4357
aa(lp4358
g4357
a(Vtime
p4359
g14
tp4360
aa(lp4361
(g50
g51
tp4362
a(Vquick
p4363
g11
tp4364
aa(lp4365
g4364
a(Vgame
p4366
g14
tp4367
aa(lp4368
(Vis
p4369
g312
tp4370
a(Venjoyable
p4371
g11
tp4372
aasI549
(lp4373
(lp4374
(Vthe
p4375
g51
tp4376
a(Vsame
p4377
g11
tp4378
aa(lp4379
(Vis
p4380
g312
tp4381
a(Vfull
p4382
g11
tp4383
aasI550
(lp4384
sI551
(lp4385
sI552
(lp4386
sI553
(lp4387
sI554
(lp4388
(lp4389
(Vlive
p4390
g11
tp4391
a(Vwater
p4392
g14
tp4393
aasI555
(lp4394
sI556
(lp4395
(lp4396
(Vso
p4397
g4
tp4398
a(Veasy
p4399
g11
tp4400
aasI557
(lp4401
(lp4402
(Vvery
p4403
g4
tp4404
a(Vfun
p4405
g67
tp4406
aasI558
(lp4407
sI559
(lp4408
(lp4409
(Vn't
p4410
g4
tp4411
a(Vknow
p4412
g7
tp4413
aa(lp4414
(VThe
p4415
g51
tp4416
a(Vother
p4417
g11
tp4418
aa(lp4419
g4418
a(Vhalf
p4420
g14
tp4421
aasI560
(lp4422
sI561
(lp4423
(lp4424
(Vthe
p4425
g51
tp4426
a(Vnew
p4427
g11
tp4428
aa(lp4429
g4428
a(Vupdate
p4430
g14
tp4431
aa(lp4432
(Vis
p4433
g312
tp4434
a(Vperfect
p4435
g11
tp4436
aa(lp4437
(Vaccidentally
p4438
g4
tp4439
a(Vbuying
p4440
g134
tp4441
aa(lp4442
(Vthe
p4443
g51
tp4444
a(Vworst
p4445
g168
tp4446
aasI562
(lp4447
(lp4448
(Vreally
p4449
g4
tp4450
a(Vfun
p4451
g67
tp4452
aasI563
(lp4453
(lp4454
(Vgoes
p4455
g312
tp4456
a(Vfaster
p4457
g552
tp4458
aa(lp4459
(Vnot
p4460
g4
tp4461
a(Vwrong
p4462
g11
tp4463
aasI564
(lp4464
sI565
(lp4465
(lp4466
(Vslightly
p4467
g4
tp4468
a(Vunresponsive
p4469
g11
tp4470
aasI566
(lp4471
(lp4472
(VOverall
p4473
g11
tp4474
a(Venjoy
p4475
g14
tp4476
aa(lp4477
(Vmultiple
p4478
g11
tp4479
a(Vlevels
p4480
g47
tp4481
aa(lp4482
(Vsome
p4483
g51
tp4484
a(Vexcess
p4485
g11
tp4486
aa(lp4487
g4486
a(Vtime
p4488
g14
tp4489
aasI567
(lp4490
(lp4491
(Valso
p4492
g4
tp4493
a(Vloved
p4494
g67
tp4495
aa(lp4496
(Vnot
p4497
g4
tp4498
a(Vdisappointed
p4499
g67
tp4500
aa(lp4501
(Vstill
p4502
g4
tp4503
a(Vgreat
p4504
g11
tp4505
aasI568
(lp4506
(lp4507
(Vis
p4508
g312
tp4509
a(Vgreat
p4510
g11
tp4511
aa(lp4512
(Vfun
p4513
g14
tp4514
a(Vaddictive
p4515
g11
tp4516
aa(lp4517
(Vthe
p4518
g51
tp4519
a(Vonly
p4520
g11
tp4521
aa(lp4522
g4521
a(Vdowner
p4523
g14
tp4524
aa(lp4525
(Vn't
p4526
g4
tp4527
a(Vwanted
p4528
g67
tp4529
aasI569
(lp4530
(lp4531
(Vvery
p4532
g4
tp4533
a(Vgood
p4534
g11
tp4535
aa(lp4536
(Vthe
p4537
g51
tp4538
a(Vfirst
p4539
g11
tp4540
aa(lp4541
g4540
a(Vtime
p4542
g14
tp4543
aa(lp4544
(Voften
p4545
g4
tp4546
a(Vcausing
p4547
g134
tp4548
aa(lp4549
(Vjust
p4550
g4
tp4551
a(Vbe
p4552
g7
tp4553
aa(lp4554
(Vnext
p4555
g11
tp4556
a(Vobjective
p4557
g14
tp4558
aasI570
(lp4559
(lp4560
(g50
g51
tp4561
a(Vgreat
p4562
g11
tp4563
aa(lp4564
g4563
a(Vgame
p4565
g14
tp4566
aasI571
(lp4567
(lp4568
(Vvery
p4569
g4
tp4570
a(Vchallenging
p4571
g134
tp4572
aa(lp4573
(VLast
p4574
g11
tp4575
a(Vfew
p4576
g11
tp4577
aa(lp4578
g4577
a(Vupdates
p4579
g47
tp4580
aa(lp4581
(Vn't
p4582
g4
tp4583
a(Vthink
p4584
g7
tp4585
aa(lp4586
(g50
g51
tp4587
a(Vless
p4588
g552
tp4589
aa(lp4590
g4589
a(Vgraphical
p4591
g11
tp4592
aa(lp4593
g4592
a(Vgame
p4594
g14
tp4595
aa(lp4596
(Volder
p4597
g552
tp4598
a(Vdevices
p4599
g47
tp4600
aasI572
(lp4601
(lp4602
(Vsmall
p4603
g11
tp4604
a(Vissue
p4605
g14
tp4606
aa(lp4607
(Vactually
p4608
g4
tp4609
a(Vwant
p4610
g7
tp4611
aa(lp4612
(Vthe
p4613
g51
tp4614
a(Vdouble
p4615
g11
tp4616
aa(lp4617
g4616
a(Vtap
p4618
g14
tp4619
aa(lp4620
(Voverly
p4621
g4
tp4622
a(Vsensitive
p4623
g11
tp4624
aa(lp4625
(g50
g51
tp4626
a(Vgreat
p4627
g11
tp4628
aa(lp4629
g4628
a(Vway
p4630
g14
tp4631
aasI573
(lp4632
(lp4633
(VAddictive
p4634
g11
tp4635
a(Vfun
p4636
g14
tp4637
aasI574
(lp4638
(lp4639
(Valways
p4640
g4
tp4641
a(Vloved
p4642
g162
tp4643
aa(lp4644
(Vthe
p4645
g51
tp4646
a(Vonly
p4647
g11
tp4648
aa(lp4649
g4648
a(Vreason
p4650
g14
tp4651
aa(lp4652
(g50
g51
tp4653
a(Vlittle
p4654
g11
tp4655
aa(lp4656
g4655
a(Vjumpy
p4657
g14
tp4658
aa(lp4659
(Vworks
p4660
g312
tp4661
a(Vgreat
p4662
g11
tp4663
aa(lp4664
(g50
g51
tp4665
a(Vsmaller
p4666
g552
tp4667
aa(lp4668
g4667
a(Vscreen
p4669
g14
tp4670
aasI575
(lp4671
(lp4672
(g50
g51
tp4673
a(Vpowerful
p4674
g11
tp4675
aa(lp4676
g4675
a(Vphone
p4677
g14
tp4678
aasI576
(lp4679
(lp4680
(V.i
p4681
g11
tp4682
a(Vcant
p4683
g14
tp4684
aa(lp4685
(Vvery
p4686
g4
tp4687
a(Vaddictive
p4688
g11
tp4689
aa(lp4690
g4689
a(Vgive
p4691
g11
tp4692
aasI577
(lp4693
(lp4694
(Vjust
p4695
g4
tp4696
a(Vrunning
p4697
g134
tp4698
aa(lp4699
(g50
g51
tp4700
a(Vlong
p4701
g11
tp4702
aa(lp4703
g4702
a(Vride
p4704
g14
tp4705
aa(lp4706
(Vjust
p4707
g4
tp4708
a(Vsitting
p4709
g134
tp4710
aa(lp4711
(Vtime
p4712
g14
tp4713
a(Vuseful
p4714
g11
tp4715
aa(lp4716
(g50
g51
tp4717
a(Vgreat
p4718
g11
tp4719
aa(lp4720
g4719
a(Vgame
p4721
g14
tp4722
aasI578
(lp4723
(lp4724
(Vthe
p4725
g51
tp4726
a(Vwhole
p4727
g11
tp4728
aa(lp4729
g4728
a(Vgame
p4730
g14
tp4731
aa(lp4732
(g50
g51
tp4733
a(Vbig
p4734
g11
tp4735
aa(lp4736
g4735
a(Vbother
p4737
g14
tp4738
aa(lp4739
(g50
g51
tp4740
a(Vgreat
p4741
g11
tp4742
aa(lp4743
g4742
a(Vgame
p4744
g14
tp4745
aasI579
(lp4746
sI580
(lp4747
(lp4748
(Vmost
p4749
g208
tp4750
a(Vfun
p4751
g11
tp4752
aa(lp4753
g4752
a(Vgame
p4754
g14
tp4755
aa(lp4756
(Vever
p4757
g4
tp4758
a(Vplayed
p4759
g67
tp4760
aasI581
(lp4761
(lp4762
(VAlways
p4763
g4
tp4764
a(Vtrying
p4765
g134
tp4766
aa(lp4767
(Vbest
p4768
g168
tp4769
a(Vscore
p4770
g14
tp4771
aasI582
(lp4772
(lp4773
(Vlittle
p4774
g11
tp4775
a(Vbug
p4776
g14
tp4777
aa(lp4778
(Vthe
p4779
g51
tp4780
a(Vrocky
p4781
g11
tp4782
aa(lp4783
g4782
a(Vpath
p4784
g14
tp4785
aa(lp4786
(Vnot
p4787
g4
tp4788
a(Vtake
p4789
g7
tp4790
aasI583
(lp4791
(lp4792
(g50
g51
tp4793
a(Vsecond
p4794
g11
tp4795
aa(lp4796
(Vmany
p4797
g11
tp4798
a(Vtimes
p4799
g47
tp4800
aa(lp4801
(g50
g51
tp4802
a(Vgood
p4803
g11
tp4804
aa(lp4805
g4804
a(Vgame
p4806
g14
tp4807
aasI584
(lp4808
(lp4809
(g50
g51
tp4810
a(Vgood
p4811
g11
tp4812
aa(lp4813
g4812
a(Vgame
p4814
g14
tp4815
aa(lp4816
(g50
g51
tp4817
a(Vgood
p4818
g11
tp4819
aasI585
(lp4820
sI586
(lp4821
(lp4822
(Vnot
p4823
g4
tp4824
a(Vreal
p4825
g11
tp4826
aa(lp4827
g4826
a(Veasy
p4828
g11
tp4829
aasI587
(lp4830
(lp4831
(Vjust
p4832
g4
tp4833
a(Vcant
p4834
g11
tp4835
aa(lp4836
g4835
a(Vstop
p4837
g14
tp4838
aasI588
(lp4839
(lp4840
(Vbrand
p4841
g14
tp4842
a(Vnew
p4843
g11
tp4844
aa(lp4845
(Vn't
p4846
g4
tp4847
a(Vfreeze
p4848
g7
tp4849
aa(lp4850
(Vcertainly
p4851
g4
tp4852
a(Vnecessary
p4853
g11
tp4854
aasI589
(lp4855
(lp4856
(Vreally
p4857
g4
tp4858
a(Vfun
p4859
g11
tp4860
aa(lp4861
(Vworks
p4862
g47
tp4863
a(Vgreat
p4864
g11
tp4865
aasI590
(lp4866
(lp4867
(g50
g51
tp4868
a(Vbasic
p4869
g11
tp4870
aa(lp4871
g4870
a(Vgame
p4872
g14
tp4873
aa(lp4874
(g3029
g51
tp4875
a(Vgreat
p4876
g11
tp4877
aa(lp4878
g4877
a(Vtime
p4879
g14
tp4880
aa(lp4881
(Vthose
p4882
g51
tp4883
a(Vlong
p4884
g11
tp4885
aa(lp4886
g4885
a(Vbus
p4887
g14
tp4888
aasI591
(lp4889
(lp4890
(Vthen
p4891
g4
tp4892
a(Vput
p4893
g67
tp4894
aasI592
(lp4895
(lp4896
(Vonly
p4897
g4
tp4898
a(Vcomplaint
p4899
g11
tp4900
aa(lp4901
(Vso
p4902
g4
tp4903
a(Vgood
p4904
g11
tp4905
aa(lp4906
g4905
a(Vother
p4907
g11
tp4908
aasI593
(lp4909
(lp4910
(VThe
p4911
g51
tp4912
a(Vonly
p4913
g11
tp4914
aa(lp4915
g4914
a(Vthing
p4916
g14
tp4917
aasI594
(lp4918
(lp4919
(V.also
p4920
g4
tp4921
a(Vhaving
p4922
g134
tp4923
aa(lp4924
(Vmore
p4925
g552
tp4926
a(Voptions
p4927
g47
tp4928
aasI595
(lp4929
(lp4930
(Vmotive
p4931
g11
tp4932
a(Vskill
p4933
g14
tp4934
aa(lp4935
(Vnot
p4936
g4
tp4937
a(Vforget
p4938
g7
tp4939
aa(lp4940
(Vbig
p4941
g11
tp4942
a(Vscreen
p4943
g14
tp4944
aasI596
(lp4945
(lp4946
(Vreally
p4947
g4
tp4948
a(Vgood
p4949
g11
tp4950
aa(lp4951
g4950
a(Vgfx
p4952
g14
tp4953
aasI597
(lp4954
(lp4955
(Vreally
p4956
g4
tp4957
a(Vlove
p4958
g7
tp4959
aa(lp4960
(Vsoo
p4961
g14
tp4962
a(Vaddictive
p4963
g11
tp4964
aa(lp4965
(Vn't
p4966
g4
tp4967
a(Vrespond
p4968
g7
tp4969
aasI598
(lp4970
(lp4971
(Vn't
p4972
g4
tp4973
a(Vlag
p4974
g7
tp4975
aa(lp4976
(Vn't
p4977
g4
tp4978
a(Vexperienced
p4979
g67
tp4980
aasI599
(lp4981
(lp4982
(Vn't
p4983
g4
tp4984
a(Vclose
p4985
g7
tp4986
aa(lp4987
(Vnever
p4988
g4
tp4989
a(Vcontacted
p4990
g67
tp4991
aa(lp4992
(VBad
p4993
g11
tp4994
a(Vcustomer
p4995
g14
tp4996
aa(lp4997
(Vn't
p4998
g4
tp4999
a(Vknow
p5000
g7
tp5001
aa(lp5002
(Vn't
p5003
g4
tp5004
a(Vdeserve
p5005
g7
tp5006
aasI600
(lp5007
(lp5008
(Vso
p5009
g4
tp5010
a(Vexcited
p5011
g67
tp5012
aa(lp5013
(Vso
p5014
g4
tp5015
a(Vbad
p5016
g11
tp5017
aa(lp5018
(Vhardly
p5019
g4
tp5020
a(Vplay
p5021
g7
tp5022
aasI601
(lp5023
(lp5024
(g50
g51
tp5025
a(Vbrilliant
p5026
g11
tp5027
aa(lp5028
g5027
a(Vtime
p5029
g14
tp5030
aasI602
(lp5031
sI603
(lp5032
(lp5033
(Voccasional
p5034
g11
tp5035
a(Vlag
p5036
g14
tp5037
aa(lp5038
(Vn't
p5039
g4
tp5040
a(Vcomplain
p5041
g7
tp5042
aa(lp5043
(Vis
p5044
g312
tp5045
a(Vfree
p5046
g11
tp5047
aasI604
(lp5048
sI605
(lp5049
(lp5050
(Vfew
p5051
g11
tp5052
a(Vlife
p5053
g14
tp5054
aa(lp5055
(Vnot
p5056
g4
tp5057
a(Vwork
p5058
g7
tp5059
aasI606
(lp5060
(lp5061
(Vvery
p5062
g4
tp5063
a(Vaddictive
p5064
g11
tp5065
aa(lp5066
g5065
a(Vgame
p5067
g14
tp5068
aa(lp5069
(Vn't
p5070
g4
tp5071
a(Vwait
p5072
g7
tp5073
aa(lp5074
(Vmore
p5075
g552
tp5076
a(Vgames
p5077
g47
tp5078
aasI607
(lp5079
(lp5080
(Vis
p5081
g312
tp5082
a(Vinteresting
p5083
g11
tp5084
aa(lp5085
(Vnot
p5086
g4
tp5087
a(Vable
p5088
g11
tp5089
aasI608
(lp5090
(lp5091
(Vneeds
p5092
g312
tp5093
a(Vmore
p5094
g552
tp5095
aa(lp5096
g5095
a(Vversions
p5097
g47
tp5098
aa(lp5099
(Vis
p5100
g312
tp5101
a(Vother
p5102
g11
tp5103
aa(lp5104
g5103
a(Vgood
p5105
g11
tp5106
aa(lp5107
g5106
a(Vstuff
p5108
g14
tp5109
aa(lp5110
(g50
g51
tp5111
a(Vfish
p5112
g11
tp5113
aa(lp5114
g5113
a(Vgets
p5115
g47
tp5116
aasI609
(lp5117
(lp5118
(VHighly
p5119
g4
tp5120
a(Vaddictive
p5121
g11
tp5122
aa(lp5123
g5122
a(Vgame
p5124
g14
tp5125
aa(lp5126
(Van
p5127
g51
tp5128
a(Ventire
p5129
g11
tp5130
aa(lp5131
g5130
a(Vfamily
p5132
g14
tp5133
aa(lp5134
(Vold
p5135
g11
tp5136
a(V)
p5137
g14
tp5138
aasI610
(lp5139
(lp5140
(Vpretty
p5141
g4
tp5142
a(Vgood
p5143
g11
tp5144
aa(lp5145
(VPretty
p5146
g4
tp5147
a(Vgood
p5148
g11
tp5149
aasI611
(lp5150
(lp5151
(g50
g51
tp5152
a(Vfull
p5153
g11
tp5154
aasI612
(lp5155
(lp5156
(Vso
p5157
g4
tp5158
a(Vfun
p5159
g67
tp5160
aasI613
(lp5161
(lp5162
(Vn't
p5163
g4
tp5164
a(Vregister
p5165
g7
tp5166
aasI614
(lp5167
(lp5168
(g50
g51
tp5169
a(Vgreat
p5170
g11
tp5171
aa(lp5172
g5171
a(Vapp
p5173
g14
tp5174
aa(lp5175
(g50
g51
tp5176
a(Vgreat
p5177
g11
tp5178
aa(lp5179
g5178
a(Vtime
p5180
g14
tp5181
aasI615
(lp5182
(lp5183
(Vjust
p5184
g4
tp5185
a(Vwish
p5186
g11
tp5187
aa(lp5188
(VPOINTS
p5189
g47
tp5190
a(V2Day
p5191
g11
tp5192
aasI616
(lp5193
(lp5194
(Vthen
p5195
g4
tp5196
a(Vplay
p5197
g7
tp5198
aa(lp5199
(Vfar
p5200
g11
tp5201
a(g4097
g14
tp5202
aasI617
(lp5203
(lp5204
(g50
g51
tp5205
a(Vgreat
p5206
g11
tp5207
aa(lp5208
g5207
a(Vgame
p5209
g14
tp5210
aa(lp5211
(Vseveral
p5212
g11
tp5213
a(Vupdates
p5214
g47
tp5215
aa(lp5216
(Vthe
p5217
g51
tp5218
a(Vonly
p5219
g11
tp5220
aa(lp5221
g5220
a(Vsolution
p5222
g14
tp5223
aasI618
(lp5224
(lp5225
(Vjust
p5226
g4
tp5227
a(Vget
p5228
g7
tp5229
aa(lp5230
(Veven
p5231
g4
tp5232
a(Vmade
p5233
g67
tp5234
aasI619
(lp5235
(lp5236
(Vnever
p5237
g4
tp5238
a(Vbeen
p5239
g67
tp5240
aa(lp5241
(Vthe
p5242
g51
tp5243
a(Vfree
p5244
g11
tp5245
aa(lp5246
g5245
a(Vcoin
p5247
g14
tp5248
aa(lp5249
(Vnever
p5250
g4
tp5251
a(Vworked
p5252
g67
tp5253
aasI620
(lp5254
(lp5255
(VNot
p5256
g4
tp5257
a(Vsure
p5258
g11
tp5259
aa(lp5260
(Vthe
p5261
g51
tp5262
a(Vreal
p5263
g11
tp5264
aa(lp5265
g5264
a(Vreason
p5266
g14
tp5267
aa(lp5268
(Veven
p5269
g4
tp5270
a(Vclosed
p5271
g67
tp5272
aa(lp5273
(Vagain
p5274
g4
tp5275
a(Vtested
p5276
g67
tp5277
aasI621
(lp5278
(lp5279
(Vn't
p5280
g4
tp5281
a(Vget
p5282
g7
tp5283
aa(lp5284
(Vmany
p5285
g11
tp5286
a(Vphone
p5287
g14
tp5288
aasI622
(lp5289
(lp5290
(Vthe
p5291
g51
tp5292
a(Vbest
p5293
g168
tp5294
aa(lp5295
g5294
a(Vhandheld
p5296
g14
tp5297
aa(lp5298
(Vgets
p5299
g312
tp5300
a(Vmore
p5301
g552
tp5302
aa(lp5303
g5302
a(Vfun
p5304
g14
tp5305
aasI623
(lp5306
(lp5307
(Vso
p5308
g4
tp5309
a(Vaddicting
p5310
g134
tp5311
aa(lp5312
(Vthe
p5313
g51
tp5314
a(Vfunniest
p5315
g168
tp5316
aa(lp5317
g5316
a(Vgames
p5318
g47
tp5319
aa(lp5320
(Vever
p5321
g4
tp5322
a(Vplayed
p5323
g67
tp5324
aasI624
(lp5325
(lp5326
(Valways
p5327
g4
tp5328
a(Vsensitive
p5329
g11
tp5330
aasI625
(lp5331
sI626
(lp5332
(lp5333
(Vn't
p5334
g4
tp5335
a(Vlet
p5336
g7
tp5337
aasI627
(lp5338
sI628
(lp5339
(lp5340
(VThe
p5341
g51
tp5342
a(Vonly
p5343
g11
tp5344
aa(lp5345
g5344
a(Vproblem
p5346
g14
tp5347
aa(lp5348
(VAlso
p5349
g4
tp5350
a(Vforce
p5351
g7
tp5352
aa(lp5353
(Vn't
p5354
g4
tp5355
a(Vpick
p5356
g7
tp5357
aa(lp5358
(Vjust
p5359
g4
tp5360
a(Vbe
p5361
g7
tp5362
aasI629
(lp5363
(lp5364
(g50
g51
tp5365
a(Vsimple
p5366
g11
tp5367
aa(lp5368
g5367
a(Vgame
p5369
g14
tp5370
aasI630
(lp5371
(lp5372
(Venergetic
p5373
g11
tp5374
a(Vjumps
p5375
g47
tp5376
aa(lp5377
(Vthe
p5378
g51
tp5379
a(Vbest
p5380
g168
tp5381
aasI631
(lp5382
(lp5383
(Vfirst
p5384
g11
tp5385
a(Vdrove
p5386
g14
tp5387
aa(lp5388
(Vso
p5389
g4
tp5390
a(Vfun
p5391
g67
tp5392
aasI632
(lp5393
sI633
(lp5394
sI634
(lp5395
(lp5396
(Vfirst
p5397
g4
tp5398
a(Vinstalled
p5399
g162
tp5400
aa(lp5401
(V's
p5402
g312
tp5403
a(Vmore
p5404
g552
tp5405
aa(lp5406
g5405
a(Vfun
p5407
g11
tp5408
aa(lp5409
(Vthe
p5410
g51
tp5411
a(Vbig
p5412
g11
tp5413
aa(lp5414
g5413
a(Vscreen
p5415
g14
tp5416
aasI635
(lp5417
sI636
(lp5418
(lp5419
(g50
g51
tp5420
a(Vlittle
p5421
g11
tp5422
aa(lp5423
g5422
a(Vglitchy
p5424
g14
tp5425
aasI637
(lp5426
(lp5427
(Vthe
p5428
g51
tp5429
a(Vbest
p5430
g168
tp5431
aa(lp5432
g5431
a(Vgame
p5433
g14
tp5434
aa(lp5435
(Vthe
p5436
g51
tp5437
a(Vhighest
p5438
g168
tp5439
aa(lp5440
g5439
a(Vscore
p5441
g14
tp5442
aasI638
(lp5443
(lp5444
(Veven
p5445
g4
tp5446
a(Vget
p5447
g7
tp5448
aa(lp5449
(Vnormally
p5450
g4
tp5451
a(Vget
p5452
g7
tp5453
aa(lp5454
(Vis
p5455
g312
tp5456
a(Vsingle
p5457
g11
tp5458
aa(lp5459
g5458
a(Vcore
p5460
g14
tp5461
aa(lp5462
(g50
g51
tp5463
a(Vsingle
p5464
g11
tp5465
aa(lp5466
g5465
a(Vcore
p5467
g14
tp5468
aa(lp5469
(Vlower
p5470
g552
tp5471
a(Vprocessor
p5472
g14
tp5473
aa(lp5474
(Vother
p5475
g11
tp5476
a(Vbugs
p5477
g47
tp5478
aasI639
(lp5479
(lp5480
(Vthe
p5481
g51
tp5482
a(Vlast
p5483
g11
tp5484
aa(lp5485
g5484
a(Vmultipler
p5486
g14
tp5487
aa(lp5488
(g50
g51
tp5489
a(Vsmall
p5490
g11
tp5491
aa(lp5492
g5491
a(Vnote
p5493
g14
tp5494
aa(lp5495
(Vthe
p5496
g51
tp5497
a(Vregular
p5498
g11
tp5499
aa(lp5500
g5499
a(Vboost
p5501
g14
tp5502
aa(lp5503
(Vhas
p5504
g312
tp5505
a(Vless
p5506
g552
tp5507
aa(lp5508
g5507
a(Vlags
p5509
g47
tp5510
aa(lp5511
(Vgreat
p5512
g11
tp5513
a(Vjob
p5514
g14
tp5515
aa(lp5516
(Vso
p5517
g4
tp5518
a(Vaddicting
p5519
g134
tp5520
aa(lp5521
(Vthe
p5522
g51
tp5523
a(Vnext
p5524
g11
tp5525
aa(lp5526
g5525
a(Vupdate
p5527
g14
tp5528
aa(lp5529
(Vsome
p5530
g51
tp5531
a(Vnew
p5532
g11
tp5533
aa(lp5534
g5533
a(Vobjectives
p5535
g47
tp5536
aa(lp5537
(Vsome
p5538
g51
tp5539
a(Vnew
p5540
g11
tp5541
aa(lp5542
g5541
a(Vtools
p5543
g47
tp5544
aasI640
(lp5545
(lp5546
(Vvery
p5547
g4
tp5548
a(Vteasing
p5549
g134
tp5550
aasI641
(lp5551
(lp5552
(Vn't
p5553
g4
tp5554
a(Vdownload
p5555
g7
tp5556
aa(lp5557
(Vonly
p5558
g4
tp5559
a(Vbegan
p5560
g162
tp5561
aa(lp5562
(Vthe
p5563
g51
tp5564
a(Vnew
p5565
g11
tp5566
aa(lp5567
g5566
a(Vupdate
p5568
g14
tp5569
aasI642
(lp5570
(lp5571
(Vvery
p5572
g4
tp5573
a(Vsimple
p5574
g11
tp5575
aa(lp5576
g5575
a(Vgame
p5577
g14
tp5578
aa(lp5579
(Vnever
p5580
g4
tp5581
a(Vget
p5582
g7
tp5583
aa(lp5584
(Vconstant
p5585
g11
tp5586
a(Vconcentration
p5587
g14
tp5588
aa(lp5589
(Vwhilst
p5590
g11
tp5591
a(Vwatching
p5592
g14
tp5593
aa(lp5594
(VFantastic
p5595
g11
tp5596
a(Vfun
p5597
g14
tp5598
aasI643
(lp5599
(lp5600
(g3029
g51
tp5601
a(Vwonderful
p5602
g11
tp5603
aa(lp5604
(VEven
p5605
g4
tp5606
a(Vcoke
p5607
g162
tp5608
aa(lp5609
(Vthis
p5610
g51
tp5611
a(Vgood
p5612
g11
tp5613
aasI644
(lp5614
(lp5615
(Vmanually
p5616
g4
tp5617
a(Vreset
p5618
g7
tp5619
aa(lp5620
(Vs
p5621
g312
tp5622
a(Vepic
p5623
g11
tp5624
aasI645
(lp5625
(lp5626
(Vnot
p5627
g4
tp5628
a(Vfix
p5629
g7
tp5630
aa(lp5631
(Vwhole
p5632
g11
tp5633
a(Vscreen
p5634
g14
tp5635
aa(lp5636
(Vso
p5637
g4
tp5638
a(Virritating
p5639
g134
tp5640
aasI646
(lp5641
(lp5642
(Vvery
p5643
g4
tp5644
a(Vnice
p5645
g11
tp5646
aa(lp5647
(Vonly
p5648
g4
tp5649
a(Vgiving
p5650
g134
tp5651
aasI647
(lp5652
(lp5653
(Vnot
p5654
g4
tp5655
a(Vfind
p5656
g7
tp5657
aasI648
(lp5658
(lp5659
(Vlong
p5660
g11
tp5661
a(Vtraffic
p5662
g14
tp5663
aasI649
(lp5664
(lp5665
(Vawesome
p5666
g4
tp5667
a(Vgood
p5668
g11
tp5669
aa(lp5670
g5669
a(Vgame
p5671
g14
tp5672
aasI650
(lp5673
(lp5674
(Vreally
p5675
g4
tp5676
a(Vbad
p5677
g11
tp5678
aa(lp5679
(Vmost
p5680
g168
tp5681
a(Vimages
p5682
g47
tp5683
aa(lp5684
(Vcompletely
p5685
g4
tp5686
a(Vblack
p5687
g11
tp5688
aasI651
(lp5689
(lp5690
(g50
g51
tp5691
a(Vgreat
p5692
g11
tp5693
aa(lp5694
g5693
a(Vapplication~
p5695
g14
tp5696
aasI652
(lp5697
(lp5698
(Vlittle
p5699
g11
tp5700
a(Vsister
p5701
g14
tp5702
aa(lp5703
(Vyears
p5704
g47
tp5705
a(Vold
p5706
g11
tp5707
aa(lp5708
g5707
a(Vscored
p5709
g11
tp5710
aasI653
(lp5711
(lp5712
(VReally
p5713
g4
tp5714
a(Vaddictive
p5715
g11
tp5716
aa(lp5717
(Vonly
p5718
g4
tp5719
a(Vtap
p5720
g7
tp5721
aa(lp5722
(Veven
p5723
g4
tp5724
a(Vworse
p5725
g552
tp5726
aa(lp5727
(Veven
p5728
g4
tp5729
a(Vtouch
p5730
g11
tp5731
aasI654
(lp5732
(lp5733
(Vextremely
p5734
g4
tp5735
a(Vaddicting
p5736
g134
tp5737
aa(lp5738
(Vsome
p5739
g51
tp5740
a(Vother
p5741
g11
tp5742
aa(lp5743
g5742
a(Vcommand
p5744
g14
tp5745
aasI655
(lp5746
sI656
(lp5747
(lp5748
(Vis
p5749
g312
tp5750
a(Vgreat
p5751
g11
tp5752
aa(lp5753
(Vaddictive
p5754
g11
tp5755
a(Vgame
p5756
g14
tp5757
aasI657
(lp5758
(lp5759
(Vgood
p5760
g11
tp5761
a(Vmanner
p5762
g14
tp5763
aasI658
(lp5764
(lp5765
(Vn't
p5766
g4
tp5767
a(Vknow
p5768
g7
tp5769
aasI659
(lp5770
sI660
(lp5771
(lp5772
(Vis
p5773
g312
tp5774
a(Vreal
p5775
g11
tp5776
aa(lp5777
g5776
a(Vglitchy
p5778
g14
tp5779
aa(lp5780
(Vn't
p5781
g4
tp5782
a(Vbe
p5783
g7
tp5784
aa(lp5785
(Vis
p5786
g312
tp5787
a(Vreal
p5788
g11
tp5789
aa(lp5790
g5789
a(Vfun
p5791
g14
tp5792
aasI661
(lp5793
(lp5794
(Vvery
p5795
g4
tp5796
a(Vfast
p5797
g11
tp5798
aasI662
(lp5799
(lp5800
(VThe
p5801
g51
tp5802
a(Vfirst
p5803
g11
tp5804
aa(lp5805
g5804
a(Vtime
p5806
g14
tp5807
aa(lp5808
(Vn't
p5809
g4
tp5810
a(Vstop
p5811
g7
tp5812
aa(lp5813
(Vso
p5814
g4
tp5815
a(Vadicting
p5816
g134
tp5817
aasI663
(lp5818
(lp5819
(Vtemple
p5820
g11
tp5821
a(Vrun
p5822
g14
tp5823
aasI664
(lp5824
(lp5825
(Vnot
p5826
g4
tp5827
a(Vunderstand
p5828
g7
tp5829
aasI665
(lp5830
(lp5831
(VSometimes
p5832
g4
tp5833
a(Vunresponsive
p5834
g11
tp5835
aa(lp5836
(Vmore
p5837
g552
tp5838
a(Vupgrades
p5839
g47
tp5840
aasI666
(lp5841
(lp5842
(V.it
p5843
g11
tp5844
a(Vslows
p5845
g47
tp5846
aasI667
(lp5847
(lp5848
(Vnumerous
p5849
g11
tp5850
a(Vboring
p5851
g14
tp5852
aasI668
(lp5853
(lp5854
(VThe
p5855
g51
tp5856
a(Vonly
p5857
g11
tp5858
aa(lp5859
g5858
a(Vproblem
p5860
g14
tp5861
aasI669
(lp5862
sI670
(lp5863
(lp5864
(Vreally
p5865
g4
tp5866
a(Vfun
p5867
g67
tp5868
aa(lp5869
(Vn't
p5870
g4
tp5871
a(Vstop
p5872
g7
tp5873
aasI671
(lp5874
(lp5875
(Vcompletely
p5876
g4
tp5877
a(Vfeet
p5878
g11
tp5879
aasI672
(lp5880
(lp5881
(Vfavorite
p5882
g11
tp5883
a(Vfeatures
p5884
g47
tp5885
aa(lp5886
(Vthe
p5887
g51
tp5888
a(Vdifferent
p5889
g11
tp5890
aa(lp5891
g5890
a(Vquotes
p5892
g47
tp5893
aa(lp5894
(Vsometimes
p5895
g4
tp5896
a(Vmiss
p5897
g7
tp5898
aa(lp5899
(g50
g51
tp5900
a(Vgreat
p5901
g11
tp5902
aa(lp5903
g5902
a(Vgame
p5904
g14
tp5905
aa(lp5906
g5905
a(Voverall
p5907
g11
tp5908
aasI673
(lp5909
sI674
(lp5910
(lp5911
(Vmajor
p5912
g11
tp5913
a(Vrevamp
p5914
g14
tp5915
aasI675
(lp5916
(lp5917
(Vreally
p5918
g4
tp5919
a(Vplay
p5920
g7
tp5921
aa(lp5922
(g50
g51
tp5923
a(Vgood
p5924
g11
tp5925
aa(lp5926
g5925
a(Vgame
p5927
g14
tp5928
aa(lp5929
(Vruns
p5930
g312
tp5931
a(Vgreat
p5932
g11
tp5933
aasI676
(lp5934
(lp5935
(Vso
p5936
g4
tp5937
a(Vsmooth
p5938
g11
tp5939
aa(lp5940
(Vtoo
p5941
g4
tp5942
a(Vlaggy
p5943
g11
tp5944
aa(lp5945
(Vthe
p5946
g51
tp5947
a(Vhigh
p5948
g11
tp5949
aa(lp5950
g5949
a(Vends
p5951
g47
tp5952
aasI677
(lp5953
(lp5954
(VFantastic
p5955
g11
tp5956
a(Vgame
p5957
g14
tp5958
aa(lp5959
(Vabsolutely
p5960
g4
tp5961
a(Vaddictive
p5962
g11
tp5963
aa(lp5964
(Vsimply
p5965
g4
tp5966
a(Vget
p5967
g7
tp5968
aa(lp5969
(VNever
p5970
g4
tp5971
a(Vloved
p5972
g162
tp5973
aa(lp5974
(Vgame
p5975
g14
tp5976
a(Vmore
p5977
g552
tp5978
aasI678
(lp5979
(lp5980
(Vlittle
p5981
g4
tp5982
a(Vslow
p5983
g11
tp5984
aasI679
(lp5985
(lp5986
(Vpretty
p5987
g4
tp5988
a(Vfun
p5989
g11
tp5990
aa(lp5991
(Vpretty
p5992
g4
tp5993
a(Vhuge
p5994
g11
tp5995
aa(lp5996
g5995
a(Vbummer
p5997
g14
tp5998
aa(lp5999
(Vn't
p6000
g4
tp6001
a(Vjump
p6002
g7
tp6003
aa(lp6004
(Vis
p6005
g312
tp6006
a(Vimpossible
p6007
g11
tp6008
aa(lp6009
(Vn't
p6010
g4
tp6011
a(Vhave
p6012
g7
tp6013
aa(lp6014
(Vvery
p6015
g4
tp6016
a(Vbeginning
p6017
g134
tp6018
aasI680
(lp6019
(lp6020
(Vthe
p6021
g51
tp6022
a(Vbest
p6023
g168
tp6024
aa(lp6025
g6024
a(Vgames
p6026
g47
tp6027
aa(lp6028
(Vever
p6029
g4
tp6030
a(Vplayed
p6031
g67
tp6032
aa(lp6033
(VThe
p6034
g51
tp6035
a(Vonly
p6036
g11
tp6037
aa(lp6038
g6037
a(Vproblem
p6039
g14
tp6040
aa(lp6041
(Vbig
p6042
g11
tp6043
a(Vpoints
p6044
g47
tp6045
aasI681
(lp6046
(lp6047
(Vn't
p6048
g4
tp6049
a(Vget
p6050
g7
tp6051
aa(lp6052
(VNever
p6053
g4
tp6054
a(Vending
p6055
g134
tp6056
aa(lp6057
(Vso
p6058
g4
tp6059
a(Vmany
p6060
g11
tp6061
aa(lp6062
g6061
a(Vlevels
p6063
g47
tp6064
aasI682
(lp6065
(lp6066
(g50
g51
tp6067
a(Vbite
p6068
g11
tp6069
aa(lp6070
(Vthe
p6071
g51
tp6072
a(Vandroid
p6073
g11
tp6074
aa(lp6075
g6074
a(Vphone
p6076
g14
tp6077
aasI683
(lp6078
(lp6079
(Vstops
p6080
g312
tp6081
a(Vmany
p6082
g11
tp6083
aa(lp6084
g6083
a(Vtimes
p6085
g47
tp6086
aa(lp6087
(g50
g51
tp6088
a(Vfew
p6089
g11
tp6090
aa(lp6091
g6090
a(Vsteps
p6092
g47
tp6093
aa(lp6094
(Vn't
p6095
g4
tp6096
a(Vknow
p6097
g7
tp6098
aasI684
(lp6099
(lp6100
(Vmuch
p6101
g4
tp6102
a(Vfun
p6103
g67
tp6104
aa(lp6105
(Vnot
p6106
g4
tp6107
a(Vregister
p6108
g7
tp6109
aa(lp6110
(V's
p6111
g312
tp6112
a(Vgreat
p6113
g11
tp6114
aa(lp6115
g6114
a(Vfun
p6116
g14
tp6117
aasI685
(lp6118
(lp6119
(Vthen
p6120
g4
tp6121
a(Vdeleted
p6122
g162
tp6123
aa(lp6124
(Vnow
p6125
g4
tp6126
a(Vgone
p6127
g67
tp6128
aasI686
(lp6129
(lp6130
(Vever
p6131
g4
tp6132
a(Vhad
p6133
g162
tp6134
aa(lp6135
(Vthe
p6136
g51
tp6137
a(Vpast
p6138
g11
tp6139
aa(lp6140
(Vnever
p6141
g4
tp6142
a(Vhave
p6143
g7
tp6144
aasI687
(lp6145
(lp6146
(Vsoooo
p6147
g4
tp6148
a(Vaddicted
p6149
g67
tp6150
aa(lp6151
(Vn't
p6152
g4
tp6153
a(Vstop
p6154
g7
tp6155
aasI688
(lp6156
(lp6157
(Vthe
p6158
g51
tp6159
a(Vworst
p6160
g168
tp6161
aasI689
(lp6162
(lp6163
(Vjust
p6164
g4
tp6165
a(Vclosed
p6166
g162
tp6167
aa(lp6168
(Vis
p6169
g312
tp6170
a(Vsuch
p6171
g11
tp6172
aa(lp6173
(g50
g51
tp6174
a(Vgood
p6175
g11
tp6176
aa(lp6177
g6176
a(Vgame
p6178
g14
tp6179
aa(lp6180
(Vnot
p6181
g4
tp6182
a(Vplay
p6183
g7
tp6184
aasI690
(lp6185
(lp6186
(Vso
p6187
g4
tp6188
a(Vnxt
p6189
g11
tp6190
aa(lp6191
g6190
a(Vbest
p6192
g168
tp6193
aa(lp6194
g6193
a(Vthing
p6195
g14
tp6196
aasI691
(lp6197
(lp6198
(Vseveral
p6199
g11
tp6200
a(Vtimes
p6201
g47
tp6202
aa(lp6203
(Vwonderful
p6204
g11
tp6205
a(Votherwise
p6206
g14
tp6207
aasI692
(lp6208
(lp6209
(Vnewest
p6210
g168
tp6211
a(Vversion
p6212
g14
tp6213
aa(lp6214
(Vfuctionally
p6215
g4
tp6216
a(Vmuch
p6217
g11
tp6218
aa(lp6219
(V3rd
p6220
g11
tp6221
a(Vtime
p6222
g14
tp6223
aasI693
(lp6224
(lp6225
(Vthe
p6226
g51
tp6227
a(Vmain
p6228
g11
tp6229
aa(lp6230
g6229
a(Vscreen
p6231
g14
tp6232
aa(lp6233
(Vworks
p6234
g312
tp6235
a(Vgreat
p6236
g11
tp6237
aasI694
(lp6238
(lp6239
(Vhorrible
p6240
g11
tp6241
a(Vplz
p6242
g14
tp6243
aasI695
(lp6244
(lp6245
(Vhighly
p6246
g4
tp6247
a(Vaddictive
p6248
g11
tp6249
aa(lp6250
(Vso
p6251
g4
tp6252
a(Vanoying
p6253
g134
tp6254
aasI696
(lp6255
sI697
(lp6256
(lp6257
(g3029
g51
tp6258
a(Vtrue
p6259
g11
tp6260
aa(lp6261
g6260
a(Vmust
p6262
g14
tp6263
aasI698
(lp6264
(lp6265
(Vthe
p6266
g51
tp6267
a(Vwhole
p6268
g11
tp6269
aa(lp6270
g6269
a(Vfamily
p6271
g14
tp6272
aasI699
(lp6273
sI700
(lp6274
(lp6275
(Vis
p6276
g312
tp6277
a(Vblue
p6278
g11
tp6279
aa(lp6280
(Vn't
p6281
g4
tp6282
a(Vuse
p6283
g7
tp6284
aa(lp6285
(Vonly
p6286
g4
tp6287
a(Vmagnet
p6288
g11
tp6289
aasI701
(lp6290
(lp6291
(Vvery
p6292
g4
tp6293
a(Vexciting
p6294
g134
tp6295
aa(lp6296
(Vn't
p6297
g4
tp6298
a(Vstop
p6299
g7
tp6300
aa(lp6301
(Vonly
p6302
g4
tp6303
a(Vstop
p6304
g7
tp6305
aasI702
(lp6306
(lp6307
(Vyellowish
p6308
g11
tp6309
a(Vwalls
p6310
g47
tp6311
aasI703
(lp6312
(lp6313
(Vthe
p6314
g51
tp6315
a(Vmain
p6316
g11
tp6317
aa(lp6318
g6317
a(Vmenu
p6319
g14
tp6320
aa(lp6321
(Vnothing
p6322
g14
tp6323
a(Vbad
p6324
g11
tp6325
aasI704
(lp6326
sI705
(lp6327
(lp6328
(Vtotally
p6329
g4
tp6330
a(Vaddictive
p6331
g11
tp6332
aasI706
(lp6333
sI707
(lp6334
(lp6335
(g50
g51
tp6336
a(Vsecond
p6337
g11
tp6338
aa(lp6339
(Vgood
p6340
g11
tp6341
a(Vfun
p6342
g14
tp6343
aasI708
(lp6344
sI709
(lp6345
sI710
(lp6346
(lp6347
(g50
g51
tp6348
a(Vbrilliant
p6349
g11
tp6350
aa(lp6351
g6350
a(Vconcept
p6352
g14
tp6353
aa(lp6354
(Vlittle
p6355
g4
tp6356
a(Vslow
p6357
g11
tp6358
aa(lp6359
(Vn't
p6360
g4
tp6361
a(Vregister
p6362
g7
tp6363
aasI711
(lp6364
(lp6365
(Vtotally
p6366
g4
tp6367
a(Vaddictive
p6368
g11
tp6369
aasI712
(lp6370
sI713
(lp6371
(lp6372
(Vthe
p6373
g51
tp6374
a(Vwhole
p6375
g11
tp6376
aa(lp6377
g6376
a(Vfamily
p6378
g14
tp6379
aasI714
(lp6380
(lp6381
(Vthe
p6382
g51
tp6383
a(Vmain
p6384
g11
tp6385
aa(lp6386
g6385
a(Vmenu
p6387
g14
tp6388
aa(lp6389
(Vnothing
p6390
g14
tp6391
a(Vbad
p6392
g11
tp6393
aasI715
(lp6394
(lp6395
(g3029
g51
tp6396
a(Vtrue
p6397
g11
tp6398
aa(lp6399
g6398
a(Vmust
p6400
g14
tp6401
aasI716
(lp6402
(lp6403
(Veven
p6404
g4
tp6405
a(Vworth
p6406
g11
tp6407
aasI717
(lp6408
(lp6409
(Vtemple
p6410
g11
tp6411
a(Vrun
p6412
g14
tp6413
aa(lp6414
(Vreally
p6415
g4
tp6416
a(Vgood
p6417
g11
tp6418
aa(lp6419
g6418
a(Vgame
p6420
g14
tp6421
aa(lp6422
g6421
a(Vbig
p6423
g11
tp6424
aa(lp6425
g6424
a(Vtime
p6426
g14
tp6427
aa(lp6428
(Vseriously
p6429
g4
tp6430
a(Vrecommend
p6431
g7
tp6432
aasI718
(lp6433
(lp6434
(Vquite
p6435
g4
tp6436
a(Vaddicting
p6437
g134
tp6438
aa(lp6439
(VThe
p6440
g51
tp6441
a(Vonly
p6442
g11
tp6443
aa(lp6444
g6443
a(Vthing
p6445
g14
tp6446
aa(lp6447
(Valways
p6448
g4
tp6449
a(Vread
p6450
g7
tp6451
aa(lp6452
(V's
p6453
g312
tp6454
a(Vgreat
p6455
g11
tp6456
aasI719
(lp6457
(lp6458
(Vrid
p6459
g11
tp6460
a(Vgame
p6461
g14
tp6462
aasI720
(lp6463
(lp6464
(g50
g51
tp6465
a(Vsecond
p6466
g11
tp6467
aa(lp6468
(Vgood
p6469
g11
tp6470
a(Vfun
p6471
g14
tp6472
aasI721
(lp6473
(lp6474
(Vso
p6475
g4
tp6476
a(Vchoppy
p6477
g11
tp6478
aa(lp6479
(Valmost
p6480
g14
tp6481
a(Vunplayable
p6482
g11
tp6483
aasI722
(lp6484
sI723
(lp6485
(lp6486
(Vyear
p6487
g14
tp6488
a(Vold
p6489
g11
tp6490
aa(lp6491
g6490
a(Vputs
p6492
g47
tp6493
aasI724
(lp6494
(lp6495
(Vfirst
p6496
g11
tp6497
a(Veaverything
p6498
g14
tp6499
aasI725
(lp6500
(lp6501
(g50
g51
tp6502
a(Vbrilliant
p6503
g11
tp6504
aa(lp6505
g6504
a(Vconcept
p6506
g14
tp6507
aa(lp6508
(Vlittle
p6509
g4
tp6510
a(Vslow
p6511
g11
tp6512
aa(lp6513
(Vn't
p6514
g4
tp6515
a(Vregister
p6516
g7
tp6517
aasI726
(lp6518
(lp6519
(Vfree
p6520
g11
tp6521
a(Vgames
p6522
g47
tp6523
aa(lp6524
(Vmost
p6525
g208
tp6526
a(Vaddicting
p6527
g134
tp6528
aa(lp6529
(Vever
p6530
g4
tp6531
a(Vplayed
p6532
g67
tp6533
aa(lp6534
(g50
g51
tp6535
a(Vmobile
p6536
g11
tp6537
aa(lp6538
g6537
a(Vdevice
p6539
g14
tp6540
aa(lp6541
(Vgets
p6542
g312
tp6543
a(Vold
p6544
g11
tp6545
aa(lp6546
(Vthe
p6547
g51
tp6548
a(Vbest
p6549
g168
tp6550
aa(lp6551
g6550
a(Vfree
p6552
g11
tp6553
aa(lp6554
g6553
a(Vgames
p6555
g47
tp6556
aa(lp6557
(g50
g51
tp6558
a(Vmobile
p6559
g11
tp6560
aa(lp6561
g6560
a(Vdevice
p6562
g14
tp6563
aa(lp6564
(Vmost
p6565
g208
tp6566
a(Vfun
p6567
g11
tp6568
aa(lp6569
(g50
g51
tp6570
a(Vlong
p6571
g11
tp6572
aa(lp6573
g6572
a(Vtime
p6574
g14
tp6575
aasI727
(lp6576
(lp6577
(g50
g51
tp6578
a(Vbig
p6579
g11
tp6580
aa(lp6581
g6580
a(Vgamer
p6582
g14
tp6583
aa(lp6584
(Vthe
p6585
g51
tp6586
a(Vbest
p6587
g168
tp6588
aa(lp6589
g6588
a(Vgame
p6590
g14
tp6591
aa(lp6592
(g50
g51
tp6593
a(Vgreat
p6594
g11
tp6595
aa(lp6596
g6595
a(Vgame
p6597
g14
tp6598
aa(lp6599
(g50
g51
tp6600
a(Vgreat
p6601
g11
tp6602
aasI728
(lp6603
(lp6604
(Vn't
p6605
g4
tp6606
a(Vrecognize
p6607
g7
tp6608
aa(lp6609
(VNot
p6610
g4
tp6611
a(Vsure
p6612
g11
tp6613
aasI729
(lp6614
(lp6615
(Vso
p6616
g4
tp6617
a(Vchoppy
p6618
g11
tp6619
aa(lp6620
(Valmost
p6621
g14
tp6622
a(Vunplayable
p6623
g11
tp6624
aasI730
(lp6625
(lp6626
(Vko
p6627
g4
tp6628
a(Vlagatar
p6629
g11
tp6630
aa(lp6631
g6630
a(Vkhelna
p6632
g14
tp6633
aasI731
(lp6634
(lp6635
(Vtoo
p6636
g4
tp6637
a(Vslow
p6638
g11
tp6639
aasI732
(lp6640
(lp6641
(g50
g51
tp6642
a(Vgood
p6643
g11
tp6644
aa(lp6645
g6644
a(Vgame
p6646
g14
tp6647
aa(lp6648
(Vvery
p6649
g4
tp6650
a(Vglitchy
p6651
g11
tp6652
aasI733
(lp6653
sI734
(lp6654
(lp6655
(Vyear
p6656
g14
tp6657
a(Vold
p6658
g11
tp6659
aa(lp6660
g6659
a(Vputs
p6661
g47
tp6662
aasI735
(lp6663
(lp6664
(Vfirst
p6665
g11
tp6666
a(Veaverything
p6667
g14
tp6668
aasI736
(lp6669
(lp6670
(g50
g51
tp6671
a(Vbig
p6672
g11
tp6673
aa(lp6674
g6673
a(Vgamer
p6675
g14
tp6676
aa(lp6677
(Vthe
p6678
g51
tp6679
a(Vbest
p6680
g168
tp6681
aa(lp6682
g6681
a(Vgame
p6683
g14
tp6684
aa(lp6685
(g50
g51
tp6686
a(Vgreat
p6687
g11
tp6688
aa(lp6689
g6688
a(Vgame
p6690
g14
tp6691
aa(lp6692
(g50
g51
tp6693
a(Vgreat
p6694
g11
tp6695
aasI737
(lp6696
(lp6697
(Vn't
p6698
g4
tp6699
a(Vrecognize
p6700
g7
tp6701
aa(lp6702
(VNot
p6703
g4
tp6704
a(Vsure
p6705
g11
tp6706
aasI738
(lp6707
(lp6708
(Vso
p6709
g4
tp6710
a(Vchoppy
p6711
g11
tp6712
aa(lp6713
(Valmost
p6714
g14
tp6715
a(Vunplayable
p6716
g11
tp6717
aasI739
(lp6718
(lp6719
(Vko
p6720
g4
tp6721
a(Vlagatar
p6722
g11
tp6723
aa(lp6724
g6723
a(Vkhelna
p6725
g14
tp6726
aasI740
(lp6727
(lp6728
(Vtoo
p6729
g4
tp6730
a(Vslow
p6731
g11
tp6732
aasI741
(lp6733
(lp6734
(g50
g51
tp6735
a(Vgood
p6736
g11
tp6737
aa(lp6738
g6737
a(Vgame
p6739
g14
tp6740
aa(lp6741
(Vvery
p6742
g4
tp6743
a(Vglitchy
p6744
g11
tp6745
aasI742
(lp6746
sI743
(lp6747
(lp6748
(Vn't
p6749
g4
tp6750
a(Vstop
p6751
g7
tp6752
aasI744
(lp6753
(lp6754
(Vtemple
p6755
g11
tp6756
a(Vrun
p6757
g14
tp6758
aa(lp6759
(Vreally
p6760
g4
tp6761
a(Vplay
p6762
g7
tp6763
aa(lp6764
(Vgets
p6765
g312
tp6766
a(Vold
p6767
g11
tp6768
aasI745
(lp6769
(lp6770
(Vminor
p6771
g11
tp6772
a(Vbugs
p6773
g47
tp6774
aa(lp6775
(Vcompletely
p6776
g4
tp6777
a(Vremoved
p6778
g67
tp6779
aa(lp6780
(Vnew
p6781
g11
tp6782
a(Vupdate
p6783
g14
tp6784
aa(lp6785
(Vmore
p6786
g1725
tp6787
a(Vobjective
p6788
g11
tp6789
aa(lp6790
g6789
a(Vnd
p6791
g14
tp6792
aasI746
(lp6793
sI747
(lp6794
sI748
(lp6795
(lp6796
(Vreally
p6797
g4
tp6798
a(Vfun
p6799
g67
tp6800
aa(lp6801
(Vnot
p6802
g4
tp6803
a(Vrespond
p6804
g7
tp6805
aasI749
(lp6806
(lp6807
(Vnumerous
p6808
g11
tp6809
a(Vpurches
p6810
g47
tp6811
aa(lp6812
(Vexact
p6813
g11
tp6814
a(g5137
g14
tp6815
aa(lp6816
(Vive
p6817
g11
tp6818
a(Vtriple
p6819
g14
tp6820
aa(lp6821
(Visnt
p6822
g14
tp6823
a(Vbad
p6824
g11
tp6825
aa(lp6826
(Vreally
p6827
g4
tp6828
a(Vtired
p6829
g67
tp6830
aasI750
(lp6831
(lp6832
(g50
g51
tp6833
a(Vbig
p6834
g11
tp6835
aa(lp6836
g6835
a(Vgamer
p6837
g14
tp6838
aa(lp6839
(Vthe
p6840
g51
tp6841
a(Vbest
p6842
g168
tp6843
aa(lp6844
g6843
a(Vgame
p6845
g14
tp6846
aa(lp6847
(g50
g51
tp6848
a(Vgreat
p6849
g11
tp6850
aa(lp6851
g6850
a(Vgame
p6852
g14
tp6853
aa(lp6854
(g50
g51
tp6855
a(Vgreat
p6856
g11
tp6857
aasI751
(lp6858
(lp6859
(Vko
p6860
g4
tp6861
a(Vlagatar
p6862
g11
tp6863
aa(lp6864
g6863
a(Vkhelna
p6865
g14
tp6866
aasI752
(lp6867
(lp6868
(Vtoo
p6869
g4
tp6870
a(Vslow
p6871
g11
tp6872
aasI753
(lp6873
(lp6874
(Vn't
p6875
g4
tp6876
a(Vstop
p6877
g7
tp6878
aasI754
(lp6879
(lp6880
(Vtemple
p6881
g11
tp6882
a(Vrun
p6883
g14
tp6884
aa(lp6885
(Vreally
p6886
g4
tp6887
a(Vplay
p6888
g7
tp6889
aa(lp6890
(Vgets
p6891
g312
tp6892
a(Vold
p6893
g11
tp6894
aasI755
(lp6895
(lp6896
(Vminor
p6897
g11
tp6898
a(Vbugs
p6899
g47
tp6900
aa(lp6901
(Vcompletely
p6902
g4
tp6903
a(Vremoved
p6904
g67
tp6905
aa(lp6906
(Vnew
p6907
g11
tp6908
a(Vupdate
p6909
g14
tp6910
aa(lp6911
(Vmore
p6912
g1725
tp6913
a(Vobjective
p6914
g11
tp6915
aa(lp6916
g6915
a(Vnd
p6917
g14
tp6918
aasI756
(lp6919
(lp6920
(VTHE
p6921
g51
tp6922
a(VBEST
p6923
g168
tp6924
aa(lp6925
(Vtemple
p6926
g11
tp6927
a(Vrun
p6928
g14
tp6929
aa(lp6930
(Vdifferent
p6931
g11
tp6932
a(Vlevels
p6933
g47
tp6934
aasI757
(lp6935
(lp6936
(Vthe
p6937
g51
tp6938
a(Vbest
p6939
g168
tp6940
aa(lp6941
g6940
a(Vgame
p6942
g14
tp6943
aa(lp6944
(VSeriously
p6945
g4
tp6946
a(VLoved
p6947
g67
tp6948
aasI758
(lp6949
(lp6950
(Vthe
p6951
g51
tp6952
a(Vfunnest
p6953
g168
tp6954
aa(lp6955
g6954
a(Vgames
p6956
g47
tp6957
aa(lp6958
(Vever
p6959
g4
tp6960
a(Vplay
p6961
g11
tp6962
aa(lp6963
(g50
g51
tp6964
a(Vlong
p6965
g11
tp6966
aa(lp6967
g6966
a(Vtime
p6968
g14
tp6969
aa(lp6970
(Vstill
p6971
g4
tp6972
a(Vhavent
p6973
g11
tp6974
aa(lp6975
g6974
a(Vmade
p6976
g14
tp6977
aa(lp6978
(Vthe
p6979
g51
tp6980
a(Vblue
p6981
g11
tp6982
aa(lp6983
g6982
a(Vcoins
p6984
g47
tp6985
aa(lp6986
(Vn't
p6987
g4
tp6988
a(Vbe
p6989
g7
tp6990
aasI759
(lp6991
(lp6992
(Vpretty
p6993
g4
tp6994
a(Vgood
p6995
g11
tp6996
aa(lp6997
g6996
a(Vgame
p6998
g14
tp6999
aasI760
(lp7000
sI761
(lp7001
sI762
(lp7002
(lp7003
(Vlast
p7004
g11
tp7005
a(Vweek
p7006
g14
tp7007
aa(lp7008
(Vnot
p7009
g4
tp7010
a(Vworking
p7011
g134
tp7012
aa(lp7013
(Vnormally
p7014
g4
tp7015
a(Vhave
p7016
g7
tp7017
aasI763
(lp7018
(lp7019
(Vnumerous
p7020
g11
tp7021
a(Vpurches
p7022
g47
tp7023
aa(lp7024
(Vexact
p7025
g11
tp7026
a(g5137
g14
tp7027
aa(lp7028
(Vive
p7029
g11
tp7030
a(Vtriple
p7031
g14
tp7032
aa(lp7033
(Visnt
p7034
g14
tp7035
a(Vbad
p7036
g11
tp7037
aa(lp7038
(Vreally
p7039
g4
tp7040
a(Vtired
p7041
g67
tp7042
aasI764
(lp7043
sI765
(lp7044
(lp7045
(Vn't
p7046
g4
tp7047
a(Vstop
p7048
g7
tp7049
aa(lp7050
(Vhigh
p7051
g11
tp7052
a(Vscore
p7053
g14
tp7054
aasI766
(lp7055
(lp7056
(Vthe
p7057
g51
tp7058
a(Vbest
p7059
g168
tp7060
aa(lp7061
g7060
a(Vgame
p7062
g14
tp7063
aa(lp7064
(VSeriously
p7065
g4
tp7066
a(VLoved
p7067
g67
tp7068
aasI767
(lp7069
(lp7070
(VIs
p7071
g312
tp7072
a(Vsuch
p7073
g11
tp7074
aa(lp7075
(g50
g51
tp7076
a(Vgood
p7077
g11
tp7078
aasI768
(lp7079
(lp7080
(Vall
p7081
g51
tp7082
a(Vglitchy
p7083
g11
tp7084
aa(lp7085
(Vn't
p7086
g4
tp7087
a(Vhave
p7088
g7
tp7089
aa(lp7090
(Vn't
p7091
g4
tp7092
a(Vget
p7093
g7
tp7094
aa(lp7095
(Vdoes
p7096
g312
tp7097
a(Vdoodle
p7098
g11
tp7099
aa(lp7100
g7099
a(Vjump
p7101
g14
tp7102
aa(lp7103
(Vn't
p7104
g4
tp7105
a(Vknow
p7106
g7
tp7107
aasI769
(lp7108
(lp7109
(Vthe
p7110
g51
tp7111
a(Vfunnest
p7112
g168
tp7113
aa(lp7114
g7113
a(Vgames
p7115
g47
tp7116
aa(lp7117
(Vever
p7118
g4
tp7119
a(Vplay
p7120
g11
tp7121
aa(lp7122
(g50
g51
tp7123
a(Vlong
p7124
g11
tp7125
aa(lp7126
g7125
a(Vtime
p7127
g14
tp7128
aa(lp7129
(Vstill
p7130
g4
tp7131
a(Vhavent
p7132
g11
tp7133
aa(lp7134
g7133
a(Vmade
p7135
g14
tp7136
aa(lp7137
(Vthe
p7138
g51
tp7139
a(Vblue
p7140
g11
tp7141
aa(lp7142
g7141
a(Vcoins
p7143
g47
tp7144
aa(lp7145
(Vn't
p7146
g4
tp7147
a(Vbe
p7148
g7
tp7149
aasI770
(lp7150
(lp7151
(Vnever
p7152
g4
tp7153
a(Vhad
p7154
g162
tp7155
aa(lp7156
(Vlast
p7157
g11
tp7158
a(Vscore
p7159
g14
tp7160
aa(lp7161
(Vjust
p7162
g4
tp7163
a(Vsad
p7164
g11
tp7165
aa(lp7166
(g50
g51
tp7167
a(Vnew
p7168
g11
tp7169
aa(lp7170
g7169
a(Vhobby
p7171
g14
tp7172
aasI771
(lp7173
sI772
(lp7174
(lp7175
(Vlast
p7176
g11
tp7177
a(Vweek
p7178
g14
tp7179
aa(lp7180
(Vnot
p7181
g4
tp7182
a(Vworking
p7183
g134
tp7184
aa(lp7185
(Vnormally
p7186
g4
tp7187
a(Vhave
p7188
g7
tp7189
aasI773
(lp7190
(lp7191
(Vis
p7192
g312
tp7193
a(Vcute
p7194
g11
tp7195
aa(lp7196
(Vlittle
p7197
g4
tp7198
a(Vsister
p7199
g552
tp7200
aa(lp7201
g7200
a(Vloves
p7202
g47
tp7203
aasI774
(lp7204
sI775
(lp7205
(lp7206
(Vn't
p7207
g4
tp7208
a(Vstop
p7209
g7
tp7210
aa(lp7211
(Vhigh
p7212
g11
tp7213
a(Vscore
p7214
g14
tp7215
aasI776
(lp7216
(lp7217
(Vthe
p7218
g51
tp7219
a(Vbest
p7220
g168
tp7221
aa(lp7222
g7221
a(Vgame
p7223
g14
tp7224
aa(lp7225
(VSeriously
p7226
g4
tp7227
a(VLoved
p7228
g67
tp7229
aasI777
(lp7230
(lp7231
(VIs
p7232
g312
tp7233
a(Vsuch
p7234
g11
tp7235
aa(lp7236
(g50
g51
tp7237
a(Vgood
p7238
g11
tp7239
aasI778
(lp7240
(lp7241
(Vall
p7242
g51
tp7243
a(Vglitchy
p7244
g11
tp7245
aa(lp7246
(Vn't
p7247
g4
tp7248
a(Vhave
p7249
g7
tp7250
aa(lp7251
(Vn't
p7252
g4
tp7253
a(Vget
p7254
g7
tp7255
aa(lp7256
(Vdoes
p7257
g312
tp7258
a(Vdoodle
p7259
g11
tp7260
aa(lp7261
g7260
a(Vjump
p7262
g14
tp7263
aa(lp7264
(Vn't
p7265
g4
tp7266
a(Vknow
p7267
g7
tp7268
aasI779
(lp7269
(lp7270
(Vnever
p7271
g4
tp7272
a(Vhad
p7273
g162
tp7274
aa(lp7275
(Vlast
p7276
g11
tp7277
a(Vscore
p7278
g14
tp7279
aa(lp7280
(Vjust
p7281
g4
tp7282
a(Vsad
p7283
g11
tp7284
aa(lp7285
(g50
g51
tp7286
a(Vnew
p7287
g11
tp7288
aa(lp7289
g7288
a(Vhobby
p7290
g14
tp7291
aasI780
(lp7292
(lp7293
(VInnovative
p7294
g11
tp7295
a(Vconcept
p7296
g14
tp7297
aa(lp7298
(Vsimple
p7299
g11
tp7300
a(Vmechanism
p7301
g14
tp7302
aa(lp7303
(Vthe
p7304
g51
tp7305
a(Vfull
p7306
g11
tp7307
aa(lp7308
g7307
a(Vversion
p7309
g14
tp7310
aasI781
(lp7311
(lp7312
(Vis
p7313
g312
tp7314
a(Vcute
p7315
g11
tp7316
aa(lp7317
(Vlittle
p7318
g4
tp7319
a(Vsister
p7320
g552
tp7321
aa(lp7322
g7321
a(Vloves
p7323
g47
tp7324
aasI782
(lp7325
sI783
(lp7326
sI784
(lp7327
(lp7328
(Vthe
p7329
g51
tp7330
a(Vandroid
p7331
g11
tp7332
aa(lp7333
(g50
g51
tp7334
a(Vlow
p7335
g11
tp7336
aa(lp7337
g7336
a(Vscore
p7338
g14
tp7339
aasI785
(lp7340
(lp7341
(Vn't
p7342
g4
tp7343
a(Vstop
p7344
g7
tp7345
aa(lp7346
(Vhigh
p7347
g11
tp7348
a(Vscore
p7349
g14
tp7350
aasI786
(lp7351
(lp7352
(Vn't
p7353
g4
tp7354
a(Vstop
p7355
g7
tp7356
aa(lp7357
(VThe
p7358
g51
tp7359
a(Vonly
p7360
g11
tp7361
aa(lp7362
g7361
a(Vthing
p7363
g14
tp7364
aasI787
(lp7365
(lp7366
(Vall
p7367
g51
tp7368
a(Vglitchy
p7369
g11
tp7370
aa(lp7371
(Vn't
p7372
g4
tp7373
a(Vhave
p7374
g7
tp7375
aa(lp7376
(Vn't
p7377
g4
tp7378
a(Vget
p7379
g7
tp7380
aa(lp7381
(Vdoes
p7382
g312
tp7383
a(Vdoodle
p7384
g11
tp7385
aa(lp7386
g7385
a(Vjump
p7387
g14
tp7388
aa(lp7389
(Vn't
p7390
g4
tp7391
a(Vknow
p7392
g7
tp7393
aasI788
(lp7394
(lp7395
(VInnovative
p7396
g11
tp7397
a(Vconcept
p7398
g14
tp7399
aa(lp7400
(Vsimple
p7401
g11
tp7402
a(Vmechanism
p7403
g14
tp7404
aa(lp7405
(Vthe
p7406
g51
tp7407
a(Vfull
p7408
g11
tp7409
aa(lp7410
g7409
a(Vversion
p7411
g14
tp7412
aasI789
(lp7413
(lp7414
(Vtotally
p7415
g4
tp7416
a(Vaddictive
p7417
g11
tp7418
aasI790
(lp7419
(lp7420
(Vnot
p7421
g4
tp7422
a(Voptimized
p7423
g67
tp7424
aa(lp7425
(Vlow
p7426
g11
tp7427
a(Vend
p7428
g14
tp7429
aasI791
(lp7430
(lp7431
(Vquite
p7432
g4
tp7433
a(Vhard
p7434
g11
tp7435
aasI792
(lp7436
sI793
(lp7437
sI794
(lp7438
(lp7439
(Vthe
p7440
g51
tp7441
a(Vandroid
p7442
g11
tp7443
aa(lp7444
(g50
g51
tp7445
a(Vlow
p7446
g11
tp7447
aa(lp7448
g7447
a(Vscore
p7449
g14
tp7450
aasI795
(lp7451
(lp7452
(Veach
p7453
g51
tp7454
a(Vother
p7455
g11
tp7456
aa(lp7457
(Vdefinitely
p7458
g4
tp7459
a(Vfun
p7460
g67
tp7461
aa(lp7462
(Vthe
p7463
g51
tp7464
a(Ventire
p7465
g11
tp7466
aasI796
(lp7467
(lp7468
(Vn't
p7469
g4
tp7470
a(Vstop
p7471
g7
tp7472
aa(lp7473
(VThe
p7474
g51
tp7475
a(Vonly
p7476
g11
tp7477
aa(lp7478
g7477
a(Vthing
p7479
g14
tp7480
aasI797
(lp7481
(lp7482
(Vall
p7483
g51
tp7484
a(Vglitchy
p7485
g11
tp7486
aa(lp7487
(Vn't
p7488
g4
tp7489
a(Vhave
p7490
g7
tp7491
aa(lp7492
(Vn't
p7493
g4
tp7494
a(Vget
p7495
g7
tp7496
aa(lp7497
(Vdoes
p7498
g312
tp7499
a(Vdoodle
p7500
g11
tp7501
aa(lp7502
g7501
a(Vjump
p7503
g14
tp7504
aa(lp7505
(Vn't
p7506
g4
tp7507
a(Vknow
p7508
g7
tp7509
aasI798
(lp7510
(lp7511
(VInnovative
p7512
g11
tp7513
a(Vconcept
p7514
g14
tp7515
aa(lp7516
(Vsimple
p7517
g11
tp7518
a(Vmechanism
p7519
g14
tp7520
aa(lp7521
(Vthe
p7522
g51
tp7523
a(Vfull
p7524
g11
tp7525
aa(lp7526
g7525
a(Vversion
p7527
g14
tp7528
aasI799
(lp7529
(lp7530
(Vtotally
p7531
g4
tp7532
a(Vaddictive
p7533
g11
tp7534
aasI800
(lp7535
(lp7536
(Vnot
p7537
g4
tp7538
a(Voptimized
p7539
g67
tp7540
aa(lp7541
(Vlow
p7542
g11
tp7543
a(Vend
p7544
g14
tp7545
aasI801
(lp7546
(lp7547
(Vquite
p7548
g4
tp7549
a(Vhard
p7550
g11
tp7551
aasI802
(lp7552
sI803
(lp7553
sI804
(lp7554
(lp7555
(Vthe
p7556
g51
tp7557
a(Vandroid
p7558
g11
tp7559
aa(lp7560
(g50
g51
tp7561
a(Vlow
p7562
g11
tp7563
aa(lp7564
g7563
a(Vscore
p7565
g14
tp7566
aasI805
(lp7567
(lp7568
(Veach
p7569
g51
tp7570
a(Vother
p7571
g11
tp7572
aa(lp7573
(Vdefinitely
p7574
g4
tp7575
a(Vfun
p7576
g67
tp7577
aa(lp7578
(Vthe
p7579
g51
tp7580
a(Ventire
p7581
g11
tp7582
aasI806
(lp7583
(lp7584
(VInnovative
p7585
g11
tp7586
a(Vconcept
p7587
g14
tp7588
aa(lp7589
(Vsimple
p7590
g11
tp7591
a(Vmechanism
p7592
g14
tp7593
aa(lp7594
(Vthe
p7595
g51
tp7596
a(Vfull
p7597
g11
tp7598
aa(lp7599
g7598
a(Vversion
p7600
g14
tp7601
aasI807
(lp7602
(lp7603
(Vtotally
p7604
g4
tp7605
a(Vaddictive
p7606
g11
tp7607
aasI808
(lp7608
(lp7609
(Vnot
p7610
g4
tp7611
a(Voptimized
p7612
g67
tp7613
aa(lp7614
(Vlow
p7615
g11
tp7616
a(Vend
p7617
g14
tp7618
aasI809
(lp7619
(lp7620
(Vquite
p7621
g4
tp7622
a(Vhard
p7623
g11
tp7624
aasI810
(lp7625
sI811
(lp7626
(lp7627
(Vthe
p7628
g51
tp7629
a(Vandroid
p7630
g11
tp7631
aa(lp7632
(g50
g51
tp7633
a(Vlow
p7634
g11
tp7635
aa(lp7636
g7635
a(Vscore
p7637
g14
tp7638
aasI812
(lp7639
(lp7640
(Vvery
p7641
g4
tp7642
a(Vaddicting
p7643
g134
tp7644
aasI813
(lp7645
(lp7646
(Vnever
p7647
g4
tp7648
a(Vdownloaded
p7649
g67
tp7650
aa(lp7651
(Vgreat
p7652
g11
tp7653
a(Vfun
p7654
g14
tp7655
aasI814
(lp7656
(lp7657
(Vstill
p7658
g4
tp7659
a(Vloading
p7660
g134
tp7661
aa(lp7662
(Vn't
p7663
g4
tp7664
a(Vregister
p7665
g7
tp7666
aa(lp7667
(Vthe
p7668
g51
tp7669
a(Vso-called
p7670
g11
tp7671
aa(lp7672
(Vthe
p7673
g51
tp7674
a(Vfirst
p7675
g11
tp7676
aa(lp7677
g7676
a(Vuse
p7678
g14
tp7679
aasI815
(lp7680
(lp7681
(Vposso
p7682
g4
tp7683
a(Vpagare
p7684
g11
tp7685
aasI816
(lp7686
(lp7687
(Vtotally
p7688
g4
tp7689
a(Vaddictive
p7690
g11
tp7691
aasI817
(lp7692
(lp7693
(Vnot
p7694
g4
tp7695
a(Voptimized
p7696
g67
tp7697
aa(lp7698
(Vlow
p7699
g11
tp7700
a(Vend
p7701
g14
tp7702
aasI818
(lp7703
(lp7704
(Vvery
p7705
g4
tp7706
a(Vfun
p7707
g67
tp7708
aa(lp7709
(Vaddictive
p7710
g11
tp7711
a(Vgame
p7712
g14
tp7713
aa(lp7714
(Vany
p7715
g51
tp7716
a(Vpossible
p7717
g11
tp7718
aa(lp7719
g7718
a(Vway
p7720
g14
tp7721
aasI819
(lp7722
(lp7723
(V's
p7724
g312
tp7725
a(Vbetter
p7726
g552
tp7727
aa(lp7728
g7727
a(Vgame
p7729
g14
tp7730
aasI820
(lp7731
(lp7732
(g50
g51
tp7733
a(V3D
p7734
g11
tp7735
aa(lp7736
g7735
a(Vgame
p7737
g14
tp7738
aasI821
(lp7739
(lp7740
(VPretty
p7741
g4
tp7742
a(Vgood
p7743
g11
tp7744
aa(lp7745
(Vreally
p7746
g4
tp7747
a(Vmaking
p7748
g134
tp7749
aa(lp7750
(Vrather
p7751
g4
tp7752
a(V'addictive
p7753
g11
tp7754
aasI822
(lp7755
(lp7756
(Vvery
p7757
g4
tp7758
a(Vaddicting
p7759
g134
tp7760
aasI823
(lp7761
sI824
(lp7762
(lp7763
(Vposso
p7764
g4
tp7765
a(Vpagare
p7766
g11
tp7767
aasI825
(lp7768
(lp7769
(Vall
p7770
g51
tp7771
a(Vglitchy
p7772
g11
tp7773
aasI826
(lp7774
(lp7775
(V's
p7776
g312
tp7777
a(Vbetter
p7778
g552
tp7779
aa(lp7780
g7779
a(Vgame
p7781
g14
tp7782
aasI827
(lp7783
(lp7784
(Vso
p7785
g4
tp7786
a(Vaddicted
p7787
g67
tp7788
aa(lp7789
(Vthe
p7790
g51
tp7791
a(Vmagic
p7792
g11
tp7793
aa(lp7794
(Vn't
p7795
g4
tp7796
a(Vrun
p7797
g7
tp7798
aa(lp7799
(Vnot
p7800
g4
tp7801
a(Vresponding
p7802
g134
tp7803
aasI828
(lp7804
(lp7805
(g50
g51
tp7806
a(V3D
p7807
g11
tp7808
aa(lp7809
g7808
a(Vgame
p7810
g14
tp7811
aasI829
(lp7812
(lp7813
(VPretty
p7814
g4
tp7815
a(Vgood
p7816
g11
tp7817
aa(lp7818
(Vreally
p7819
g4
tp7820
a(Vmaking
p7821
g134
tp7822
aa(lp7823
(Vrather
p7824
g4
tp7825
a(V'addictive
p7826
g11
tp7827
aasI830
(lp7828
sI831
(lp7829
(lp7830
(Vposso
p7831
g4
tp7832
a(Vpagare
p7833
g11
tp7834
aasI832
(lp7835
sI833
(lp7836
(lp7837
(Vall
p7838
g51
tp7839
a(Vglitchy
p7840
g11
tp7841
aasI834
(lp7842
(lp7843
(Vvery
p7844
g4
tp7845
a(Vaddictive
p7846
g11
tp7847
aa(lp7848
(Vn't
p7849
g4
tp7850
a(Vstop
p7851
g7
tp7852
aasI835
(lp7853
sI836
(lp7854
(lp7855
(g50
g51
tp7856
a(Vgood
p7857
g11
tp7858
aa(lp7859
g7858
a(Vgame
p7860
g14
tp7861
aa(lp7862
(Veven
p7863
g4
tp7864
a(Vpick
p7865
g7
tp7866
aasI837
(lp7867
(lp7868
(VTotally
p7869
g4
tp7870
a(Vaddictive
p7871
g11
tp7872
aa(lp7873
(Vlittle
p7874
g4
tp7875
a(Vjerky
p7876
g11
tp7877
aa(lp7878
(Vyet
p7879
g4
tp7880
a(Vgive
p7881
g7
tp7882
aasI838
(lp7883
(lp7884
(Vfinish
p7885
g11
tp7886
a(Vline
p7887
g14
tp7888
aasI839
(lp7889
(lp7890
(Vtotally
p7891
g4
tp7892
a(Vaddictive
p7893
g11
tp7894
aasI840
(lp7895
(lp7896
(g50
g51
tp7897
a(Vbit..so
p7898
g11
tp7899
aa(lp7900
(Vnot
p7901
g4
tp7902
a(Vplay
p7903
g7
tp7904
aa(lp7905
(Veasily
p7906
g4
tp7907
a(V..n
p7908
g11
tp7909
aa(lp7910
(Vdies
p7911
g47
tp7912
a(Vmost
p7913
g168
tp7914
aasI841
(lp7915
(lp7916
(V's
p7917
g312
tp7918
a(Vbetter
p7919
g552
tp7920
aa(lp7921
g7920
a(Vgame
p7922
g14
tp7923
aasI842
(lp7924
(lp7925
(Vn't
p7926
g4
tp7927
a(Vtilt
p7928
g7
tp7929
aasI843
(lp7930
(lp7931
(Vso
p7932
g4
tp7933
a(Vaddicted
p7934
g67
tp7935
aa(lp7936
(Vthe
p7937
g51
tp7938
a(Vmagic
p7939
g11
tp7940
aa(lp7941
(Vn't
p7942
g4
tp7943
a(Vrun
p7944
g7
tp7945
aa(lp7946
(Vnot
p7947
g4
tp7948
a(Vresponding
p7949
g134
tp7950
aasI844
(lp7951
(lp7952
(g50
g51
tp7953
a(V3D
p7954
g11
tp7955
aa(lp7956
g7955
a(Vgame
p7957
g14
tp7958
aasI845
(lp7959
(lp7960
(VPretty
p7961
g4
tp7962
a(Vgood
p7963
g11
tp7964
aa(lp7965
(Vreally
p7966
g4
tp7967
a(Vmaking
p7968
g134
tp7969
aa(lp7970
(Vrather
p7971
g4
tp7972
a(V'addictive
p7973
g11
tp7974
aasI846
(lp7975
(lp7976
(Vfinish
p7977
g11
tp7978
a(Vline
p7979
g14
tp7980
aasI847
(lp7981
(lp7982
(Vreally
p7983
g4
tp7984
a(Vdid
p7985
g162
tp7986
aa(lp7987
(Vn't
p7988
g4
tp7989
a(Vthink
p7990
g7
tp7991
aa(lp7992
(g50
g51
tp7993
a(Vsimple
p7994
g11
tp7995
aa(lp7996
g7995
a(Vconcept
p7997
g14
tp7998
aasI848
(lp7999
(lp8000
(Vtotally
p8001
g4
tp8002
a(Vaddictive
p8003
g11
tp8004
aasI849
(lp8005
(lp8006
(Vn't
p8007
g4
tp8008
a(Vtilt
p8009
g7
tp8010
aasI850
(lp8011
(lp8012
(Vso
p8013
g4
tp8014
a(Vaddicted
p8015
g67
tp8016
aa(lp8017
(Vthe
p8018
g51
tp8019
a(Vmagic
p8020
g11
tp8021
aa(lp8022
(Vn't
p8023
g4
tp8024
a(Vrun
p8025
g7
tp8026
aa(lp8027
(Vnot
p8028
g4
tp8029
a(Vresponding
p8030
g134
tp8031
aasI851
(lp8032
(lp8033
(Vn't
p8034
g4
tp8035
a(Vwaste
p8036
g7
tp8037
aa(lp8038
(Vdifferent
p8039
g11
tp8040
a(Vrunners
p8041
g47
tp8042
aa(lp8043
(Vn't
p8044
g4
tp8045
a(Vhave
p8046
g7
tp8047
aa(lp8048
(Vany
p8049
g51
tp8050
a(Vextra
p8051
g11
tp8052
aa(lp8053
g8052
a(Vfeature
p8054
g14
tp8055
aa(lp8056
(Vn't
p8057
g4
tp8058
a(Vspend
p8059
g7
tp8060
aa(lp8061
(Vnot
p8062
g4
tp8063
a(Vworth
p8064
g11
tp8065
aa(lp8066
(Vfirst
p8067
g11
tp8068
a(Vfew
p8069
g11
tp8070
aa(lp8071
g8070
a(Vdays
p8072
g47
tp8073
aa(lp8074
(Vn't
p8075
g4
tp8076
a(Vavoid
p8077
g7
tp8078
aasI852
(lp8079
(lp8080
(Vthe
p8081
g51
tp8082
a(Vlarger
p8083
g552
tp8084
aa(lp8085
g8084
a(Vscreen
p8086
g14
tp8087
aa(lp8088
(Vsmaller
p8089
g552
tp8090
a(Vphone
p8091
g14
tp8092
aasI853
(lp8093
(lp8094
(Vgood
p8095
g11
tp8096
a(Vgame
p8097
g14
tp8098
aa(lp8099
(Vdead
p8100
g11
tp8101
a(Vbcause
p8102
g14
tp8103
aa(lp8104
(Vtht..and
p8105
g11
tp8106
a(Vsometimes
p8107
g47
tp8108
aasI854
(lp8109
sI855
(lp8110
(lp8111
(Vquite
p8112
g4
tp8113
a(Virritating
p8114
g134
tp8115
aasI856
(lp8116
(lp8117
(Vvery
p8118
g4
tp8119
a(Vgooooood
p8120
g11
tp8121
aa(lp8122
g8121
a(Vandroid
p8123
g11
tp8124
aa(lp8125
g8124
a(Vapp
p8126
g14
tp8127
aa(lp8128
(Vgud
p8129
g11
tp8130
a(Vwork
p8131
g14
tp8132
aasI857
(lp8133
(lp8134
(Vn't
p8135
g4
tp8136
a(Vtilt
p8137
g7
tp8138
aasI858
(lp8139
(lp8140
(Vfinally
p8141
g4
tp8142
a(Vget
p8143
g7
tp8144
aa(lp8145
(Vcompletely
p8146
g4
tp8147
a(Vhooked
p8148
g67
tp8149
aa(lp8150
(Vn't
p8151
g4
tp8152
a(Vknow
p8153
g7
tp8154
aa(lp8155
(Vvery
p8156
g4
tp8157
a(Vfun
p8158
g67
tp8159
aa(lp8160
(Vpretty
p8161
g4
tp8162
a(Vsimple
p8163
g11
tp8164
aasI859
(lp8165
(lp8166
(Vn't
p8167
g4
tp8168
a(Vwaste
p8169
g7
tp8170
aa(lp8171
(Vdifferent
p8172
g11
tp8173
a(Vrunners
p8174
g47
tp8175
aa(lp8176
(Vn't
p8177
g4
tp8178
a(Vhave
p8179
g7
tp8180
aa(lp8181
(Vany
p8182
g51
tp8183
a(Vextra
p8184
g11
tp8185
aa(lp8186
g8185
a(Vfeature
p8187
g14
tp8188
aa(lp8189
(Vn't
p8190
g4
tp8191
a(Vspend
p8192
g7
tp8193
aa(lp8194
(Vnot
p8195
g4
tp8196
a(Vworth
p8197
g11
tp8198
aa(lp8199
(Vfirst
p8200
g11
tp8201
a(Vfew
p8202
g11
tp8203
aa(lp8204
g8203
a(Vdays
p8205
g47
tp8206
aa(lp8207
(Vn't
p8208
g4
tp8209
a(Vavoid
p8210
g7
tp8211
aasI860
(lp8212
(lp8213
(Vthe
p8214
g51
tp8215
a(Vlarger
p8216
g552
tp8217
aa(lp8218
g8217
a(Vscreen
p8219
g14
tp8220
aa(lp8221
(Vsmaller
p8222
g552
tp8223
a(Vphone
p8224
g14
tp8225
aasI861
(lp8226
(lp8227
(Vgood
p8228
g11
tp8229
a(Vgame
p8230
g14
tp8231
aa(lp8232
(Vdead
p8233
g11
tp8234
a(Vbcause
p8235
g14
tp8236
aa(lp8237
(Vtht..and
p8238
g11
tp8239
a(Vsometimes
p8240
g47
tp8241
aasI862
(lp8242
(lp8243
(Vreally
p8244
g4
tp8245
a(Vawesome
p8246
g11
tp8247
aa(lp8248
(Vmuch
p8249
g4
tp8250
a(Vfun.m
p8251
g11
tp8252
aa(lp8253
g8252
a(Vkinda
p8254
g14
tp8255
aa(lp8256
(Vds
p8257
g47
tp8258
a(Vgame.tnx
p8259
g11
tp8260
aasI863
(lp8261
sI864
(lp8262
(lp8263
(Vreally
p8264
g4
tp8265
a(Vnice
p8266
g11
tp8267
aa(lp8268
g8267
a(Vtouch
p8269
g14
tp8270
aa(lp8271
(Vis
p8272
g312
tp8273
a(Veasy
p8274
g11
tp8275
aa(lp8276
(Vlast
p8277
g11
tp8278
a(Vupdated
p8279
g11
tp8280
aa(lp8281
(Vreally
p8282
g4
tp8283
a(Vlaggy.But
p8284
g11
tp8285
aa(lp8286
g8285
a(Vother
p8287
g11
tp8288
aa(lp8289
(Vreally
p8290
g4
tp8291
a(Vgreat
p8292
g11
tp8293
aasI865
(lp8294
(lp8295
(g5621
g312
tp8296
a(Vperfect
p8297
g11
tp8298
aa(lp8299
g8298
a(Vwen
p8300
g14
tp8301
aasI866
(lp8302
(lp8303
(Vvery
p8304
g4
tp8305
a(Vdifferent
p8306
g11
tp8307
aa(lp8308
(Vn't
p8309
g4
tp8310
a(Vstop
p8311
g7
tp8312
aasI867
(lp8313
(lp8314
(Vreally
p8315
g4
tp8316
a(Vdid
p8317
g162
tp8318
aa(lp8319
(Vn't
p8320
g4
tp8321
a(Vthink
p8322
g7
tp8323
aa(lp8324
(g50
g51
tp8325
a(Vsimple
p8326
g11
tp8327
aa(lp8328
g8327
a(Vconcept
p8329
g14
tp8330
aasI868
(lp8331
(lp8332
(Vvery
p8333
g4
tp8334
a(Vgooooood
p8335
g11
tp8336
aa(lp8337
g8336
a(Vandroid
p8338
g11
tp8339
aa(lp8340
g8339
a(Vapp
p8341
g14
tp8342
aa(lp8343
(Vgud
p8344
g11
tp8345
a(Vwork
p8346
g14
tp8347
aasI869
(lp8348
(lp8349
(Vfinally
p8350
g4
tp8351
a(Vget
p8352
g7
tp8353
aa(lp8354
(Vcompletely
p8355
g4
tp8356
a(Vhooked
p8357
g67
tp8358
aa(lp8359
(Vn't
p8360
g4
tp8361
a(Vknow
p8362
g7
tp8363
aa(lp8364
(Vvery
p8365
g4
tp8366
a(Vfun
p8367
g67
tp8368
aa(lp8369
(Vpretty
p8370
g4
tp8371
a(Vsimple
p8372
g11
tp8373
aasI870
(lp8374
(lp8375
(Vn't
p8376
g4
tp8377
a(Vwaste
p8378
g7
tp8379
aa(lp8380
(Vdifferent
p8381
g11
tp8382
a(Vrunners
p8383
g47
tp8384
aa(lp8385
(Vn't
p8386
g4
tp8387
a(Vhave
p8388
g7
tp8389
aa(lp8390
(Vany
p8391
g51
tp8392
a(Vextra
p8393
g11
tp8394
aa(lp8395
g8394
a(Vfeature
p8396
g14
tp8397
aa(lp8398
(Vn't
p8399
g4
tp8400
a(Vspend
p8401
g7
tp8402
aa(lp8403
(Vnot
p8404
g4
tp8405
a(Vworth
p8406
g11
tp8407
aa(lp8408
(Vfirst
p8409
g11
tp8410
a(Vfew
p8411
g11
tp8412
aa(lp8413
g8412
a(Vdays
p8414
g47
tp8415
aa(lp8416
(Vn't
p8417
g4
tp8418
a(Vavoid
p8419
g7
tp8420
aasI871
(lp8421
(lp8422
(Vgood
p8423
g11
tp8424
a(Vgame
p8425
g14
tp8426
aa(lp8427
(Vdead
p8428
g11
tp8429
a(Vbcause
p8430
g14
tp8431
aa(lp8432
(Vtht..and
p8433
g11
tp8434
a(Vsometimes
p8435
g47
tp8436
aasI872
(lp8437
(lp8438
(Vreally
p8439
g4
tp8440
a(Vawesome
p8441
g11
tp8442
aa(lp8443
(Vmuch
p8444
g4
tp8445
a(Vfun.m
p8446
g11
tp8447
aa(lp8448
g8447
a(Vkinda
p8449
g14
tp8450
aa(lp8451
(Vds
p8452
g47
tp8453
a(Vgame.tnx
p8454
g11
tp8455
aasI873
(lp8456
sI874
(lp8457
(lp8458
(Vreally
p8459
g4
tp8460
a(Vnice
p8461
g11
tp8462
aa(lp8463
g8462
a(Vtouch
p8464
g14
tp8465
aa(lp8466
(Vis
p8467
g312
tp8468
a(Veasy
p8469
g11
tp8470
aa(lp8471
(Vlast
p8472
g11
tp8473
a(Vupdated
p8474
g11
tp8475
aa(lp8476
(Vreally
p8477
g4
tp8478
a(Vlaggy.But
p8479
g11
tp8480
aa(lp8481
g8480
a(Vother
p8482
g11
tp8483
aa(lp8484
(Vreally
p8485
g4
tp8486
a(Vgreat
p8487
g11
tp8488
aasI875
(lp8489
(lp8490
(g5621
g312
tp8491
a(Vperfect
p8492
g11
tp8493
aa(lp8494
g8493
a(Vwen
p8495
g14
tp8496
aasI876
(lp8497
sI877
(lp8498
(lp8499
(Vfinally
p8500
g4
tp8501
a(Vget
p8502
g7
tp8503
aa(lp8504
(Vcompletely
p8505
g4
tp8506
a(Vhooked
p8507
g67
tp8508
aa(lp8509
(Vn't
p8510
g4
tp8511
a(Vknow
p8512
g7
tp8513
aa(lp8514
(Vvery
p8515
g4
tp8516
a(Vfun
p8517
g67
tp8518
aa(lp8519
(Vpretty
p8520
g4
tp8521
a(Vsimple
p8522
g11
tp8523
aasI878
(lp8524
(lp8525
(Vthe
p8526
g51
tp8527
a(Vlast
p8528
g11
tp8529
aa(lp8530
(Van
p8531
g51
tp8532
a(Vupdate
p8533
g11
tp8534
aa(lp8535
g8534
a(Vsoon
p8536
g14
tp8537
aasI879
(lp8538
(lp8539
(Vreally
p8540
g4
tp8541
a(Vawesome
p8542
g11
tp8543
aa(lp8544
(Vmuch
p8545
g4
tp8546
a(Vfun.m
p8547
g11
tp8548
aa(lp8549
g8548
a(Vkinda
p8550
g14
tp8551
aa(lp8552
(Vds
p8553
g47
tp8554
a(Vgame.tnx
p8555
g11
tp8556
aasI880
(lp8557
(lp8558
(Vis
p8559
g312
tp8560
a(Vaddictive
p8561
g11
tp8562
aa(lp8563
(Vcritical
p8564
g11
tp8565
a(Vsituations
p8566
g47
tp8567
aasI881
(lp8568
(lp8569
(Vever
p8570
g4
tp8571
a(Vget
p8572
g7
tp8573
aasI882
(lp8574
(lp8575
(Vtemple
p8576
g11
tp8577
a(Vrun
p8578
g14
tp8579
aa(lp8580
(VReally
p8581
g4
tp8582
a(Vannoying
p8583
g134
tp8584
aa(lp8585
(Vn't
p8586
g4
tp8587
a(Vhave
p8588
g7
tp8589
aa(lp8590
(Vany
p8591
g51
tp8592
a(Vother
p8593
g11
tp8594
aa(lp8595
g8594
a(Vproblems
p8596
g47
tp8597
aasI883
(lp8598
(lp8599
(Vn't
p8600
g4
tp8601
a(Vrun
p8602
g7
tp8603
aa(lp8604
(Vnot
p8605
g4
tp8606
a(Vrespond
p8607
g7
tp8608
aasI884
(lp8609
(lp8610
(Vsome
p8611
g51
tp8612
a(Vstupid
p8613
g11
tp8614
aa(lp8615
g8614
a(Vglitch
p8616
g14
tp8617
aasI885
(lp8618
(lp8619
(g50
g51
tp8620
a(Vfew
p8621
g11
tp8622
aa(lp8623
g8622
a(Vdays
p8624
g47
tp8625
aa(lp8626
(V's
p8627
g312
tp8628
a(Vdissapear
p8629
g11
tp8630
aa(lp8631
(Vthe
p8632
g51
tp8633
a(Vfirst
p8634
g11
tp8635
aa(lp8636
g8635
a(Vtime
p8637
g14
tp8638
aasI886
(lp8639
(lp8640
(Vevil
p8641
g11
tp8642
a(Vcreatures
p8643
g47
tp8644
aasI887
(lp8645
sI888
(lp8646
sI889
(lp8647
(lp8648
(Vthe
p8649
g51
tp8650
a(Vlast
p8651
g11
tp8652
aa(lp8653
(Van
p8654
g51
tp8655
a(Vupdate
p8656
g11
tp8657
aa(lp8658
g8657
a(Vsoon
p8659
g14
tp8660
aasI890
(lp8661
(lp8662
(Vis
p8663
g312
tp8664
a(Vaddictive
p8665
g11
tp8666
aa(lp8667
(Vcritical
p8668
g11
tp8669
a(Vsituations
p8670
g47
tp8671
aasI891
(lp8672
(lp8673
(Vever
p8674
g4
tp8675
a(Vget
p8676
g7
tp8677
aasI892
(lp8678
(lp8679
(Vtemple
p8680
g11
tp8681
a(Vrun
p8682
g14
tp8683
aa(lp8684
(VReally
p8685
g4
tp8686
a(Vannoying
p8687
g134
tp8688
aa(lp8689
(Vn't
p8690
g4
tp8691
a(Vhave
p8692
g7
tp8693
aa(lp8694
(Vany
p8695
g51
tp8696
a(Vother
p8697
g11
tp8698
aa(lp8699
g8698
a(Vproblems
p8700
g47
tp8701
aasI893
(lp8702
(lp8703
(Vthe
p8704
g51
tp8705
a(Vfree
p8706
g11
tp8707
aa(lp8708
g8707
a(Vversion
p8709
g14
tp8710
aa(lp8711
(Vnot
p8712
g4
tp8713
a(Vallow
p8714
g7
tp8715
aasI894
(lp8716
(lp8717
(Vsome
p8718
g51
tp8719
a(Vstupid
p8720
g11
tp8721
aa(lp8722
g8721
a(Vglitch
p8723
g14
tp8724
aasI895
(lp8725
(lp8726
(g50
g51
tp8727
a(Vfew
p8728
g11
tp8729
aa(lp8730
g8729
a(Vdays
p8731
g47
tp8732
aa(lp8733
(V's
p8734
g312
tp8735
a(Vdissapear
p8736
g11
tp8737
aa(lp8738
(Vthe
p8739
g51
tp8740
a(Vfirst
p8741
g11
tp8742
aa(lp8743
g8742
a(Vtime
p8744
g14
tp8745
aasI896
(lp8746
(lp8747
(Vtruly
p8748
g4
tp8749
a(Vaddictive
p8750
g11
tp8751
aa(lp8752
(g50
g51
tp8753
a(Vfew
p8754
g11
tp8755
aa(lp8756
g8755
a(Vsmall
p8757
g11
tp8758
aa(lp8759
g8758
a(Vglitches
p8760
g47
tp8761
aasI897
(lp8762
(lp8763
(Vthe
p8764
g51
tp8765
a(Vrecent
p8766
g11
tp8767
aa(lp8768
g8767
a(Vupgrade
p8769
g14
tp8770
aasI898
(lp8771
(lp8772
(VNeeds
p8773
g47
tp8774
a(Vmore
p8775
g552
tp8776
aa(lp8777
g8776
a(Vobjectives
p8778
g47
tp8779
aasI899
(lp8780
(lp8781
(Vthe
p8782
g51
tp8783
a(Vlast
p8784
g11
tp8785
aa(lp8786
(Van
p8787
g51
tp8788
a(Vupdate
p8789
g11
tp8790
aa(lp8791
g8790
a(Vsoon
p8792
g14
tp8793
aasI900
(lp8794
(lp8795
(g50
g51
tp8796
a(Vgreat
p8797
g11
tp8798
aa(lp8799
g8798
a(Vgame
p8800
g14
tp8801
aa(lp8802
(Vconstantly
p8803
g4
tp8804
a(Vdying
p8805
g134
tp8806
aasI901
(lp8807
(lp8808
(VBest
p8809
g168
tp8810
a(Vgame
p8811
g14
tp8812
aa(lp8813
(g50
g51
tp8814
a(Vbig
p8815
g11
tp8816
aa(lp8817
g8816
a(Vrun
p8818
g14
tp8819
aa(lp8820
(g50
g51
tp8821
a(Vnew
p8822
g11
tp8823
aa(lp8824
g8823
a(Vmap
p8825
g14
tp8826
aasI902
(lp8827
(lp8828
(Vis
p8829
g312
tp8830
a(Vaddictive
p8831
g11
tp8832
aa(lp8833
(Vcritical
p8834
g11
tp8835
a(Vsituations
p8836
g47
tp8837
aasI903
(lp8838
(lp8839
(Vever
p8840
g4
tp8841
a(Vget
p8842
g7
tp8843
aasI904
(lp8844
(lp8845
(Vtemple
p8846
g11
tp8847
a(Vrun
p8848
g14
tp8849
aa(lp8850
(VReally
p8851
g4
tp8852
a(Vannoying
p8853
g134
tp8854
aa(lp8855
(Vn't
p8856
g4
tp8857
a(Vhave
p8858
g7
tp8859
aa(lp8860
(Vany
p8861
g51
tp8862
a(Vother
p8863
g11
tp8864
aa(lp8865
g8864
a(Vproblems
p8866
g47
tp8867
aasI905
(lp8868
(lp8869
(Vthe
p8870
g51
tp8871
a(Vfree
p8872
g11
tp8873
aa(lp8874
g8873
a(Vversion
p8875
g14
tp8876
aa(lp8877
(Vnot
p8878
g4
tp8879
a(Vallow
p8880
g7
tp8881
aasI906
(lp8882
(lp8883
(g50
g51
tp8884
a(Vgood
p8885
g11
tp8886
aa(lp8887
g8886
a(Vgame
p8888
g14
tp8889
aa(lp8890
(Vthe
p8891
g51
tp8892
a(Vonly
p8893
g11
tp8894
aa(lp8895
g8894
a(Vthing
p8896
g14
tp8897
aa(lp8898
(Veverytime
p8899
g11
tp8900
a(Vi
p8901
g14
tp8902
aa(lp8903
(Vn't
p8904
g4
tp8905
a(Vturn
p8906
g7
tp8907
aasI907
(lp8908
(lp8909
(Vtruly
p8910
g4
tp8911
a(Vaddictive
p8912
g11
tp8913
aa(lp8914
(g50
g51
tp8915
a(Vfew
p8916
g11
tp8917
aa(lp8918
g8917
a(Vsmall
p8919
g11
tp8920
aa(lp8921
g8920
a(Vglitches
p8922
g47
tp8923
aasI908
(lp8924
(lp8925
(Vthe
p8926
g51
tp8927
a(Vrecent
p8928
g11
tp8929
aa(lp8930
g8929
a(Vupgrade
p8931
g14
tp8932
aasI909
(lp8933
(lp8934
(Vis
p8935
g312
tp8936
a(Vfabulous
p8937
g11
tp8938
aa(lp8939
(Vnot
p8940
g4
tp8941
a(Vstop
p8942
g7
tp8943
aasI910
(lp8944
(lp8945
(VNeeds
p8946
g47
tp8947
a(Vmore
p8948
g552
tp8949
aa(lp8950
g8949
a(Vobjectives
p8951
g47
tp8952
aasI911
(lp8953
(lp8954
(g50
g51
tp8955
a(Vgreat
p8956
g11
tp8957
aa(lp8958
g8957
a(Vgame
p8959
g14
tp8960
aa(lp8961
(Vconstantly
p8962
g4
tp8963
a(Vdying
p8964
g134
tp8965
aasI912
(lp8966
(lp8967
(VBest
p8968
g168
tp8969
a(Vgame
p8970
g14
tp8971
aa(lp8972
(g50
g51
tp8973
a(Vbig
p8974
g11
tp8975
aa(lp8976
g8975
a(Vrun
p8977
g14
tp8978
aa(lp8979
(g50
g51
tp8980
a(Vnew
p8981
g11
tp8982
aa(lp8983
g8982
a(Vmap
p8984
g14
tp8985
aasI913
(lp8986
(lp8987
(Vthe
p8988
g51
tp8989
a(Vfree
p8990
g11
tp8991
aa(lp8992
g8991
a(Vversion
p8993
g14
tp8994
aa(lp8995
(Vnot
p8996
g4
tp8997
a(Vallow
p8998
g7
tp8999
aasI914
(lp9000
(lp9001
(Valways
p9002
g4
tp9003
a(Vregister
p9004
g7
tp9005
aa(lp9006
(Vhigh
p9007
g11
tp9008
a(Vspeed
p9009
g14
tp9010
aasI915
(lp9011
(lp9012
(g50
g51
tp9013
a(Vfew
p9014
g11
tp9015
aa(lp9016
g9015
a(Vminutes
p9017
g47
tp9018
aa(lp9019
(Vother
p9020
g11
tp9021
a(Vwise
p9022
g14
tp9023
aa(lp9024
g9023
a(Vgreat
p9025
g11
tp9026
aasI916
(lp9027
sI917
(lp9028
sI918
(lp9029
(lp9030
(Valways
p9031
g4
tp9032
a(Vfollow
p9033
g7
tp9034
aasI919
(lp9035
(lp9036
(g50
g51
tp9037
a(Vgood
p9038
g11
tp9039
aa(lp9040
g9039
a(Vgame
p9041
g14
tp9042
aa(lp9043
(Vthe
p9044
g51
tp9045
a(Vonly
p9046
g11
tp9047
aa(lp9048
g9047
a(Vthing
p9049
g14
tp9050
aa(lp9051
(Veverytime
p9052
g11
tp9053
a(g8901
g14
tp9054
aa(lp9055
(Vn't
p9056
g4
tp9057
a(Vturn
p9058
g7
tp9059
aasI920
(lp9060
(lp9061
(Vis
p9062
g312
tp9063
a(Vfabulous
p9064
g11
tp9065
aa(lp9066
(Vnot
p9067
g4
tp9068
a(Vstop
p9069
g7
tp9070
aasI921
(lp9071
(lp9072
(VNeeds
p9073
g47
tp9074
a(Vmore
p9075
g552
tp9076
aa(lp9077
g9076
a(Vobjectives
p9078
g47
tp9079
aasI922
(lp9080
(lp9081
(VBest
p9082
g168
tp9083
a(Vgame
p9084
g14
tp9085
aa(lp9086
(g50
g51
tp9087
a(Vbig
p9088
g11
tp9089
aa(lp9090
g9089
a(Vrun
p9091
g14
tp9092
aa(lp9093
(g50
g51
tp9094
a(Vnew
p9095
g11
tp9096
aa(lp9097
g9096
a(Vmap
p9098
g14
tp9099
aasI923
(lp9100
sI924
(lp9101
(lp9102
(Vjellybean
p9103
g11
tp9104
a(Vupdate
p9105
g14
tp9106
aasI925
(lp9107
sI926
(lp9108
(lp9109
(Vmuch
p9110
g4
tp9111
a(Vfun
p9112
g67
tp9113
aa(lp9114
(Vlittle
p9115
g11
tp9116
a(Vsisters
p9117
g47
tp9118
aa(lp9119
(Vmore
p9120
g1725
tp9121
a(Vthing
p9122
g11
tp9123
aa(lp9124
(Vlittle
p9125
g11
tp9126
a(Vsisters
p9127
g47
tp9128
aasI927
(lp9129
(lp9130
(Vn't
p9131
g4
tp9132
a(Vplay
p9133
g7
tp9134
aasI928
(lp9135
sI929
(lp9136
(lp9137
(Vis
p9138
g312
tp9139
a(Vfabulous
p9140
g11
tp9141
aa(lp9142
(Vnot
p9143
g4
tp9144
a(Vstop
p9145
g7
tp9146
aasI930
(lp9147
(lp9148
(Vgreat
p9149
g11
tp9150
a(Vgame
p9151
g14
tp9152
aa(lp9153
(Vpainful
p9154
g11
tp9155
a(Vlong
p9156
g11
tp9157
aa(lp9158
g9157
a(Vjourney..enjoy
p9159
g11
tp9160
aasI931
(lp9161
(lp9162
(Vreally
p9163
g4
tp9164
a(Virritating
p9165
g134
tp9166
aa(lp9167
(Vquickly
p9168
g4
tp9169
a(Vi'l
p9170
g11
tp9171
aa(lp9172
g9171
a(Vgive
p9173
g11
tp9174
aa(lp9175
g9174
a(g4097
g14
tp9176
aasI932
(lp9177
sI933
(lp9178
(lp9179
(Vjellybean
p9180
g11
tp9181
a(Vupdate
p9182
g14
tp9183
aasI934
(lp9184
sI935
(lp9185
(lp9186
(VSometimes
p9187
g4
tp9188
a(Vunresponsive
p9189
g11
tp9190
aasI936
(lp9191
(lp9192
(g50
g51
tp9193
a(Vbig
p9194
g11
tp9195
aa(lp9196
g9195
a(Vfan
p9197
g14
tp9198
aa(lp9199
(g50
g51
tp9200
a(Vhuge
p9201
g11
tp9202
aa(lp9203
g9202
a(Vproblem
p9204
g14
tp9205
aa(lp9206
(Vn't
p9207
g4
tp9208
a(Vwork
p9209
g7
tp9210
aa(lp9211
(Veven
p9212
g4
tp9213
a(Vuninstalled
p9214
g162
tp9215
aa(lp9216
(Vthen
p9217
g4
tp9218
a(Vreinstalled
p9219
g162
tp9220
aa(lp9221
(Vagain
p9222
g4
tp9223
a(Vhelp
p9224
g7
tp9225
aa(lp9226
(Vn't
p9227
g4
tp9228
a(Vstay
p9229
g7
tp9230
aasI937
(lp9231
sI938
(lp9232
(lp9233
(Vthe
p9234
g51
tp9235
a(Vbest
p9236
g168
tp9237
aa(lp9238
g9237
a(Vgame
p9239
g14
tp9240
aa(lp9241
(Vquite
p9242
g4
tp9243
a(Vhumorous
p9244
g11
tp9245
aa(lp9246
(Vbecomes
p9247
g312
tp9248
a(Vunresponsive
p9249
g11
tp9250
aa(lp9251
(g50
g51
tp9252
a(Vgreat
p9253
g11
tp9254
aa(lp9255
g9254
a(Vgame
p9256
g14
tp9257
aasI939
(lp9258
(lp9259
(VBEST
p9260
g168
tp9261
a(VGAME
p9262
g14
tp9263
aa(lp9264
(Vvery
p9265
g4
tp9266
a(Vwerid
p9267
g11
tp9268
aa(lp9269
g9268
a(Vperson
p9270
g14
tp9271
aasI940
(lp9272
(lp9273
(Vmillion
p9274
g14
tp9275
a(Vdue
p9276
g11
tp9277
aasI941
(lp9278
(lp9279
(g50
g51
tp9280
a(Vgreat
p9281
g11
tp9282
aa(lp9283
g9282
a(Vgame
p9284
g14
tp9285
aa(lp9286
(Vgame
p9287
g14
tp9288
a(Vmost
p9289
g168
tp9290
aa(lp9291
(Vn't
p9292
g4
tp9293
a(Vhave
p9294
g7
tp9295
aa(lp9296
(Vgoes
p9297
g312
tp9298
a(Vstraight
p9299
g11
tp9300
aa(lp9301
(Vreally
p9302
g4
tp9303
a(Virritating
p9304
g134
tp9305
aasI942
(lp9306
(lp9307
(VThe
p9308
g51
tp9309
a(Vfirst
p9310
g11
tp9311
aa(lp9312
g9311
a(Vinstallation
p9313
g14
tp9314
aa(lp9315
(Vseveral
p9316
g11
tp9317
a(Vtimes
p9318
g47
tp9319
aa(lp9320
(Vnot
p9321
g4
tp9322
a(Vsave
p9323
g7
tp9324
aa(lp9325
(Vrecently
p9326
g4
tp9327
a(Vre
p9328
g7
tp9329
aasI943
(lp9330
(lp9331
(Vrecently
p9332
g4
tp9333
a(Vdownloaded
p9334
g162
tp9335
aa(lp9336
(Vreally
p9337
g4
tp9338
a(Vaddicting
p9339
g134
tp9340
aasI944
(lp9341
(lp9342
(Vgreat
p9343
g11
tp9344
a(Vgame
p9345
g14
tp9346
aa(lp9347
(Vpainful
p9348
g11
tp9349
a(Vlong
p9350
g11
tp9351
aa(lp9352
g9351
a(Vjourney..enjoy
p9353
g11
tp9354
aasI945
(lp9355
(lp9356
(Vsome
p9357
g51
tp9358
a(Vminor
p9359
g11
tp9360
aa(lp9361
g9360
a(Vglitches
p9362
g47
tp9363
aa(lp9364
(Vtoo
p9365
g4
tp9366
a(Vmuch
p9367
g11
tp9368
aa(lp9369
g9368
a(Vtilt
p9370
g14
tp9371
aasI946
(lp9372
(lp9373
(VDoes
p9374
g312
tp9375
a(Vstutter
p9376
g552
tp9377
aasI947
(lp9378
(lp9379
(Vmillion
p9380
g14
tp9381
a(Vdue
p9382
g11
tp9383
aasI948
(lp9384
(lp9385
(g50
g51
tp9386
a(Vgreat
p9387
g11
tp9388
aa(lp9389
g9388
a(Vgame
p9390
g14
tp9391
aa(lp9392
(Vgame
p9393
g14
tp9394
a(Vmost
p9395
g168
tp9396
aa(lp9397
(Vn't
p9398
g4
tp9399
a(Vhave
p9400
g7
tp9401
aa(lp9402
(Vgoes
p9403
g312
tp9404
a(Vstraight
p9405
g11
tp9406
aa(lp9407
(Vreally
p9408
g4
tp9409
a(Virritating
p9410
g134
tp9411
aasI949
(lp9412
(lp9413
(VThe
p9414
g51
tp9415
a(Vfirst
p9416
g11
tp9417
aa(lp9418
g9417
a(Vinstallation
p9419
g14
tp9420
aa(lp9421
(Vseveral
p9422
g11
tp9423
a(Vtimes
p9424
g47
tp9425
aa(lp9426
(Vnot
p9427
g4
tp9428
a(Vsave
p9429
g7
tp9430
aa(lp9431
(Vrecently
p9432
g4
tp9433
a(Vre
p9434
g7
tp9435
aasI950
(lp9436
(lp9437
(Vrecently
p9438
g4
tp9439
a(Vdownloaded
p9440
g162
tp9441
aa(lp9442
(Vreally
p9443
g4
tp9444
a(Vaddicting
p9445
g134
tp9446
aasI951
(lp9447
(lp9448
(VThe
p9449
g51
tp9450
a(Vonly
p9451
g11
tp9452
aa(lp9453
g9452
a(Vthing
p9454
g14
tp9455
aa(lp9456
(Vmean
p9457
g11
tp9458
a(Vlag
p9459
g14
tp9460
aa(lp9461
(VOverall
p9462
g11
tp9463
a(Vawesome
p9464
g14
tp9465
aasI952
(lp9466
(lp9467
(Vpreviously
p9468
g4
tp9469
a(Vgave
p9470
g162
tp9471
aasI953
(lp9472
(lp9473
(Vgreat
p9474
g11
tp9475
a(Vgame
p9476
g14
tp9477
aa(lp9478
(Vpainful
p9479
g11
tp9480
a(Vlong
p9481
g11
tp9482
aa(lp9483
g9482
a(Vjourney..enjoy
p9484
g11
tp9485
aasI954
(lp9486
(lp9487
(Vsome
p9488
g51
tp9489
a(Vminor
p9490
g11
tp9491
aa(lp9492
g9491
a(Vglitches
p9493
g47
tp9494
aa(lp9495
(Vtoo
p9496
g4
tp9497
a(Vmuch
p9498
g11
tp9499
aa(lp9500
g9499
a(Vtilt
p9501
g14
tp9502
aasI955
(lp9503
(lp9504
(Vreally
p9505
g4
tp9506
a(Virritating
p9507
g134
tp9508
aa(lp9509
(Vquickly
p9510
g4
tp9511
a(Vi'l
p9512
g11
tp9513
aa(lp9514
g9513
a(Vgive
p9515
g11
tp9516
aa(lp9517
g9516
a(g4097
g14
tp9518
aasI956
(lp9519
(lp9520
(Vis
p9521
g312
tp9522
a(Vbloody
p9523
g11
tp9524
aasI957
(lp9525
(lp9526
(VDoes
p9527
g312
tp9528
a(Vstutter
p9529
g552
tp9530
aasI958
(lp9531
(lp9532
(g50
g51
tp9533
a(Vgood
p9534
g11
tp9535
aa(lp9536
g9535
a(Vgame
p9537
g14
tp9538
aasI959
(lp9539
sI960
(lp9540
(lp9541
(VThe
p9542
g51
tp9543
a(Vonly
p9544
g11
tp9545
aa(lp9546
g9545
a(Vthing
p9547
g14
tp9548
aa(lp9549
(Vmean
p9550
g11
tp9551
a(Vlag
p9552
g14
tp9553
aa(lp9554
(VOverall
p9555
g11
tp9556
a(Vawesome
p9557
g14
tp9558
aasI961
(lp9559
(lp9560
(Vpreviously
p9561
g4
tp9562
a(Vgave
p9563
g162
tp9564
aasI962
(lp9565
(lp9566
(Vsome
p9567
g51
tp9568
a(Vminor
p9569
g11
tp9570
aa(lp9571
g9570
a(Vglitches
p9572
g47
tp9573
aa(lp9574
(Vtoo
p9575
g4
tp9576
a(Vmuch
p9577
g11
tp9578
aa(lp9579
g9578
a(Vtilt
p9580
g14
tp9581
aasI963
(lp9582
sI964
(lp9583
(lp9584
(Vn't
p9585
g4
tp9586
a(Vgive
p9587
g7
tp9588
aasI965
(lp9589
sI966
(lp9590
sI967
(lp9591
(lp9592
(Vpreviously
p9593
g4
tp9594
a(Vgave
p9595
g162
tp9596
aasI968
(lp9597
(lp9598
(Valmost
p9599
g4
tp9600
a(Vexceptional
p9601
g11
tp9602
aa(lp9603
(Vnever
p9604
g4
tp9605
a(Vget
p9606
g7
tp9607
aa(lp9608
(Vthe
p9609
g51
tp9610
a(Vonly
p9611
g11
tp9612
aa(lp9613
g9612
a(Vgame
p9614
g14
tp9615
aa(lp9616
(VThe
p9617
g51
tp9618
a(Vonly
p9619
g11
tp9620
aa(lp9621
g9620
a(Vproblems
p9622
g47
tp9623
aa(lp9624
(Vn't
p9625
g4
tp9626
a(Vregister
p9627
g7
tp9628
aa(lp9629
(Vnot
p9630
g4
tp9631
a(Vregister
p9632
g7
tp9633
aasI969
(lp9634
(lp9635
(V's
p9636
g312
tp9637
a(Vexcellent
p9638
g11
tp9639
aa(lp9640
(Vn't
p9641
g4
tp9642
a(Vrun
p9643
g7
tp9644
aasI970
(lp9645
sI971
(lp9646
(lp9647
(Vn't
p9648
g4
tp9649
a(Vgive
p9650
g7
tp9651
aasI972
(lp9652
sI973
(lp9653
sI974
(lp9654
sI975
(lp9655
sI976
(lp9656
(lp9657
(g50
g51
tp9658
a(Vsad
p9659
g11
tp9660
aa(lp9661
g9660
a(Vaffair
p9662
g14
tp9663
aa(lp9664
(Vvery
p9665
g4
tp9666
a(Vslow
p9667
g11
tp9668
aasI977
(lp9669
(lp9670
(Vis
p9671
g312
tp9672
a(Vbest
p9673
g168
tp9674
aa(lp9675
(Vruns
p9676
g312
tp9677
a(Vslow
p9678
g11
tp9679
aa(lp9680
(Vis
p9681
g312
tp9682
a(Vbest
p9683
g168
tp9684
aasI978
(lp9685
sI979
(lp9686
(lp9687
(Vnever
p9688
g4
tp9689
a(Vget
p9690
g7
tp9691
aasI980
(lp9692
sI981
(lp9693
(lp9694
(Valmost
p9695
g4
tp9696
a(Vexceptional
p9697
g11
tp9698
aa(lp9699
(Vnever
p9700
g4
tp9701
a(Vget
p9702
g7
tp9703
aa(lp9704
(Vthe
p9705
g51
tp9706
a(Vonly
p9707
g11
tp9708
aa(lp9709
g9708
a(Vgame
p9710
g14
tp9711
aa(lp9712
(VThe
p9713
g51
tp9714
a(Vonly
p9715
g11
tp9716
aa(lp9717
g9716
a(Vproblems
p9718
g47
tp9719
aa(lp9720
(Vn't
p9721
g4
tp9722
a(Vregister
p9723
g7
tp9724
aa(lp9725
(Vnot
p9726
g4
tp9727
a(Vregister
p9728
g7
tp9729
aasI982
(lp9730
(lp9731
(VEven
p9732
g4
tp9733
a(Vbetter
p9734
g552
tp9735
aasI983
(lp9736
(lp9737
(V's
p9738
g312
tp9739
a(Vexcellent
p9740
g11
tp9741
aa(lp9742
(Vn't
p9743
g4
tp9744
a(Vrun
p9745
g7
tp9746
aasI984
(lp9747
(lp9748
(Valways
p9749
g4
tp9750
a(Vitspretty
p9751
g11
tp9752
aa(lp9753
g9752
a(Vbad
p9754
g11
tp9755
aasI985
(lp9756
sI986
(lp9757
(lp9758
(Vis
p9759
g312
tp9760
a(Vbest
p9761
g168
tp9762
aa(lp9763
(Vruns
p9764
g312
tp9765
a(Vslow
p9766
g11
tp9767
aa(lp9768
(Vis
p9769
g312
tp9770
a(Vbest
p9771
g168
tp9772
aasI987
(lp9773
sI988
(lp9774
(lp9775
(Vnever
p9776
g4
tp9777
a(Vget
p9778
g7
tp9779
aasI989
(lp9780
(lp9781
(Vreally
p9782
g4
tp9783
a(Vkool
p9784
g11
tp9785
aa(lp9786
g9785
a(Vgame
p9787
g14
tp9788
aa(lp9789
(Vcrash
p9790
g11
tp9791
a(g4097
g14
tp9792
aasI990
(lp9793
(lp9794
(Valmost
p9795
g4
tp9796
a(Vexceptional
p9797
g11
tp9798
aa(lp9799
(Vnever
p9800
g4
tp9801
a(Vget
p9802
g7
tp9803
aa(lp9804
(Vthe
p9805
g51
tp9806
a(Vonly
p9807
g11
tp9808
aa(lp9809
g9808
a(Vgame
p9810
g14
tp9811
aa(lp9812
(VThe
p9813
g51
tp9814
a(Vonly
p9815
g11
tp9816
aa(lp9817
g9816
a(Vproblems
p9818
g47
tp9819
aa(lp9820
(Vn't
p9821
g4
tp9822
a(Vregister
p9823
g7
tp9824
aa(lp9825
(Vnot
p9826
g4
tp9827
a(Vregister
p9828
g7
tp9829
aasI991
(lp9830
(lp9831
(VEven
p9832
g4
tp9833
a(Vbetter
p9834
g552
tp9835
aasI992
(lp9836
(lp9837
(Valways
p9838
g4
tp9839
a(Vitspretty
p9840
g11
tp9841
aa(lp9842
g9841
a(Vbad
p9843
g11
tp9844
aasI993
(lp9845
sI994
(lp9846
sI995
(lp9847
(lp9848
(Vso
p9849
g4
tp9850
a(Vhigh
p9851
g11
tp9852
aa(lp9853
(VSometimes
p9854
g4
tp9855
a(Vlet
p9856
g162
tp9857
aasI996
(lp9858
(lp9859
(Vthe
p9860
g51
tp9861
a(Vgreatest
p9862
g168
tp9863
aa(lp9864
g9863
a(Vgame
p9865
g14
tp9866
aa(lp9867
(Vever
p9868
g4
tp9869
a(Vplayed
p9870
g67
tp9871
aa(lp9872
(Vthe
p9873
g51
tp9874
a(Vfirst
p9875
g11
tp9876
aa(lp9877
g9876
a(Vweek
p9878
g14
tp9879
aa(lp9880
(Vkinda
p9881
g14
tp9882
a(Vslow
p9883
g11
tp9884
aa(lp9885
(g50
g51
tp9886
a(Vblast
p9887
g11
tp9888
aasI997
(lp9889
(lp9890
(VMOST
p9891
g208
tp9892
a(VENJOYABLE
p9893
g11
tp9894
aa(lp9895
(Van
p9896
g51
tp9897
a(Vold
p9898
g11
tp9899
aa(lp9900
g9899
a(Vbar
p9901
g14
tp9902
aa(lp9903
(g50
g51
tp9904
a(Vlong
p9905
g11
tp9906
aa(lp9907
g9906
a(Vline
p9908
g14
tp9909
aasI998
(lp9910
(lp9911
(Vmore
p9912
g1725
tp9913
a(Vincentive
p9914
g11
tp9915
aasI999
(lp9916
(lp9917
(Vthe
p9918
g51
tp9919
a(Vgreatest
p9920
g168
tp9921
aa(lp9922
g9921
a(Vgame
p9923
g14
tp9924
aa(lp9925
(Vever
p9926
g4
tp9927
a(Vplayed
p9928
g67
tp9929
aa(lp9930
(Vthe
p9931
g51
tp9932
a(Vfirst
p9933
g11
tp9934
aa(lp9935
g9934
a(Vweek
p9936
g14
tp9937
aa(lp9938
(Vkinda
p9939
g14
tp9940
a(Vslow
p9941
g11
tp9942
aa(lp9943
(g50
g51
tp9944
a(Vblast
p9945
g11
tp9946
aasI1000
(lp9947
(lp9948
(VMOST
p9949
g208
tp9950
a(VENJOYABLE
p9951
g11
tp9952
aa(lp9953
(Van
p9954
g51
tp9955
a(Vold
p9956
g11
tp9957
aa(lp9958
g9957
a(Vbar
p9959
g14
tp9960
aa(lp9961
(g50
g51
tp9962
a(Vlong
p9963
g11
tp9964
aa(lp9965
g9964
a(Vline
p9966
g14
tp9967
aasI1001
(lp9968
(lp9969
(Vmore
p9970
g1725
tp9971
a(Vincentive
p9972
g11
tp9973
aasI1002
(lp9974
(lp9975
(Vjust
p9976
g4
tp9977
a(Vput
p9978
g7
tp9979
aa(lp9980
(Vfeels
p9981
g312
tp9982
a(Vaccessible
p9983
g11
tp9984
aa(lp9985
(g50
g51
tp9986
a(Vnon-gamer
p9987
g11
tp9988
aa(lp9989
(Vthe
p9990
g51
tp9991
a(Vcontinuous
p9992
g11
tp9993
aasI1003
(lp9994
(lp9995
(Vtoo
p9996
g4
tp9997
a(Vfrustrating
p9998
g134
tp9999
aa(lp10000
(g50
g51
tp10001
a(Vfew
p10002
g11
tp10003
aa(lp10004
g10003
a(Vminutes
p10005
g47
tp10006
aa(lp10007
(g50
g51
tp10008
a(Vfew
p10009
g11
tp10010
aa(lp10011
g10010
a(Vhours
p10012
g47
tp10013
aasI1004
(lp10014
(lp10015
(Vis
p10016
g312
tp10017
a(Vharder
p10018
g552
tp10019
aasI1005
(lp10020
(lp10021
(g50
g51
tp10022
a(Vstupid
p10023
g11
tp10024
aa(lp10025
g10024
a(Vcomplaint
p10026
g14
tp10027
aa(lp10028
(Vlooks
p10029
g312
tp10030
a(Vlittle
p10031
g11
tp10032
aa(lp10033
g10032
a(Vbit
p10034
g14
tp10035
aa(lp10036
(Vmore
p10037
g552
tp10038
a(Vstylish
p10039
g11
tp10040
aa(lp10041
(Vvery
p10042
g4
tp10043
a(Vgood
p10044
g11
tp10045
aa(lp10046
g10045
a(Vgame
p10047
g14
tp10048
aa(lp10049
(g50
g51
tp10050
a(Vtutorial
p10051
g11
tp10052
aasI1006
(lp10053
(lp10054
(Vis
p10055
g312
tp10056
a(Veasy
p10057
g11
tp10058
aa(lp10059
(Vvery
p10060
g4
tp10061
a(Vaddictive
p10062
g11
tp10063
aa(lp10064
(Vnew
p10065
g11
tp10066
a(Vtracks
p10067
g47
tp10068
aa(lp10069
(Vquick
p10070
g11
tp10071
a(Vcash
p10072
g14
tp10073
aasI1007
(lp10074
(lp10075
(Vn't
p10076
g4
tp10077
a(Vfreeze
p10078
g7
tp10079
aa(lp10080
(Vstill
p10081
g4
tp10082
a(Ventertaining
p10083
g134
tp10084
aa(lp10085
(VToo
p10086
g4
tp10087
a(Vmany
p10088
g11
tp10089
aa(lp10090
g10089
a(Vgames
p10091
g47
tp10092
aa(lp10093
(Vmany
p10094
g11
tp10095
a(Vbugs
p10096
g47
tp10097
aa(lp10098
(g50
g51
tp10099
a(Vcrash
p10100
g11
tp10101
aa(lp10102
(Vis
p10103
g312
tp10104
a(Vbetter
p10105
g552
tp10106
aa(lp10107
(Vmore
p10108
g552
tp10109
a(Vvehicles
p10110
g47
tp10111
aasI1008
(lp10112
(lp10113
(Vthe
p10114
g51
tp10115
a(Vmusic
p10116
g11
tp10117
aasI1009
(lp10118
(lp10119
(Vvery
p10120
g4
tp10121
a(Vaddictive
p10122
g11
tp10123
aa(lp10124
(VThe
p10125
g51
tp10126
a(Vonly
p10127
g11
tp10128
aa(lp10129
g10128
a(Vthing
p10130
g14
tp10131
aa(lp10132
(Vthe
p10133
g51
tp10134
a(Vnew
p10135
g11
tp10136
aa(lp10137
g10136
a(Vmotorcycle
p10138
g14
tp10139
aasI1010
(lp10140
(lp10141
(VAddictive
p10142
g11
tp10143
a(Vfun
p10144
g14
tp10145
aa(lp10146
g10145
a(V..jump.flip.break
p10147
g11
tp10148
aa(lp10149
(Vthe
p10150
g51
tp10151
a(Vsame
p10152
g11
tp10153
aa(lp10154
g10153
a(Vlevel
p10155
g14
tp10156
aa(lp10157
(Vjust
p10158
g4
tp10159
a(Vtrying
p10160
g134
tp10161
aa(lp10162
(Vit..but
p10163
g11
tp10164
a(Vlooks
p10165
g47
tp10166
aasI1011
(lp10167
(lp10168
(Vvery
p10169
g4
tp10170
a(Vfun
p10171
g67
tp10172
aa(lp10173
(Vtechnical
p10174
g11
tp10175
a(Vdriving
p10176
g14
tp10177
aa(lp10178
(Voverly
p10179
g4
tp10180
a(Vdramatic
p10181
g11
tp10182
aasI1012
(lp10183
(lp10184
(Vcounter
p10185
g14
tp10186
a(Vproductive
p10187
g11
tp10188
aasI1013
(lp10189
(lp10190
(VReally
p10191
g4
tp10192
a(Vhelped
p10193
g162
tp10194
aasI1014
(lp10195
(lp10196
(Vpersonal
p10197
g11
tp10198
a(Vbest
p10199
g168
tp10200
aasI1015
(lp10201
(lp10202
(g50
g51
tp10203
a(Vgreat
p10204
g11
tp10205
aa(lp10206
g10205
a(Vway
p10207
g14
tp10208
aa(lp10209
(Vmore
p10210
g552
tp10211
a(Vthing
p10212
g14
tp10213
aa(lp10214
(Vpaint
p10215
g11
tp10216
a(Vjobs
p10217
g47
tp10218
aasI1016
(lp10219
(lp10220
(Vlite
p10221
g11
tp10222
a(Vblue
p10223
g11
tp10224
aa(lp10225
g10224
a(Vhard
p10226
g11
tp10227
aasI1017
(lp10228
(lp10229
(Vfirst
p10230
g4
tp10231
a(Vgot
p10232
g162
tp10233
aa(lp10234
(Vmonth
p10235
g14
tp10236
a(Vlater
p10237
g11
tp10238
aa(lp10239
g10238
a(Vwhick
p10240
g14
tp10241
aa(lp10242
(Vmore
p10243
g552
tp10244
a(Vmaps
p10245
g47
tp10246
aasI1018
(lp10247
(lp10248
(Vnot
p10249
g4
tp10250
a(Vtrying
p10251
g134
tp10252
aasI1019
(lp10253
(lp10254
(Veven
p10255
g4
tp10256
a(Vbetter
p10257
g552
tp10258
aa(lp10259
(Vmore
p10260
g552
tp10261
a(Vstages
p10262
g47
tp10263
aa(lp10264
(Vfree
p10265
g11
tp10266
a(Vthanks
p10267
g47
tp10268
aa(lp10269
(Vthe
p10270
g51
tp10271
a(Vbest
p10272
g168
tp10273
aasI1020
(lp10274
(lp10275
(Vwaster
p10276
g14
tp10277
a(Vcould.add
p10278
g11
tp10279
aa(lp10280
g10279
a(Vnas
p10281
g47
tp10282
aa(lp10283
g10282
a(Vother
p10284
g11
tp10285
aasI1021
(lp10286
(lp10287
(VExtremely
p10288
g4
tp10289
a(Vaddictive
p10290
g11
tp10291
aa(lp10292
g10291
a(Vgame
p10293
g14
tp10294
aa(lp10295
(Vother
p10296
g11
tp10297
a(Vposts
p10298
g47
tp10299
aa(lp10300
(g50
g51
tp10301
a(Vsimple
p10302
g11
tp10303
aa(lp10304
g10303
a(Vcolor
p10305
g14
tp10306
aa(lp10307
(Vdifferent
p10308
g11
tp10309
a(Vavatars
p10310
g47
tp10311
aa(lp10312
(Vhigh
p10313
g11
tp10314
a(Vscore
p10315
g14
tp10316
aa(lp10317
(Vn't
p10318
g4
tp10319
a(Vwait
p10320
g7
tp10321
aa(lp10322
(Vmore
p10323
g552
tp10324
a(Vgames
p10325
g47
tp10326
aa(lp10327
(Van
p10328
g51
tp10329
a(Vaddictive
p10330
g11
tp10331
aa(lp10332
g10331
a(Vgame
p10333
g14
tp10334
aa(lp10335
(Vvery
p10336
g4
tp10337
a(Vsimilar
p10338
g11
tp10339
aa(lp10340
(Vnot
p10341
g4
tp10342
a(Vbe
p10343
g7
tp10344
aa(lp10345
(Vmuch
p10346
g4
tp10347
a(Vdifferent
p10348
g11
tp10349
aa(lp10350
(g50
g51
tp10351
a(Vgreat
p10352
g11
tp10353
aa(lp10354
g10353
a(Vchallenge
p10355
g14
tp10356
aa(lp10357
(g50
g51
tp10358
a(Vglobal
p10359
g11
tp10360
aasI1022
(lp10361
(lp10362
(Vn't
p10363
g4
tp10364
a(Vstop
p10365
g7
tp10366
aa(lp10367
(Vown
p10368
g11
tp10369
a(Vcharacter
p10370
g14
tp10371
aa(lp10372
(Valso
p10373
g4
tp10374
a(Vbe
p10375
g7
tp10376
aa(lp10377
(Vis
p10378
g312
tp10379
a(Vhard
p10380
g11
tp10381
aa(lp10382
(Vn't
p10383
g4
tp10384
a(Vdowngrade
p10385
g7
tp10386
aa(lp10387
(Vfully
p10388
g4
tp10389
a(Vupgraded
p10390
g67
tp10391
aasI1023
(lp10392
(lp10393
(Vso
p10394
g4
tp10395
a(Vaddictive
p10396
g11
tp10397
aa(lp10398
(Vn't
p10399
g4
tp10400
a(Vstop
p10401
g7
tp10402
aa(lp10403
(Vperfectly
p10404
g4
tp10405
a(Vapplied
p10406
g67
tp10407
aa(lp10408
(VBest
p10409
g168
tp10410
a(Vgame
p10411
g14
tp10412
aasI1024
(lp10413
(lp10414
(Vaddictive
p10415
g11
tp10416
a(Vgame
p10417
g14
tp10418
aa(lp10419
(V's
p10420
g312
tp10421
a(Vtons-o-fun
p10422
g11
tp10423
aa(lp10424
(Vcage
p10425
g14
tp10426
a(Vavailable
p10427
g11
tp10428
aasI1025
(lp10429
(lp10430
(Vangry
p10431
g11
tp10432
a(Vbirds
p10433
g47
tp10434
aa(lp10435
(Vmuch
p10436
g4
tp10437
a(Vfun
p10438
g67
tp10439
aasI1026
(lp10440
(lp10441
(VNeeds
p10442
g47
tp10443
a(Vmore
p10444
g552
tp10445
aa(lp10446
g10445
a(Vcars
p10447
g47
tp10448
aa(lp10449
(Vso
p10450
g4
tp10451
a(Vplease
p10452
g7
tp10453
aa(lp10454
(Vso
p10455
g4
tp10456
a(Vplease
p10457
g7
tp10458
aasI1027
(lp10459
(lp10460
(VYep..at
p10461
g11
tp10462
a(Vleast
p10463
g14
tp10464
aa(lp10465
(Vrelatively
p10466
g4
tp10467
a(Veasy
p10468
g11
tp10469
aa(lp10470
g10469
a(V(
p10471
g14
tp10472
aa(lp10473
(Vtoo
p10474
g4
tp10475
a(Veasy
p10476
g11
tp10477
aa(lp10478
(Vhills/
p10479
g11
tp10480
a(Vrace
p10481
g14
tp10482
aa(lp10483
(Vcoins=power
p10484
g11
tp10485
a(Vups
p10486
g47
tp10487
aa(lp10488
(Vfast
p10489
g4
tp10490
a(g4095
g11
tp10491
aa(lp10492
g10491
a(Vflip
p10493
g14
tp10494
aa(lp10495
(Vthe
p10496
g51
tp10497
a(Vyrd-im
p10498
g11
tp10499
aasI1028
(lp10500
(lp10501
(Vthe
p10502
g51
tp10503
a(Vfirst
p10504
g11
tp10505
aa(lp10506
g10505
a(Vtime
p10507
g14
tp10508
aa(lp10509
(Vmore
p10510
g552
tp10511
a(Vvehicles
p10512
g47
tp10513
aa(lp10514
(g50
g51
tp10515
a(Vclassic
p10516
g11
tp10517
aa(lp10518
(Vprobably
p10519
g4
tp10520
a(Vlook
p10521
g7
tp10522
aasI1029
(lp10523
(lp10524
(V's
p10525
g312
tp10526
a(Vimpossible
p10527
g11
tp10528
aa(lp10529
(Vbigger
p10530
g552
tp10531
a(Vfuel
p10532
g14
tp10533
aasI1030
(lp10534
(lp10535
(Vthe
p10536
g51
tp10537
a(Vbest
p10538
g168
tp10539
aa(lp10540
g10539
a(Vgame
p10541
g14
tp10542
aa(lp10543
(Vis
p10544
g312
tp10545
a(Vbest
p10546
g168
tp10547
aasI1031
(lp10548
(lp10549
(Vmuch
p10550
g4
tp10551
a(Vmore
p10552
g552
tp10553
aa(lp10554
(Vthe
p10555
g51
tp10556
a(Vlast
p10557
g11
tp10558
aa(lp10559
g10558
a(Vlevel
p10560
g14
tp10561
aasI1032
(lp10562
(lp10563
(VThe
p10564
g51
tp10565
a(Vonly
p10566
g11
tp10567
aa(lp10568
g10567
a(Vthing
p10569
g14
tp10570
aa(lp10571
(Valways
p10572
g4
tp10573
a(Vcrash
p10574
g11
tp10575
aasI1033
(lp10576
(lp10577
(Vnew
p10578
g11
tp10579
a(Vheights
p10580
g47
tp10581
aa(lp10582
(Vmore
p10583
g552
tp10584
a(Vways
p10585
g47
tp10586
aa(lp10587
(Vthis
p10588
g51
tp10589
a(Vpower-driven
p10590
g11
tp10591
aa(lp10592
g10591
a(Vphysics
p10593
g14
tp10594
aa(lp10595
(Vright
p10596
g4
tp10597
a(Valongside
p10598
g7
tp10599
aasI1034
(lp10600
(lp10601
(Vnothing
p10602
g14
tp10603
a(Vspecial
p10604
g11
tp10605
aa(lp10606
(Vnever
p10607
g4
tp10608
a(Vuninstall
p10609
g7
tp10610
aasI1035
(lp10611
(lp10612
(VRealy
p10613
g4
tp10614
a(Vloved
p10615
g162
tp10616
aa(lp10617
(Vreally
p10618
g4
tp10619
a(Vaddicted
p10620
g67
tp10621
aa(lp10622
(Vfree
p10623
g11
tp10624
a(Vgame
p10625
g14
tp10626
aasI1036
(lp10627
(lp10628
(Van
p10629
g51
tp10630
a(Vin-game
p10631
g11
tp10632
aa(lp10633
g10632
a(Vshop
p10634
g14
tp10635
aa(lp10636
(g50
g51
tp10637
a(Vlarge
p10638
g11
tp10639
aa(lp10640
g10639
a(Vfuel
p10641
g14
tp10642
aa(lp10643
(Vfully
p10644
g4
tp10645
a(Vdone
p10646
g67
tp10647
aa(lp10648
(Vmore
p10649
g1725
tp10650
a(Vfuel
p10651
g11
tp10652
aa(lp10653
g10652
a(Vspace
p10654
g14
tp10655
aasI1037
(lp10656
sI1038
(lp10657
(lp10658
(Vso
p10659
g4
tp10660
a(Vaddictive
p10661
g11
tp10662
aa(lp10663
(Vnew
p10664
g11
tp10665
a(Vstages
p10666
g47
tp10667
aa(lp10668
(Vn't
p10669
g4
tp10670
a(Vstop
p10671
g7
tp10672
aa(lp10673
(Vn't
p10674
g4
tp10675
a(Vsay
p10676
g7
tp10677
aa(lp10678
(Vanything
p10679
g14
tp10680
a(Vnegative
p10681
g11
tp10682
aasI1039
(lp10683
(lp10684
(Vmuch
p10685
g4
tp10686
a(Vtorque
p10687
g11
tp10688
aa(lp10689
(Vhills
p10690
g47
tp10691
a(Veasier
p10692
g552
tp10693
aa(lp10694
(g50
g51
tp10695
a(Vgood
p10696
g11
tp10697
aa(lp10698
g10697
a(Vgame
p10699
g14
tp10700
aa(lp10701
(Vn't
p10702
g4
tp10703
a(Vbullshit
p10704
g7
tp10705
aasI1040
(lp10706
(lp10707
(Vreally
p10708
g4
tp10709
a(Vfun
p10710
g67
tp10711
aa(lp10712
(Valways
p10713
g4
tp10714
a(Vflip
p10715
g7
tp10716
aasI1041
(lp10717
(lp10718
(Vn't
p10719
g4
tp10720
a(Vput
p10721
g7
tp10722
aa(lp10723
(Vvery
p10724
g4
tp10725
a(Vgood
p10726
g11
tp10727
aa(lp10728
g10727
a(Vgame
p10729
g14
tp10730
aasI1042
(lp10731
(lp10732
(Vfirst
p10733
g4
tp10734
a(Vdownloaded
p10735
g162
tp10736
aa(lp10737
(Vthe
p10738
g51
tp10739
a(Vsame
p10740
g11
tp10741
aa(lp10742
g10741
a(Vcontrols
p10743
g47
tp10744
aa(lp10745
(Vthe
p10746
g51
tp10747
a(Vfamous
p10748
g11
tp10749
aa(lp10750
g10749
a(Vmultiplayer
p10751
g14
tp10752
aa(lp10753
(Vthe
p10754
g51
tp10755
a(Veasy
p10756
g11
tp10757
aa(lp10758
g10757
a(Vpart
p10759
g14
tp10760
aa(lp10761
(Vactually
p10762
g4
tp10763
a(Vstarted
p10764
g162
tp10765
aa(lp10766
(Vquite
p10767
g4
tp10768
a(Vtough
p10769
g11
tp10770
aa(lp10771
(Vnot
p10772
g4
tp10773
a(Vappeal
p10774
g7
tp10775
aasI1043
(lp10776
(lp10777
(Vdifferent
p10778
g11
tp10779
a(Vvehicles
p10780
g47
tp10781
aasI1044
(lp10782
(lp10783
(Vis
p10784
g312
tp10785
a(Vreal
p10786
g11
tp10787
aa(lp10788
g10787
a(Vsmooth
p10789
g14
tp10790
aa(lp10791
(g3029
g51
tp10792
a(Vgreat
p10793
g11
tp10794
aa(lp10795
g10794
a(Vtime
p10796
g14
tp10797
aa(lp10798
(Vis
p10799
g312
tp10800
a(Veasy
p10801
g11
tp10802
aasI1045
(lp10803
(lp10804
(Vvery
p10805
g4
tp10806
a(Vaddicting
p10807
g134
tp10808
aasI1046
(lp10809
(lp10810
(Vis
p10811
g312
tp10812
a(Vsimilar
p10813
g11
tp10814
aa(lp10815
(Voffers
p10816
g312
tp10817
a(Vmany
p10818
g11
tp10819
aa(lp10820
g10819
a(Vrewards
p10821
g47
tp10822
aasI1047
(lp10823
sI1048
(lp10824
(lp10825
(VNot
p10826
g4
tp10827
a(Vmany
p10828
g11
tp10829
aa(lp10830
(Vactually
p10831
g4
tp10832
a(Vplay
p10833
g7
tp10834
aa(lp10835
(Vnew
p10836
g11
tp10837
a(Vareas
p10838
g47
tp10839
aa(lp10840
(Valot
p10841
g14
tp10842
a(Vmore
p10843
g552
tp10844
aa(lp10845
(Vthe
p10846
g51
tp10847
a(Vlongest
p10848
g168
tp10849
aa(lp10850
g10849
a(Vgame
p10851
g14
tp10852
aa(lp10853
(Veven
p10854
g4
tp10855
a(Vhad
p10856
g162
tp10857
aa(lp10858
(Vother
p10859
g11
tp10860
a(Vgames
p10861
g47
tp10862
aa(lp10863
(VNOT
p10864
g4
tp10865
a(Vbe
p10866
g7
tp10867
aasI1049
(lp10868
(lp10869
(Vgood
p10870
g11
tp10871
a(Vtime-waster
p10872
g14
tp10873
aasI1050
(lp10874
(lp10875
(Vn't
p10876
g4
tp10877
a(Vhave
p10878
g7
tp10879
aa(lp10880
(Vhas
p10881
g312
tp10882
a(Vcool
p10883
g11
tp10884
aa(lp10885
g10884
a(Vlevels
p10886
g47
tp10887
aa(lp10888
(Vmonster
p10889
g14
tp10890
a(Vtruck.Download
p10891
g11
tp10892
aa(lp10893
(Vn't
p10894
g4
tp10895
a(Vregret
p10896
g7
tp10897
aasI1051
(lp10898
(lp10899
(Vis
p10900
g312
tp10901
a(Vbrilliant
p10902
g11
tp10903
aa(lp10904
(Vyet
p10905
g4
tp10906
a(Vchallenging
p10907
g134
tp10908
aa(lp10909
(g50
g51
tp10910
a(Vfew
p10911
g11
tp10912
aa(lp10913
g10912
a(Vthings
p10914
g47
tp10915
aa(lp10916
(Vown
p10917
g11
tp10918
a(Vrecord
p10919
g14
tp10920
aa(lp10921
(Vincrementally
p10922
g4
tp10923
a(Vmetered
p10924
g67
tp10925
aa(lp10926
(g50
g51
tp10927
a(Vfull
p10928
g11
tp10929
aa(lp10930
(Vcomplete
p10931
g11
tp10932
a(Vstop
p10933
g14
tp10934
aa(lp10935
(Vthe
p10936
g51
tp10937
a(Vnext
p10938
g11
tp10939
aa(lp10940
g10939
a(Vscreen
p10941
g14
tp10942
aasI1052
(lp10943
(lp10944
(Vthe
p10945
g51
tp10946
a(Vtop
p10947
g11
tp10948
aa(lp10949
g10948
a(Vcharts
p10950
g47
tp10951
aa(lp10952
(Vreally
p10953
g4
tp10954
a(Vcool
p10955
g11
tp10956
aa(lp10957
(Vwell
p10958
g4
tp10959
a(Vdeserved
p10960
g67
tp10961
aasI1053
(lp10962
(lp10963
(Vthe
p10964
g51
tp10965
a(Vsame
p10966
g11
tp10967
aa(lp10968
g10967
a(Vpoint
p10969
g14
tp10970
aasI1054
(lp10971
(lp10972
(Vjust
p10973
g4
tp10974
a(Vwish
p10975
g11
tp10976
aa(lp10977
(Vn't
p10978
g4
tp10979
a(Vend
p10980
g7
tp10981
aa(lp10982
(Vn't
p10983
g4
tp10984
a(Vtell
p10985
g7
tp10986
aa(lp10987
(Vmany
p10988
g11
tp10989
a(Vtimes
p10990
g47
tp10991
aasI1055
(lp10992
(lp10993
(Vle
p10994
g11
tp10995
a(Vguste
p10996
g14
tp10997
aasI1056
(lp10998
(lp10999
(Vreally
p11000
g4
tp11001
a(Vaddicting
p11002
g134
tp11003
aa(lp11004
(Vpretty
p11005
g4
tp11006
a(Vrealistic
p11007
g11
tp11008
aa(lp11009
(Vis
p11010
g312
tp11011
a(Vslippery
p11012
g11
tp11013
aasI1057
(lp11014
sI1058
(lp11015
(lp11016
(Vn't
p11017
g4
tp11018
a(Vstop
p11019
g7
tp11020
aa(lp11021
(Vn't
p11022
g4
tp11023
a(Vregret
p11024
g7
tp11025
aasI1059
(lp11026
sI1060
(lp11027
(lp11028
(VThe
p11029
g51
tp11030
a(Vbest
p11031
g168
tp11032
aa(lp11033
(Vmost
p11034
g168
tp11035
a(Vaddictive
p11036
g11
tp11037
aa(lp11038
g11037
a(Vgame
p11039
g14
tp11040
aa(lp11041
(g50
g51
tp11042
a(Vlong
p11043
g11
tp11044
aa(lp11045
g11044
a(Vtime
p11046
g14
tp11047
aa(lp11048
(Vn't
p11049
g4
tp11050
a(Vwait
p11051
g7
tp11052
aa(lp11053
(VJust
p11054
g4
tp11055
a(Vwondering
p11056
g134
tp11057
aa(lp11058
(Vdifferent
p11059
g11
tp11060
a(Vbackground
p11061
g14
tp11062
aasI1061
(lp11063
sI1062
(lp11064
(lp11065
(g50
g51
tp11066
a(Vgreat
p11067
g11
tp11068
aa(lp11069
g11068
a(Vgame
p11070
g14
tp11071
aa(lp11072
(Vcant
p11073
g11
tp11074
a(Vstop
p11075
g14
tp11076
aasI1063
(lp11077
sI1064
(lp11078
(lp11079
(Vgreat
p11080
g11
tp11081
a(Vgame
p11082
g14
tp11083
aa(lp11084
(Vcave
p11085
g11
tp11086
a(Vlevels
p11087
g47
tp11088
aasI1065
(lp11089
sI1066
(lp11090
(lp11091
(Vnot
p11092
g4
tp11093
a(Vexcellent
p11094
g11
tp11095
aa(lp11096
(Vgood
p11097
g11
tp11098
a(Vall
p11099
g14
tp11100
aasI1067
(lp11101
(lp11102
(Vplay
p11103
g11
tp11104
a(Vfirst
p11105
g11
tp11106
aa(lp11107
g11106
a(Vversion
p11108
g14
tp11109
aa(lp11110
(VMore
p11111
g552
tp11112
a(Vstages
p11113
g47
tp11114
aa(lp11115
(Vmore
p11116
g552
tp11117
a(Vvehicles
p11118
g47
tp11119
aa(lp11120
(Vbad
p11121
g11
tp11122
a(Veng
p11123
g14
tp11124
aasI1068
(lp11125
(lp11126
(Vn't
p11127
g4
tp11128
a(Vget
p11129
g7
tp11130
aa(lp11131
(VIts
p11132
g47
tp11133
a(Vgreat
p11134
g11
tp11135
aasI1069
(lp11136
(lp11137
(Vbirds
p11138
g47
tp11139
a(Vanimal
p11140
g11
tp11141
aa(lp11142
g11141
a(Vefecs
p11143
g47
tp11144
aasI1070
(lp11145
(lp11146
(Vtoo
p11147
g4
tp11148
a(Vmuch
p11149
g11
tp11150
aa(lp11151
g11150
a(Vfun
p11152
g14
tp11153
aa(lp11154
(g3029
g51
tp11155
a(Vfew
p11156
g11
tp11157
aa(lp11158
(Vmore
p11159
g1725
tp11160
a(Vrealistic
p11161
g11
tp11162
aa(lp11163
g11162
a(Vsounds
p11164
g47
tp11165
aa(lp11166
(Vfully
p11167
g4
tp11168
a(Vmodified
p11169
g67
tp11170
aa(lp11171
(Vn't
p11172
g4
tp11173
a(Vsound
p11174
g7
tp11175
aasI1071
(lp11176
sI1072
(lp11177
(lp11178
(Vvery
p11179
g4
tp11180
a(Vannoying
p11181
g134
tp11182
aa(lp11183
(Vvery
p11184
g4
tp11185
a(Vangry
p11186
g11
tp11187
aa(lp11188
g11187
a(Vvhen
p11189
g47
tp11190
aasI1073
(lp11191
(lp11192
(VNeeds
p11193
g47
tp11194
a(Vnew
p11195
g11
tp11196
aa(lp11197
g11196
a(Vvehicles
p11198
g47
tp11199
aa(lp11200
(Vdirtbikes
p11201
g47
tp11202
a(Vgood
p11203
g11
tp11204
aasI1074
(lp11205
(lp11206
(Vthe
p11207
g51
tp11208
a(Vfastest
p11209
g168
tp11210
aa(lp11211
g11210
a(Vgame
p11212
g14
tp11213
aa(lp11214
(g50
g51
tp11215
a(Vlong
p11216
g11
tp11217
aa(lp11218
g11217
a(Vtime
p11219
g14
tp11220
aasI1075
(lp11221
(lp11222
(g50
g51
tp11223
a(Vgreat
p11224
g11
tp11225
aa(lp11226
g11225
a(Vgame
p11227
g14
tp11228
aa(lp11229
(g50
g51
tp11230
a(Vnew
p11231
g11
tp11232
aa(lp11233
g11232
a(Vcareer
p11234
g14
tp11235
aasI1076
(lp11236
(lp11237
(Vmore
p11238
g1725
tp11239
a(Vbetter
p11240
g552
tp11241
aa(lp11242
(Vmore
p11243
g552
tp11244
a(Vvehicles
p11245
g47
tp11246
aa(lp11247
(Vis
p11248
g312
tp11249
a(Vworse
p11250
g552
tp11251
aa(lp11252
(Vanyways
p11253
g47
tp11254
a(Vgood
p11255
g11
tp11256
aasI1077
(lp11257
(lp11258
(g50
g51
tp11259
a(Vgreat
p11260
g11
tp11261
aa(lp11262
g11261
a(Vgame
p11263
g14
tp11264
aa(lp11265
(VBest
p11266
g168
tp11267
a(Vgame
p11268
g14
tp11269
aa(lp11270
(Vever
p11271
g4
tp11272
a(Vplayed
p11273
g67
tp11274
aasI1078
(lp11275
(lp11276
(Vgreat
p11277
g11
tp11278
a(Vfun
p11279
g14
tp11280
aa(lp11281
(Vthe
p11282
g51
tp11283
a(Vsame
p11284
g11
tp11285
aa(lp11286
g11285
a(Vtime
p11287
g14
tp11288
aasI1079
(lp11289
sI1080
(lp11290
sI1081
(lp11291
(lp11292
(Vreally
p11293
g4
tp11294
a(Venjoyable
p11295
g11
tp11296
aa(lp11297
g11296
a(Vgame
p11298
g14
tp11299
aa(lp11300
(g50
g51
tp11301
a(Vfew
p11302
g11
tp11303
aa(lp11304
g11303
a(Vtimes
p11305
g47
tp11306
aasI1082
(lp11307
(lp11308
(Vyear
p11309
g14
tp11310
a(Vold
p11311
g11
tp11312
aa(lp11313
g11312
a(Vson
p11314
g14
tp11315
aa(lp11316
(g50
g51
tp11317
a(Vgood
p11318
g11
tp11319
aa(lp11320
g11319
a(Vgame
p11321
g14
tp11322
aasI1083
(lp11323
(lp11324
(Vguys
p11325
g312
tp11326
a(Vadd
p11327
g11
tp11328
aa(lp11329
(Vmore
p11330
g552
tp11331
a(Vair
p11332
g11
tp11333
aa(lp11334
g11333
a(Vtime
p11335
g14
tp11336
aa(lp11337
(VN'T
p11338
g4
tp11339
a(Vlose
p11340
g7
tp11341
aa(lp11342
(Vnot
p11343
g4
tp11344
a(Vmoving
p11345
g134
tp11346
aa(lp11347
(Vjust
p11348
g4
tp11349
a(Vhaving
p11350
g134
tp11351
aasI1084
(lp11352
(lp11353
(Vgood
p11354
g11
tp11355
a(Vfun
p11356
g14
tp11357
aa(lp11358
(VHopefully
p11359
g4
tp11360
a(Vmore
p11361
g552
tp11362
aa(lp11363
g11362
a(Vvehicles/upgrades
p11364
g47
tp11365
aa(lp11366
(Voverall
p11367
g11
tp11368
a(Vgreat
p11369
g11
tp11370
aa(lp11371
g11370
a(Vgame
p11372
g14
tp11373
aasI1085
(lp11374
(lp11375
(Vnot
p11376
g4
tp11377
a(Vbusy
p11378
g11
tp11379
aa(lp11380
g11379
a(Vyea
p11381
g14
tp11382
aa(lp11383
(Vnot
p11384
g4
tp11385
a(Vbusy
p11386
g11
tp11387
aa(lp11388
(Veven
p11389
g4
tp11390
a(Vput
p11391
g67
tp11392
aasI1086
(lp11393
(lp11394
(Vdifficult
p11395
g11
tp11396
a(Venough
p11397
g11
tp11398
aa(lp11399
(Vwell
p11400
g4
tp11401
a(Vplaced
p11402
g67
tp11403
aa(lp11404
(Vn't
p11405
g4
tp11406
a(Vget
p11407
g7
tp11408
aa(lp11409
(g50
g51
tp11410
a(Vbig
p11411
g11
tp11412
aa(lp11413
g11412
a(Vplus
p11414
g14
tp11415
aa(lp11416
(V's
p11417
g312
tp11418
a(Vgood
p11419
g11
tp11420
aa(lp11421
(Vactually
p11422
g4
tp11423
a(Vsit
p11424
g7
tp11425
aasI1087
(lp11426
sI1088
(lp11427
(lp11428
(Vmuch
p11429
g4
tp11430
a(Vfun
p11431
g67
tp11432
aa(lp11433
(Vn't
p11434
g4
tp11435
a(Vstop
p11436
g7
tp11437
aa(lp11438
(Vn't
p11439
g4
tp11440
a(Vtake
p11441
g7
tp11442
aa(lp11443
(Vmuch
p11444
g11
tp11445
a(Vspace
p11446
g14
tp11447
aasI1089
(lp11448
(lp11449
(Vstrategic
p11450
g11
tp11451
a(Vtimes
p11452
g47
tp11453
aasI1090
(lp11454
(lp11455
(Vlong
p11456
g4
tp11457
a(Vhad
p11458
g162
tp11459
aa(lp11460
(Vnumerous
p11461
g11
tp11462
a(Vhours
p11463
g47
tp11464
aa(lp11465
(Vreally
p11466
g4
tp11467
a(Vaddictive
p11468
g11
tp11469
aa(lp11470
(Vwell
p11471
g4
tp11472
a(Vdone
p11473
g67
tp11474
aasI1091
(lp11475
(lp11476
(Vthe
p11477
g51
tp11478
a(Vlast
p11479
g11
tp11480
aa(lp11481
g11480
a(Vweek
p11482
g14
tp11483
aa(lp11484
(Vvery
p11485
g4
tp11486
a(Vaddicting
p11487
g134
tp11488
aa(lp11489
(VNo
p11490
g51
tp11491
a(Vout-of-game
p11492
g11
tp11493
aa(lp11494
g11493
a(Vpurchases
p11495
g47
tp11496
aa(lp11497
(Vnot
p11498
g4
tp11499
a(Vimpossible
p11500
g11
tp11501
aa(lp11502
(Vincredibly
p11503
g4
tp11504
a(Veasy
p11505
g11
tp11506
aa(lp11507
g11506
a(Veither
p11508
g14
tp11509
aa(lp11510
(VThe
p11511
g51
tp11512
a(Vlast
p11513
g11
tp11514
aa(lp11515
g11514
a(Vthing
p11516
g14
tp11517
aa(lp11518
(Vvery
p11519
g4
tp11520
a(Vlight
p11521
g11
tp11522
aa(lp11523
(Vwheras
p11524
g47
tp11525
a(Vother
p11526
g11
tp11527
aa(lp11528
g11527
a(Vapps
p11529
g47
tp11530
aa(lp11531
(Vimpressive
p11532
g11
tp11533
a(Vgraphics
p11534
g47
tp11535
aasI1092
(lp11536
(lp11537
(Vgolden
p11538
g11
tp11539
a(Vrims
p11540
g47
tp11541
aasI1093
(lp11542
(lp11543
(Vthe
p11544
g51
tp11545
a(Vbest
p11546
g168
tp11547
aa(lp11548
g11547
a(Vgames
p11549
g47
tp11550
aa(lp11551
g11550
a(Vavailable
p11552
g11
tp11553
aa(lp11554
(Vneeds
p11555
g312
tp11556
a(Vmore
p11557
g552
tp11558
aa(lp11559
g11558
a(Vthings
p11560
g47
tp11561
aa(lp11562
(Vmore
p11563
g552
tp11564
a(Vtracks
p11565
g47
tp11566
aa(lp11567
(Vsome
p11568
g51
tp11569
a(Vunique
p11570
g11
tp11571
aa(lp11572
g11571
a(Vvehicles
p11573
g47
tp11574
aasI1094
(lp11575
sI1095
(lp11576
(lp11577
(Vmore
p11578
g552
tp11579
a(Vupdates
p11580
g47
tp11581
aa(lp11582
(Vmore
p11583
g552
tp11584
a(Vstuff
p11585
g14
tp11586
aasI1096
(lp11587
(lp11588
(Vn't
p11589
g4
tp11590
a(Vmake
p11591
g7
tp11592
aasI1097
(lp11593
(lp11594
(Vneeds
p11595
g312
tp11596
a(Vmore
p11597
g552
tp11598
aa(lp11599
g11598
a(Vcustomization
p11600
g14
tp11601
aa(lp11602
(VFully
p11603
g4
tp11604
a(Vupgraded
p11605
g162
tp11606
aa(lp11607
(VThen
p11608
g4
tp11609
a(Vunlocked
p11610
g162
tp11611
aa(lp11612
(VThen
p11613
g4
tp11614
a(Vgot
p11615
g162
tp11616
aasI1098
(lp11617
(lp11618
(Vreally
p11619
g4
tp11620
a(Vboring
p11621
g134
tp11622
aasI1099
(lp11623
(lp11624
(Vn't
p11625
g4
tp11626
a(Vexplored
p11627
g67
tp11628
aa(lp11629
(Vwell
p11630
g4
tp11631
a(Vdesigned
p11632
g67
tp11633
aa(lp11634
(Vreally
p11635
g4
tp11636
a(Vexcellent
p11637
g11
tp11638
aa(lp11639
g11638
a(Vfeel
p11640
g14
tp11641
aasI1100
(lp11642
(lp11643
(Vis
p11644
g312
tp11645
a(Vgreat
p11646
g11
tp11647
aa(lp11648
(Vn't
p11649
g4
tp11650
a(Vstopped
p11651
g67
tp11652
aa(lp11653
(Vthe
p11654
g51
tp11655
a(Vsecond
p11656
g11
tp11657
aa(lp11658
g11657
a(Vmap
p11659
g14
tp11660
aasI1101
(lp11661
(lp11662
(Vvery
p11663
g4
tp11664
a(Vlong
p11665
g11
tp11666
aasI1102
(lp11667
(lp11668
(Vmore
p11669
g552
tp11670
a(Vupgrades
p11671
g47
tp11672
aasI1103
(lp11673
(lp11674
(Vn't
p11675
g4
tp11676
a(Vstop
p11677
g7
tp11678
aasI1104
(lp11679
(lp11680
(Vtotally
p11681
g4
tp11682
a(Vaddictive
p11683
g11
tp11684
aa(lp11685
(Vn't
p11686
g4
tp11687
a(Vwork
p11688
g7
tp11689
aa(lp11690
(Vis
p11691
g312
tp11692
a(Vstationary
p11693
g11
tp11694
aasI1105
(lp11695
(lp11696
(g50
g51
tp11697
a(Vgreat
p11698
g11
tp11699
aa(lp11700
(Vjust
p11701
g4
tp11702
a(Vwent
p11703
g162
tp11704
aa(lp11705
(Vnot
p11706
g4
tp11707
a(Vopen
p11708
g7
tp11709
aasI1106
(lp11710
(lp11711
(Vmany
p11712
g11
tp11713
a(Vgames
p11714
g47
tp11715
aa(lp11716
(Vneeds
p11717
g312
tp11718
a(Vmore
p11719
g552
tp11720
aa(lp11721
g11720
a(Vcar
p11722
g14
tp11723
aasI1107
(lp11724
(lp11725
(g50
g51
tp11726
a(Vsocial
p11727
g11
tp11728
aa(lp11729
g11728
a(Vmisfit
p11730
g14
tp11731
aasI1108
(lp11732
(lp11733
(Vn't
p11734
g4
tp11735
a(Vwork
p11736
g7
tp11737
aa(lp11738
(Vis
p11739
g312
tp11740
a(Vreverse
p11741
g11
tp11742
aa(lp11743
(Vnot
p11744
g4
tp11745
a(Vgood
p11746
g11
tp11747
aa(lp11748
g11747
a(Veither
p11749
g14
tp11750
aa(lp11751
(Vnot
p11752
g4
tp11753
a(Vtime
p11754
g7
tp11755
aa(lp11756
(Vmore
p11757
g552
tp11758
a(Vtracks
p11759
g47
tp11760
aa(lp11761
(VThe
p11762
g51
tp11763
a(Vonly
p11764
g11
tp11765
aa(lp11766
g11765
a(Vthing
p11767
g14
tp11768
aasI1109
(lp11769
(lp11770
(Vless
p11771
g552
tp11772
a(Vexpensive
p11773
g11
tp11774
aasI1110
(lp11775
sI1111
(lp11776
(lp11777
(Vpretty
p11778
g4
tp11779
a(Vcheap
p11780
g7
tp11781
aa(lp11782
(Vvery
p11783
g4
tp11784
a(Vfun
p11785
g67
tp11786
aasI1112
(lp11787
(lp11788
(Vcurrently
p11789
g4
tp11790
a(Vsaved
p11791
g67
tp11792
aa(lp11793
(Vnew
p11794
g11
tp11795
a(Vcars
p11796
g47
tp11797
aa(lp11798
(Vpossibly
p11799
g4
tp11800
a(Vadd
p11801
g11
tp11802
aa(lp11803
g11802
a(Vaddons
p11804
g47
tp11805
aa(lp11806
(Vbigger
p11807
g552
tp11808
a(Vwheels
p11809
g47
tp11810
aa(lp11811
(Vposaibly
p11812
g4
tp11813
a(Vadd
p11814
g11
tp11815
aa(lp11816
g11815
a(Vcountries
p11817
g47
tp11818
aa(lp11819
(Vmore
p11820
g552
tp11821
a(Vterrains
p11822
g47
tp11823
aasI1113
(lp11824
(lp11825
(Vjust
p11826
g4
tp11827
a(Ventertaining
p11828
g134
tp11829
aa(lp11830
(g50
g51
tp11831
a(Vgreat
p11832
g11
tp11833
aa(lp11834
g11833
a(Vway
p11835
g14
tp11836
aasI1114
(lp11837
(lp11838
(Vgreat
p11839
g11
tp11840
a(Vgame
p11841
g14
tp11842
aa(lp11843
(Veven
p11844
g4
tp11845
a(Vgot
p11846
g162
tp11847
aasI1115
(lp11848
(lp11849
(Vwell
p11850
g4
tp11851
a(Vdeveloped
p11852
g67
tp11853
aasI1116
(lp11854
sI1117
(lp11855
(lp11856
(Vever
p11857
g4
tp11858
a(Vseen
p11859
g67
tp11860
aasI1118
(lp11861
(lp11862
(Vmaybe
p11863
g4
tp11864
a(Vfifteen
p11865
g67
tp11866
aa(lp11867
(Vn't
p11868
g4
tp11869
a(Vanalog
p11870
g11
tp11871
aa(lp11872
(Vnot
p11873
g4
tp11874
a(Vfun
p11875
g7
tp11876
aa(lp11877
(g50
g51
tp11878
a(Vbetter
p11879
g552
tp11880
aa(lp11881
g11880
a(Vbalance
p11882
g14
tp11883
aa(lp11884
(Vnoticeable
p11885
g11
tp11886
a(Vdifferences
p11887
g47
tp11888
aa(lp11889
(g50
g51
tp11890
a(Vgreat
p11891
g11
tp11892
aa(lp11893
g11892
a(Vtime
p11894
g14
tp11895
aasI1119
(lp11896
sI1120
(lp11897
sI1121
(lp11898
sI1122
(lp11899
(lp11900
(Vn't
p11901
g4
tp11902
a(Vdownload
p11903
g7
tp11904
aa(lp11905
(VMost
p11906
g168
tp11907
a(Vgames
p11908
g47
tp11909
aasI1123
(lp11910
sI1124
(lp11911
(lp11912
(Vis
p11913
g312
tp11914
a(Vsimple
p11915
g11
tp11916
aa(lp11917
(Vmaybe
p11918
g4
tp11919
a(Vadd
p11920
g11
tp11921
aasI1125
(lp11922
(lp11923
(Vmuch
p11924
g4
tp11925
a(Vtime
p11926
g7
tp11927
aasI1126
(lp11928
(lp11929
(Vnot
p11930
g4
tp11931
a(Vexplain
p11932
g7
tp11933
aasI1127
(lp11934
(lp11935
(Vn't
p11936
g4
tp11937
a(Vstop
p11938
g7
tp11939
aasI1128
(lp11940
(lp11941
(Vn't
p11942
g4
tp11943
a(Vput
p11944
g7
tp11945
aa(lp11946
(V.my
p11947
g11
tp11948
a(Vkids
p11949
g47
tp11950
aa(lp11951
(V.my
p11952
g11
tp11953
a(Vfriends
p11954
g47
tp11955
aa(lp11956
(V..my
p11957
g11
tp11958
a(Vdog
p11959
g14
tp11960
aa(lp11961
(Vn't
p11962
g4
tp11963
a(Vlove
p11964
g7
tp11965
aa(lp11966
(Vthe
p11967
g51
tp11968
a(Vnext
p11969
g11
tp11970
aa(lp11971
g11970
a(Vupdste
p11972
g14
tp11973
aasI1129
(lp11974
sI1130
(lp11975
(lp11976
(g50
g51
tp11977
a(Vsimple
p11978
g11
tp11979
aa(lp11980
(Vtricky
p11981
g11
tp11982
a(Vgame
p11983
g14
tp11984
aa(lp11985
(Vany
p11986
g51
tp11987
a(Vbetter
p11988
g552
tp11989
aasI1131
(lp11990
sI1132
(lp11991
(lp11992
(Vlittle
p11993
g11
tp11994
a(Vgame
p11995
g14
tp11996
aa(lp11997
(Vreal
p11998
g11
tp11999
a(Vmoney
p12000
g14
tp12001
aa(lp12002
(VHighly
p12003
g4
tp12004
a(Vrecommended
p12005
g162
tp12006
aasI1133
(lp12007
sI1134
(lp12008
(lp12009
(g50
g51
tp12010
a(Vsimple
p12011
g11
tp12012
aa(lp12013
g12012
a(Vconcept
p12014
g14
tp12015
aa(lp12016
(Vmore
p12017
g552
tp12018
a(Vvehicles
p12019
g47
tp12020
aa(lp12021
g12020
a(Vand/or
p12022
g11
tp12023
aa(lp12024
g12023
a(Vmaps
p12025
g47
tp12026
aasI1135
(lp12027
(lp12028
(Vthe
p12029
g51
tp12030
a(Veasiest
p12031
g168
tp12032
aa(lp12033
(Vthe
p12034
g51
tp12035
a(Vbest
p12036
g168
tp12037
aa(lp12038
g12037
a(Vdue
p12039
g11
tp12040
aa(lp12041
(Vreally
p12042
g4
tp12043
a(Vgood
p12044
g11
tp12045
aasI1136
(lp12046
(lp12047
(Vmore
p12048
g1725
tp12049
a(Vupgrade
p12050
g11
tp12051
aa(lp12052
(Vever
p12053
g4
tp12054
a(Vseen
p12055
g67
tp12056
aasI1137
(lp12057
(lp12058
(Vthe
p12059
g51
tp12060
a(Vslow
p12061
g11
tp12062
aa(lp12063
g12062
a(Vupdates
p12064
g47
tp12065
aa(lp12066
(Vstill
p12067
g4
tp12068
a(Vleft
p12069
g67
tp12070
aa(lp12071
(Vmore
p12072
g552
tp12073
a(Vupdates
p12074
g47
tp12075
aasI1138
(lp12076
(lp12077
(Vis
p12078
g312
tp12079
a(Vsuper
p12080
g552
tp12081
aa(lp12082
g12081
a(Vfun
p12083
g14
tp12084
aasI1139
(lp12085
(lp12086
(Vmore
p12087
g552
tp12088
a(Vupdates
p12089
g47
tp12090
aasI1140
(lp12091
(lp12092
(VConstantly
p12093
g4
tp12094
a(Vbeing
p12095
g134
tp12096
aa(lp12097
(VThe
p12098
g51
tp12099
a(Vbest
p12100
g168
tp12101
aa(lp12102
g12101
a(Vhill
p12103
g14
tp12104
aa(lp12105
(Vgame
p12106
g14
tp12107
a(Vavailable
p12108
g11
tp12109
aa(lp12110
(Vmost
p12111
g208
tp12112
a(Vinnovative
p12113
g11
tp12114
aa(lp12115
(Vthen
p12116
g4
tp12117
a(Vbrake
p12118
g7
tp12119
aa(lp12120
(Vthe
p12121
g51
tp12122
a(Vonly
p12123
g11
tp12124
aasI1141
(lp12125
(lp12126
(Vjust
p12127
g4
tp12128
a(Vhuge
p12129
g11
tp12130
aa(lp12131
g12130
a(Vjumps
p12132
g47
tp12133
aasI1142
(lp12134
(lp12135
(VIncredible
p12136
g11
tp12137
a(Vfun
p12138
g14
tp12139
aa(lp12140
(VThe
p12141
g51
tp12142
a(Vonly
p12143
g11
tp12144
aa(lp12145
g12144
a(Vproblem
p12146
g14
tp12147
aa(lp12148
(g50
g51
tp12149
a(Vmusic/SFX
p12150
g11
tp12151
aa(lp12152
g12151
a(Vtoggle
p12153
g14
tp12154
aasI1143
(lp12155
(lp12156
(Veasy
p12157
g11
tp12158
a(Vcoins
p12159
g47
tp12160
aa(lp12161
(Vtoo
p12162
g4
tp12163
a(Vexpensive
p12164
g11
tp12165
aa(lp12166
(Vthe
p12167
g51
tp12168
a(Vother
p12169
g11
tp12170
aa(lp12171
g12170
a(Vstages
p12172
g47
tp12173
aasI1144
(lp12174
(lp12175
(Vvery
p12176
g4
tp12177
a(Ventertaining
p12178
g134
tp12179
aa(lp12180
(Vonly
p12181
g4
tp12182
a(Vwish
p12183
g11
tp12184
aasI1145
(lp12185
(lp12186
(VThe
p12187
g51
tp12188
a(Vonly
p12189
g11
tp12190
aa(lp12191
g12190
a(Vthing
p12192
g14
tp12193
aa(lp12194
(Vis
p12195
g312
tp12196
a(Vcheaper
p12197
g552
tp12198
aa(lp12199
g12198
a(Vupgrades
p12200
g47
tp12201
aa(lp12202
g12201
a(Vother
p12203
g11
tp12204
aasI1146
(lp12205
(lp12206
(Vthe
p12207
g51
tp12208
a(Vother
p12209
g11
tp12210
aa(lp12211
g12210
a(Vcars
p12212
g47
tp12213
aa(lp12214
(Vthe
p12215
g51
tp12216
a(Vbest
p12217
g168
tp12218
aa(lp12219
g12218
a(Vplace
p12220
g14
tp12221
aa(lp12222
(Vchoosable
p12223
g11
tp12224
a(Vcolours
p12225
g47
tp12226
aa(lp12227
(Vcountry
p12228
g14
tp12229
a(Vhigh
p12230
g11
tp12231
aa(lp12232
g12231
a(Vscore
p12233
g14
tp12234
aasI1147
(lp12235
(lp12236
(VMore
p12237
g552
tp12238
a(Vlevels
p12239
g47
tp12240
aa(lp12241
(Vjust
p12242
g4
tp12243
a(Vtotal
p12244
g11
tp12245
aasI1148
(lp12246
(lp12247
(Vstill
p12248
g4
tp12249
a(Vaddicting
p12250
g134
tp12251
aa(lp12252
(Vhard
p12253
g11
tp12254
a(Vwork
p12255
g14
tp12256
aasI1149
(lp12257
(lp12258
(Vjust
p12259
g4
tp12260
a(Vplain
p12261
g11
tp12262
aa(lp12263
(Vsome
p12264
g51
tp12265
a(Vgreat
p12266
g11
tp12267
aa(lp12268
g12267
a(Ventertainment
p12269
g14
tp12270
aasI1150
(lp12271
sI1151
(lp12272
sI1152
(lp12273
(lp12274
(Vown
p12275
g11
tp12276
a(Vunique
p12277
g14
tp12278
aa(lp12279
(Vawsome
p12280
g14
tp12281
a(Vfree
p12282
g11
tp12283
aa(lp12284
g12283
a(Vgame
p12285
g14
tp12286
aasI1153
(lp12287
(lp12288
(VHighly
p12289
g4
tp12290
a(Vaddictive
p12291
g11
tp12292
aa(lp12293
(Vn't
p12294
g4
tp12295
a(Vput
p12296
g7
tp12297
aa(lp12298
(Vfunny
p12299
g11
tp12300
a(Vbouncing
p12301
g14
tp12302
aa(lp12303
(Vthe
p12304
g51
tp12305
a(Vnext
p12306
g11
tp12307
aa(lp12308
g12307
a(Vbreak
p12309
g14
tp12310
aasI1154
(lp12311
(lp12312
(Vquite
p12313
g4
tp12314
a(Vgood
p12315
g11
tp12316
aa(lp12317
(Vvery
p12318
g4
tp12319
a(Vannoyed
p12320
g67
tp12321
aasI1155
(lp12322
(lp12323
(VThe
p12324
g51
tp12325
a(Vonly
p12326
g11
tp12327
aa(lp12328
g12327
a(Vthing
p12329
g14
tp12330
aa(lp12331
(Vallows
p12332
g312
tp12333
a(Vmore
p12334
g552
tp12335
aa(lp12336
g12335
a(Vpetrol
p12337
g14
tp12338
aa(lp12339
(Vmore
p12340
g552
tp12341
a(Vstuff
p12342
g14
tp12343
aasI1156
(lp12344
(lp12345
(V's
p12346
g312
tp12347
a(Vhard
p12348
g11
tp12349
aasI1157
(lp12350
(lp12351
(Vhighly
p12352
g4
tp12353
a(Vrecommended
p12354
g162
tp12355
aa(lp12356
(Vthe
p12357
g51
tp12358
a(Vbest
p12359
g168
tp12360
aa(lp12361
g12360
a(Vandroid
p12362
g14
tp12363
aasI1158
(lp12364
(lp12365
(Vvery
p12366
g4
tp12367
a(Vgood
p12368
g11
tp12369
aa(lp12370
(Vdown
p12371
g4
tp12372
a(Vgrading
p12373
g134
tp12374
aa(lp12375
(Velse
p12376
g4
tp12377
a(Vhaving
p12378
g134
tp12379
aasI1159
(lp12380
(lp12381
(g50
g51
tp12382
a(Vgreat
p12383
g11
tp12384
aa(lp12385
g12384
a(Vgame
p12386
g14
tp12387
aa(lp12388
(Vvery
p12389
g4
tp12390
a(Vaddictive
p12391
g11
tp12392
aa(lp12393
(Vdifferent
p12394
g11
tp12395
a(Vlevels
p12396
g47
tp12397
aa(lp12398
(Vthe
p12399
g51
tp12400
a(Vonly
p12401
g11
tp12402
aa(lp12403
g12402
a(Vthing
p12404
g14
tp12405
aasI1160
(lp12406
(lp12407
(Vrather
p12408
g4
tp12409
a(Vannoying
p12410
g134
tp12411
aa(lp12412
(Vpretty
p12413
g4
tp12414
a(Vaddictive
p12415
g11
tp12416
aa(lp12417
g12416
a(Vlittle
p12418
g11
tp12419
aa(lp12420
g12419
a(Vgame
p12421
g14
tp12422
aasI1161
(lp12423
(lp12424
(VThe
p12425
g51
tp12426
a(Vnew
p12427
g11
tp12428
aa(lp12429
g12428
a(Vmotorcycle
p12430
g14
tp12431
aa(lp12432
(Vtoo
p12433
g4
tp12434
a(Vlarge
p12435
g11
tp12436
aa(lp12437
(Valot
p12438
g14
tp12439
a(Vmore
p12440
g552
tp12441
aa(lp12442
(Vabsolutely
p12443
g4
tp12444
a(Vfantastic
p12445
g11
tp12446
aa(lp12447
g12446
a(Vgame
p12448
g14
tp12449
aasI1162
(lp12450
sI1163
(lp12451
(lp12452
(Vjust
p12453
g4
tp12454
a(Vcollecting
p12455
g134
tp12456
aa(lp12457
(V7mil
p12458
g11
tp12459
a(Vcoins
p12460
g47
tp12461
aasI1164
(lp12462
(lp12463
(VAbsolutely
p12464
g4
tp12465
a(Vloving
p12466
g134
tp12467
aasI1165
(lp12468
(lp12469
(Vmore
p12470
g1725
tp12471
a(Vexpensive
p12472
g11
tp12473
aa(lp12474
(Vthe
p12475
g51
tp12476
a(Veasier
p12477
g552
tp12478
aa(lp12479
(Vonly
p12480
g4
tp12481
a(Vrun
p12482
g7
tp12483
aasI1166
(lp12484
(lp12485
(Vnot
p12486
g4
tp12487
a(Vending
p12488
g134
tp12489
aa(lp12490
(Vminor
p12491
g11
tp12492
a(Vneck
p12493
g14
tp12494
aasI1167
(lp12495
(lp12496
(Vreally
p12497
g4
tp12498
a(Vfun
p12499
g67
tp12500
aa(lp12501
(g50
g51
tp12502
a(Vgood
p12503
g11
tp12504
aa(lp12505
g12504
a(Vtime
p12506
g14
tp12507
aa(lp12508
(g50
g51
tp12509
a(Vfew
p12510
g11
tp12511
aa(lp12512
(Vso
p12513
g4
tp12514
a(Vboring
p12515
g134
tp12516
aasI1168
(lp12517
sI1169
(lp12518
(lp12519
(Vgets
p12520
g47
tp12521
a(Vmore
p12522
g552
tp12523
aa(lp12524
(Vhigher
p12525
g552
tp12526
a(Vlevels
p12527
g47
tp12528
aa(lp12529
(Veasily
p12530
g4
tp12531
a(Vaddicted
p12532
g67
tp12533
aasI1170
(lp12534
sI1171
(lp12535
(lp12536
(Vthen
p12537
g4
tp12538
a(Vkind
p12539
g11
tp12540
aasI1172
(lp12541
(lp12542
(Vaccidentally
p12543
g4
tp12544
a(Vhit
p12545
g162
tp12546
aa(lp12547
(g50
g51
tp12548
a(Vbuyable
p12549
g11
tp12550
aa(lp12551
g12550
a(g10471
g14
tp12552
aasI1173
(lp12553
(lp12554
(VOtherwise
p12555
g4
tp12556
a(Vstable
p12557
g11
tp12558
aasI1174
(lp12559
(lp12560
(Vmore
p12561
g552
tp12562
a(Vupdates
p12563
g47
tp12564
aasI1175
(lp12565
(lp12566
(Vfavorite
p12567
g11
tp12568
a(Vgame
p12569
g14
tp12570
aa(lp12571
(Vthe
p12572
g51
tp12573
a(Vnew
p12574
g11
tp12575
aa(lp12576
g12575
a(Vdirt
p12577
g14
tp12578
aasI1176
(lp12579
(lp12580
(Vnew
p12581
g11
tp12582
a(Vgame
p12583
g14
tp12584
aa(lp12585
(g50
g51
tp12586
a(Vcertain
p12587
g11
tp12588
aa(lp12589
g12588
a(Vtime
p12590
g14
tp12591
aa(lp12592
(Vgame
p12593
g14
tp12594
a(Vmore
p12595
g552
tp12596
aa(lp12597
(VAlso
p12598
g4
tp12599
a(Vadd
p12600
g162
tp12601
aa(lp12602
(Vjust
p12603
g4
tp12604
a(Vred
p12605
g67
tp12606
aa(lp12607
(Vdefiantly
p12608
g4
tp12609
a(Vgive
p12610
g7
tp12611
aasI1177
(lp12612
(lp12613
(VThe
p12614
g51
tp12615
a(Vcurrent
p12616
g11
tp12617
aa(lp12618
g12617
a(Vrider
p12619
g14
tp12620
aasI1178
(lp12621
(lp12622
(g50
g51
tp12623
a(Vgreat
p12624
g11
tp12625
aa(lp12626
g12625
a(Vgame
p12627
g14
tp12628
aa(lp12629
(g50
g51
tp12630
a(Vfew
p12631
g11
tp12632
aa(lp12633
g12632
a(Videas
p12634
g47
tp12635
aa(lp12636
g12635
a(V-be
p12637
g11
tp12638
aa(lp12639
g12638
a(Vable
p12640
g11
tp12641
aasI1179
(lp12642
(lp12643
(Vgreat
p12644
g11
tp12645
a(Vfun
p12646
g14
tp12647
aa(lp12648
(g50
g51
tp12649
a(Vlong
p12650
g11
tp12651
aa(lp12652
g12651
a(Vtime
p12653
g14
tp12654
aa(lp12655
(Vfirst
p12656
g11
tp12657
a(Vlevels
p12658
g47
tp12659
aa(lp12660
(Vreally
p12661
g4
tp12662
a(Vgood
p12663
g11
tp12664
aa(lp12665
g12664
a(Vfun
p12666
g14
tp12667
aasI1180
(lp12668
(lp12669
(VPretty
p12670
g4
tp12671
a(Vswell
p12672
g162
tp12673
aa(lp12674
(Vfully
p12675
g4
tp12676
a(Vupgrade
p12677
g67
tp12678
aasI1181
(lp12679
(lp12680
(Vis
p12681
g312
tp12682
a(Vcool
p12683
g11
tp12684
aa(lp12685
(Vthe
p12686
g51
tp12687
a(Vother
p12688
g11
tp12689
aa(lp12690
g12689
a(Vcars
p12691
g47
tp12692
aasI1182
(lp12693
sI1183
(lp12694
(lp12695
(Vthe
p12696
g51
tp12697
a(Vbest
p12698
g168
tp12699
aa(lp12700
g12699
a(Vmobile
p12701
g11
tp12702
aa(lp12703
g12702
a(Vgames
p12704
g47
tp12705
aa(lp12706
(Vever
p12707
g4
tp12708
a(Vplayed
p12709
g67
tp12710
aa(lp12711
(Vnever
p12712
g4
tp12713
a(Vget
p12714
g7
tp12715
aasI1184
(lp12716
(lp12717
(Vsometimes
p12718
g4
tp12719
a(Vfrustrating
p12720
g134
tp12721
aasI1185
(lp12722
(lp12723
(Vlittle
p12724
g4
tp12725
a(Vfrustrating
p12726
g134
tp12727
aa(lp12728
(Vdefinitely
p12729
g4
tp12730
a(Vworth
p12731
g11
tp12732
aa(lp12733
(g50
g51
tp12734
a(Vblast
p12735
g11
tp12736
aasI1186
(lp12737
(lp12738
(Vmore
p12739
g552
tp12740
a(Vlevels
p12741
g47
tp12742
aa(lp12743
(g50
g51
tp12744
a(Vnew
p12745
g11
tp12746
aasI1187
(lp12747
(lp12748
(Vnew
p12749
g11
tp12750
a(Vcharacters
p12751
g47
tp12752
aasI1188
(lp12753
(lp12754
(Vthe
p12755
g51
tp12756
a(Vnext
p12757
g11
tp12758
aa(lp12759
g12758
a(Vdistance
p12760
g14
tp12761
aasI1189
(lp12762
(lp12763
(Vn't
p12764
g4
tp12765
a(Vuse
p12766
g7
tp12767
aasI1190
(lp12768
(lp12769
(g50
g51
tp12770
a(Vsimple
p12771
g11
tp12772
aa(lp12773
g12772
a(Vfun
p12774
g14
tp12775
aasI1191
(lp12776
(lp12777
(g50
g51
tp12778
a(Vgood
p12779
g11
tp12780
aa(lp12781
g12780
a(Vtime
p12782
g14
tp12783
aa(lp12784
(Vsuper
p12785
g14
tp12786
a(Veasy
p12787
g11
tp12788
aa(lp12789
(VThe
p12790
g51
tp12791
a(Vonly
p12792
g11
tp12793
aa(lp12794
g12793
a(Vthing
p12795
g14
tp12796
aa(lp12797
(Vn't
p12798
g4
tp12799
a(Vquite
p12800
g7
tp12801
aasI1192
(lp12802
sI1193
(lp12803
(lp12804
(Vhighly
p12805
g4
tp12806
a(Vaddictive
p12807
g11
tp12808
aa(lp12809
(g50
g51
tp12810
a(Vgreat
p12811
g11
tp12812
aa(lp12813
g12812
a(Vtime
p12814
g14
tp12815
aa(lp12816
(V22mil
p12817
g11
tp12818
a(Vcoins
p12819
g47
tp12820
aa(lp12821
(Vtoo
p12822
g4
tp12823
a(Vsee
p12824
g7
tp12825
aa(lp12826
(Vmore
p12827
g552
tp12828
a(Vupdates
p12829
g47
tp12830
aasI1194
(lp12831
(lp12832
(Vis
p12833
g312
tp12834
a(Vgreat
p12835
g11
tp12836
aa(lp12837
(Vso
p12838
g4
tp12839
a(Vaddictive
p12840
g11
tp12841
aa(lp12842
(Vso
p12843
g4
tp12844
a(Vhard
p12845
g11
tp12846
aasI1195
(lp12847
(lp12848
(Vbest
p12849
g168
tp12850
a(Vthing
p12851
g14
tp12852
aasI1196
(lp12853
(lp12854
(Vmore
p12855
g1725
tp12856
a(Vadicting
p12857
g134
tp12858
aa(lp12859
(Vnow.well
p12860
g11
tp12861
a(Vdone
p12862
g14
tp12863
aasI1197
(lp12864
(lp12865
(Vmore
p12866
g552
tp12867
a(Vupgrades
p12868
g47
tp12869
aa(lp12870
(Vmore
p12871
g552
tp12872
a(Vvaried
p12873
g11
tp12874
aa(lp12875
g12874
a(Vversion
p12876
g14
tp12877
aa(lp12878
(Vthe
p12879
g51
tp12880
a(Vcurrent
p12881
g11
tp12882
aa(lp12883
g12882
a(Vupgrades
p12884
g47
tp12885
aasI1198
(lp12886
sI1199
(lp12887
(lp12888
(Vmore
p12889
g552
tp12890
a(Vupgrades
p12891
g47
tp12892
aa(lp12893
(Vmore
p12894
g552
tp12895
a(Vvaried
p12896
g11
tp12897
aa(lp12898
g12897
a(Vversion
p12899
g14
tp12900
aa(lp12901
(Vthe
p12902
g51
tp12903
a(Vcurrent
p12904
g11
tp12905
aa(lp12906
g12905
a(Vupgrades
p12907
g47
tp12908
aasI1200
(lp12909
(lp12910
(Vis
p12911
g312
tp12912
a(Vneck-crunching
p12913
g11
tp12914
aa(lp12915
g12914
a(Vfun
p12916
g14
tp12917
aa(lp12918
(Vn't
p12919
g4
tp12920
a(Vstop
p12921
g7
tp12922
aasI1201
(lp12923
(lp12924
(Van
p12925
g51
tp12926
a(Vaddictive
p12927
g11
tp12928
aa(lp12929
g12928
a(Vgame
p12930
g14
tp12931
aasI1202
(lp12932
(lp12933
(g50
g51
tp12934
a(Vsimple
p12935
g11
tp12936
aa(lp12937
g12936
a(Vfun
p12938
g14
tp12939
aasI1203
(lp12940
(lp12941
(g50
g51
tp12942
a(Vgood
p12943
g11
tp12944
aa(lp12945
g12944
a(Vtime
p12946
g14
tp12947
aa(lp12948
(Vsuper
p12949
g14
tp12950
a(Veasy
p12951
g11
tp12952
aa(lp12953
(VThe
p12954
g51
tp12955
a(Vonly
p12956
g11
tp12957
aa(lp12958
g12957
a(Vthing
p12959
g14
tp12960
aa(lp12961
(Vn't
p12962
g4
tp12963
a(Vquite
p12964
g7
tp12965
aasI1204
(lp12966
(lp12967
(Vdifferent
p12968
g11
tp12969
a(Vvehicals
p12970
g47
tp12971
aa(lp12972
(Vthe
p12973
g51
tp12974
a(Vbest
p12975
g168
tp12976
aa(lp12977
(Veach
p12978
g51
tp12979
a(Vvehical
p12980
g11
tp12981
aa(lp12982
(Vthe
p12983
g51
tp12984
a(Vbest
p12985
g168
tp12986
aa(lp12987
(Vthe
p12988
g51
tp12989
a(Vvehical
p12990
g11
tp12991
aa(lp12992
(Vthe
p12993
g51
tp12994
a(Vnext
p12995
g11
tp12996
aasI1205
(lp12997
(lp12998
(Vthe
p12999
g51
tp13000
a(Vbest
p13001
g168
tp13002
aa(lp13003
g13002
a(Vgames
p13004
g47
tp13005
aa(lp13006
(Vever
p13007
g4
tp13008
a(Vplayed
p13009
g67
tp13010
aa(lp13011
(Vnot
p13012
g4
tp13013
a(Vhave
p13014
g7
tp13015
aa(lp13016
(Voverly
p13017
g4
tp13018
a(Vannoying
p13019
g134
tp13020
aa(lp13021
(Vextremely
p13022
g4
tp13023
a(Vaddictive
p13024
g11
tp13025
aa(lp13026
(Vmuch
p13027
g4
tp13028
a(Vtime
p13029
g7
tp13030
aasI1206
(lp13031
(lp13032
(Vthe
p13033
g51
tp13034
a(Vbest
p13035
g168
tp13036
aa(lp13037
g13036
a(Vapp
p13038
g14
tp13039
aa(lp13040
(Vn't
p13041
g4
tp13042
a(Vput
p13043
g7
tp13044
aa(lp13045
(Vtotally
p13046
g4
tp13047
a(Vaddictive
p13048
g11
tp13049
aa(lp13050
(Vthe
p13051
g51
tp13052
a(Vsame
p13053
g11
tp13054
aa(lp13055
g13054
a(Vboring
p13056
g14
tp13057
aasI1207
(lp13058
(lp13059
(Vn't
p13060
g4
tp13061
a(Vuse
p13062
g7
tp13063
aasI1208
(lp13064
(lp13065
(Vconstructive
p13066
g11
tp13067
a(Vcriticism
p13068
g14
tp13069
aa(lp13070
(Vtutorial
p13071
g11
tp13072
a(Vintroduction
p13073
g14
tp13074
aa(lp13075
(Vown
p13076
g11
tp13077
a(Vthing
p13078
g14
tp13079
aasI1209
(lp13080
sI1210
(lp13081
sI1211
(lp13082
sI1212
(lp13083
sI1213
(lp13084
(lp13085
(Van
p13086
g51
tp13087
a(Vaddictive
p13088
g11
tp13089
aa(lp13090
g13089
a(Vgame
p13091
g14
tp13092
aasI1214
(lp13093
(lp13094
(Vother
p13095
g11
tp13096
a(Vcar
p13097
g14
tp13098
aa(lp13099
(Vis
p13100
g312
tp13101
a(Vsimple
p13102
g11
tp13103
aa(lp13104
g13103
a(Vfast
p13105
g14
tp13106
aa(lp13107
(Vyet
p13108
g4
tp13109
a(Vengrossing
p13110
g134
tp13111
aasI1215
(lp13112
(lp13113
(Vdifferent
p13114
g11
tp13115
a(Vvehicals
p13116
g47
tp13117
aa(lp13118
(Vthe
p13119
g51
tp13120
a(Vbest
p13121
g168
tp13122
aa(lp13123
(Veach
p13124
g51
tp13125
a(Vvehical
p13126
g11
tp13127
aa(lp13128
(Vthe
p13129
g51
tp13130
a(Vbest
p13131
g168
tp13132
aa(lp13133
(Vthe
p13134
g51
tp13135
a(Vvehical
p13136
g11
tp13137
aa(lp13138
(Vthe
p13139
g51
tp13140
a(Vnext
p13141
g11
tp13142
aasI1216
(lp13143
(lp13144
(Vthe
p13145
g51
tp13146
a(Vbest
p13147
g168
tp13148
aa(lp13149
g13148
a(Vgames
p13150
g47
tp13151
aa(lp13152
(Vever
p13153
g4
tp13154
a(Vplayed
p13155
g67
tp13156
aa(lp13157
(Vnot
p13158
g4
tp13159
a(Vhave
p13160
g7
tp13161
aa(lp13162
(Voverly
p13163
g4
tp13164
a(Vannoying
p13165
g134
tp13166
aa(lp13167
(Vextremely
p13168
g4
tp13169
a(Vaddictive
p13170
g11
tp13171
aa(lp13172
(Vmuch
p13173
g4
tp13174
a(Vtime
p13175
g7
tp13176
aasI1217
(lp13177
(lp13178
(V's
p13179
g312
tp13180
a(Vmind.other
p13181
g11
tp13182
aa(lp13183
(Vreally
p13184
g4
tp13185
a(Vaddicting
p13186
g134
tp13187
aasI1218
(lp13188
(lp13189
(Vthe
p13190
g51
tp13191
a(Vbest
p13192
g168
tp13193
aa(lp13194
g13193
a(Vapp
p13195
g14
tp13196
aa(lp13197
(Vn't
p13198
g4
tp13199
a(Vput
p13200
g7
tp13201
aa(lp13202
(Vtotally
p13203
g4
tp13204
a(Vaddictive
p13205
g11
tp13206
aa(lp13207
(Vthe
p13208
g51
tp13209
a(Vsame
p13210
g11
tp13211
aa(lp13212
g13211
a(Vboring
p13213
g14
tp13214
aas.