(dp0
I0
(lp1
(lp2
(Vn't
p3
S'RB'
p4
tp5
a(Vcuz
p6
S'VB'
p7
tp8
aa(lp9
(Vvery
p10
S'JJ'
p11
tp12
a(Vannoying
p13
S'NN'
p14
tp15
aasI1
(lp16
(lp17
(V-step
p18
g11
tp19
a(Vrequirement
p20
g14
tp21
aa(lp22
(Vthen
p23
g4
tp24
a(Vexit
p25
g7
tp26
aa(lp27
(Vonly
p28
g4
tp29
a(Vtake
p30
g7
tp31
aa(lp32
(Vnot
p33
g4
tp34
a(Vlet
p35
g7
tp36
aasI2
(lp37
(lp38
(Vvery
p39
g4
tp40
a(Vgood
p41
g11
tp42
aa(lp43
(Vprevious
p44
g11
tp45
a(Vgames
p46
S'NNS'
p47
tp48
aa(lp49
(Vdifferent
p50
g11
tp51
a(Vtwist
p52
g14
tp53
aa(lp54
(Vn't
p55
g4
tp56
a(Vbeat
p57
g7
tp58
aa(lp59
(Vvery
p60
g4
tp61
a(Vfun
p62
S'VBN'
p63
tp64
aasI3
(lp65
(lp66
(Vn't
p67
g4
tp68
a(Vcuz
p69
g7
tp70
aa(lp71
(Vvery
p72
g11
tp73
a(Vannoying
p74
g14
tp75
aasI4
(lp76
(lp77
(V-step
p78
g11
tp79
a(Vrequirement
p80
g14
tp81
aa(lp82
(Vthen
p83
g4
tp84
a(Vexit
p85
g7
tp86
aa(lp87
(Vonly
p88
g4
tp89
a(Vtake
p90
g7
tp91
aa(lp92
(Vnot
p93
g4
tp94
a(Vlet
p95
g7
tp96
aasI5
(lp97
(lp98
(Vvery
p99
g4
tp100
a(Vgood
p101
g11
tp102
aa(lp103
(Vprevious
p104
g11
tp105
a(Vgames
p106
g47
tp107
aa(lp108
(Vdifferent
p109
g11
tp110
a(Vtwist
p111
g14
tp112
aa(lp113
(Vn't
p114
g4
tp115
a(Vbeat
p116
g7
tp117
aa(lp118
(Vvery
p119
g4
tp120
a(Vfun
p121
g63
tp122
aasI6
(lp123
(lp124
(Vpretty
p125
g4
tp126
a(Vfreaking
p127
S'VBG'
p128
tp129
aa(lp130
(Vsomething
p131
g14
tp132
a(Vnew
p133
g11
tp134
aasI7
(lp135
(lp136
(VReally
p137
g4
tp138
a(Vloving
p139
g128
tp140
aa(lp141
(Vso
p142
g4
tp143
a(Vcool
p144
g11
tp145
aasI8
(lp146
(lp147
(Vangry
p148
g11
tp149
a(Vbirds
p150
g47
tp151
aa(lp152
(Veventually
p153
g4
tp154
a(Vgot
p155
S'VBD'
p156
tp157
aa(lp158
(Vnext
p159
g11
tp160
a(Vupdate
p161
g14
tp162
aasI9
(lp163
(lp164
(Vgood
p165
g11
tp166
a(Vangry
p167
g14
tp168
aasI10
(lp169
(lp170
(Vlast
p171
g11
tp172
a(Vupdate
p173
g14
tp174
aa(lp175
(Vnot
p176
g4
tp177
a(Vopen
p178
g7
tp179
aasI11
(lp180
(lp181
(Vsame
p182
g11
tp183
a(Vresult
p184
g14
tp185
aasI12
(lp186
sI13
(lp187
sI14
(lp188
(lp189
(Vmost
p190
S'RBS'
p191
tp192
a(Vinteresting
p193
g11
tp194
aasI15
(lp195
sI16
(lp196
sI17
(lp197
sI18
(lp198
sI19
(lp199
sI20
(lp200
(lp201
(Vstill
p202
g4
tp203
a(Vawful
p204
g11
tp205
aa(lp206
(Vlow
p207
g11
tp208
a(Vrate
p209
g14
tp210
aasI21
(lp211
(lp212
(VBrilliant
p213
g11
tp214
a(V!
p215
g14
tp216
aa(lp217
(VBrilliant
p218
g11
tp219
a(Vagain
p220
g14
tp221
aasI22
(lp222
(lp223
(Vn't
p224
g4
tp225
a(Vplay
p226
g7
tp227
aasI23
(lp228
(lp229
(Vreluctantly
p230
g4
tp231
a(Vspent
p232
g156
tp233
aa(lp234
(Vnever
p235
g4
tp236
a(Vshowed
p237
g156
tp238
aa(lp239
(Vnever
p240
g4
tp241
a(Vgot
p242
g156
tp243
aasI24
(lp244
(lp245
(Vvery
p246
g4
tp247
a(Vaddictive
p248
g11
tp249
aa(lp250
(Vvery
p251
g4
tp252
a(Vfun
p253
g11
tp254
aasI25
(lp255
sI26
(lp256
sI27
(lp257
(lp258
(Vclassic
p259
g11
tp260
a(Vcharacters
p261
g47
tp262
aasI28
(lp263
(lp264
(Vn't
p265
g4
tp266
a(Vhave
p267
g7
tp268
aasI29
(lp269
(lp270
(VReally
p271
g4
tp272
a(Vfun
p273
g63
tp274
aasI30
(lp275
sI31
(lp276
sI32
(lp277
(lp278
(Ventertaining
p279
g11
tp280
a(Vgame
p281
g14
tp282
aasI33
(lp283
sI34
(lp284
(lp285
(Vn't
p286
g4
tp287
a(Vget
p288
g7
tp289
aasI35
(lp290
(lp291
(Vangry
p292
g11
tp293
a(Vbirds
p294
g47
tp295
aa(lp296
(Vnot
p297
g4
tp298
a(Vusing
p299
g128
tp300
aasI36
(lp301
(lp302
(Vown
p303
g11
tp304
a(Vspin
p305
g14
tp306
aasI37
(lp307
(lp308
(Vnext
p309
g11
tp310
a(Vangry
p311
g14
tp312
aasI38
(lp313
(lp314
(Vangry
p315
g11
tp316
a(Vbirds
p317
g47
tp318
aasI39
(lp319
(lp320
(Vn't
p321
g4
tp322
a(Vdisappointed
p323
g63
tp324
aasI40
(lp325
sI41
(lp326
(lp327
(Vtoo
p328
g4
tp329
a(Vbig
p330
g11
tp331
aasI42
(lp332
(lp333
(Vvery
p334
g4
tp335
a(Vcute
p336
g11
tp337
aa(lp338
(Vvarious
p339
g11
tp340
a(Vfeatures
p341
g47
tp342
aa(lp343
(Vprevious
p344
g11
tp345
a(Vgames
p346
g47
tp347
aasI43
(lp348
(lp349
(Vbig
p350
g11
tp351
a(Vboss
p352
g14
tp353
aa(lp354
(Vdarth
p355
g11
tp356
a(Vpig
p357
g14
tp358
aasI44
(lp359
(lp360
(Vfunny
p361
g11
tp362
a(Vstar
p363
g14
tp364
aasI45
(lp365
(lp366
(Vmany
p367
g11
tp368
a(Vfresh
p369
g11
tp370
aa(lp371
(Venjoyable
p372
g11
tp373
a(Videas
p374
g47
tp375
aasI46
(lp376
(lp377
(Vreally
p378
g4
tp379
a(Vexcited
p380
g63
tp381
aa(lp382
(Veven
p383
g4
tp384
a(Vload
p385
g7
tp386
aa(lp387
(Vn't
p388
g4
tp389
a(Vplay
p390
g7
tp391
aa(lp392
(Vfull
p393
g11
tp394
a(Vgame
p395
g14
tp396
aa(lp397
(Vn't
p398
g4
tp399
a(Vshow
p400
g7
tp401
aasI47
(lp402
sI48
(lp403
(lp404
(Vaboslutly
p405
g4
tp406
a(Vamazing
p407
g128
tp408
aa(lp409
(Vlittle
p410
g4
tp411
a(Vanoying
p412
g128
tp413
aa(lp414
(Voverall
p415
g11
tp416
a(Vgreat
p417
g11
tp418
aasI49
(lp419
(lp420
(Vn't
p421
g4
tp422
a(Vgon
p423
g7
tp424
aa(lp425
(VNOT
p426
g4
tp427
a(Vdisappointed
p428
g63
tp429
aasI50
(lp430
(lp431
(Vhuge
p432
g11
tp433
a(Vhelp
p434
g14
tp435
aasI51
(lp436
(lp437
(Vads
p438
g47
tp439
a(Vfree
p440
g11
tp441
aa(lp442
(Vn't
p443
g4
tp444
a(Vunlock
p445
g7
tp446
aa(lp447
(Valso
p448
g4
tp449
a(Vhappened
p450
g156
tp451
aa(lp452
(Vgood
p453
g11
tp454
a(Vgame
p455
g14
tp456
aasI52
(lp457
(lp458
(Vpretty
p459
g4
tp460
a(Vsweet
p461
g11
tp462
aasI53
(lp463
sI54
(lp464
(lp465
(Voriginal
p466
g11
tp467
a(Vangry
p468
g14
tp469
aa(lp470
(Vangry
p471
g11
tp472
a(Vbird
p473
g14
tp474
aa(lp475
(Vquite
p476
g4
tp477
a(Vgood
p478
g11
tp479
aasI55
(lp480
(lp481
(Vn't
p482
g4
tp483
a(Vwork
p484
g7
tp485
aa(lp486
(Vsame
p487
g11
tp488
a(Vthing
p489
g14
tp490
aasI56
(lp491
(lp492
(Vnot
p493
g4
tp494
a(Vworking
p495
g128
tp496
aa(lp497
(Vblack
p498
g11
tp499
a(Vscreen
p500
g14
tp501
aa(lp502
(Vn't
p503
g4
tp504
a(Vexist
p505
g7
tp506
aasI57
(lp507
sI58
(lp508
(lp509
(VAbsolutely
p510
g4
tp511
a(Vamazing
p512
g128
tp513
aasI59
(lp514
(lp515
(Vfirst
p516
g11
tp517
a(Vlevel
p518
g14
tp519
aasI60
(lp520
(lp521
(Vn't
p522
g4
tp523
a(Vopen
p524
g7
tp525
aa(lp526
(V.I
p527
g11
tp528
a(Vneeeeed
p529
g14
tp530
aasI61
(lp531
(lp532
(Vangry
p533
g11
tp534
a(Vbirds
p535
g47
tp536
aasI62
(lp537
(lp538
(Vnot
p539
g4
tp540
a(Vwork
p541
g7
tp542
aasI63
(lp543
(lp544
(Vnot
p545
g4
tp546
a(Vdownload
p547
g7
tp548
aa(lp549
(VNow
p550
g4
tp551
a(Vcompatible
p552
g11
tp553
aasI64
(lp554
sI65
(lp555
(lp556
(Vhardly
p557
g4
tp558
a(Vget
p559
g7
tp560
aasI66
(lp561
sI67
(lp562
(lp563
(Vnew
p564
g11
tp565
a(Vupdate
p566
g14
tp567
aa(lp568
(Vblack
p569
g11
tp570
a(Vsquares
p571
g47
tp572
aa(lp573
(Vactual
p574
g11
tp575
a(Vgraphics
p576
g47
tp577
aasI68
(lp578
(lp579
(Vn't
p580
g4
tp581
a(Vsay
p582
g7
tp583
aa(lp584
(Venough
p585
g11
tp586
a(Vgood
p587
g11
tp588
aa(lp589
g588
a(Vthings
p590
g47
tp591
aasI69
(lp592
(lp593
(Vn't
p594
g4
tp595
a(Vwant
p596
g7
tp597
aasI70
(lp598
sI71
(lp599
sI72
(lp600
sI73
(lp601
sI74
(lp602
sI75
(lp603
(lp604
(Vvery
p605
g4
tp606
a(Vstrategic
p607
g11
tp608
aa(lp609
g608
a(Vturn
p610
g14
tp611
aa(lp612
(Vonly
p613
g4
tp614
a(Vthrilled
p615
g63
tp616
aa(lp617
(Vyoung
p618
g11
tp619
a(Vones
p620
g47
tp621
aa(lp622
(Vold
p623
g11
tp624
a(Vdogs
p625
g47
tp626
aa(lp627
(Vvery
p628
g4
tp629
a(Vintuitive
p630
g11
tp631
aa(lp632
g631
a(Vgameplay
p633
g14
tp634
aasI76
(lp635
(lp636
(Vrandomly
p637
g4
tp638
a(Vhave
p639
g7
tp640
aa(lp641
(Ventire
p642
g11
tp643
a(Vlevel
p644
g14
tp645
aa(lp646
(Vonly
p647
g4
tp648
a(Vshot
p649
g11
tp650
aasI77
(lp651
(lp652
(Vn't
p653
g4
tp654
a(Vthink
p655
g7
tp656
aa(lp657
(Vstill
p658
g4
tp659
a(Vbe
p660
g7
tp661
aa(lp662
(Vmuch
p663
g4
tp664
a(Vfun
p665
g63
tp666
aa(lp667
(Vgreat
p668
g11
tp669
a(Vfun
p670
g14
tp671
aasI78
(lp672
(lp673
(Vn't
p674
g4
tp675
a(Vgo
p676
g7
tp677
aasI79
(lp678
(lp679
(Vreally
p680
g4
tp681
a(Vdid
p682
g156
tp683
aa(lp684
(Vmost
p685
g191
tp686
a(Ventertaining
p687
g11
tp688
aasI80
(lp689
(lp690
(Vso
p691
g4
tp692
a(VAMAZING
p693
g128
tp694
aa(lp695
(Vso
p696
g4
tp697
a(Vinterested
p698
g11
tp699
aasI81
(lp700
(lp701
(Vn't
p702
g4
tp703
a(Vdownload
p704
g7
tp705
aa(lp706
(Vn't
p707
g4
tp708
a(Vwork
p709
g7
tp710
aasI82
(lp711
sI83
(lp712
sI84
(lp713
(lp714
(Vangry
p715
g11
tp716
a(Vbirds
p717
g47
tp718
aa(lp719
(Vjust
p720
g4
tp721
a(Vgot
p722
g156
tp723
aasI85
(lp724
sI86
(lp725
(lp726
(Vangry
p727
g11
tp728
a(Vbirds
p729
g47
tp730
aasI87
(lp731
(lp732
(Vfresh
p733
g11
tp734
a(V'another
p735
g11
tp736
aa(lp737
(Vfresh
p738
g11
tp739
a(Vtake
p740
g14
tp741
aasI88
(lp742
(lp743
(VReally
p744
g4
tp745
a(Vfun
p746
g63
tp747
aasI89
(lp748
(lp749
(Vnew
p750
g11
tp751
a(Vtheme
p752
g14
tp753
aa(lp754
(Vexciting
p755
g11
tp756
a(Vnew
p757
g11
tp758
aa(lp759
g758
a(Vabilities
p760
g47
tp761
aa(lp762
(Vn't
p763
g4
tp764
a(Vstop
p765
g7
tp766
aasI90
(lp767
(lp768
(VBrilliant
p769
g11
tp770
a(Vgameplay
p771
g14
tp772
aa(lp773
(Vwell
p774
g4
tp775
a(Vintergrated
p776
g63
tp777
aa(lp778
(Vtoo
p779
g4
tp780
a(Vcheesey
p781
g11
tp782
aasI91
(lp783
(lp784
(Vn't
p785
g4
tp786
a(Vknow
p787
g7
tp788
aa(lp789
(Vlast
p790
g11
tp791
a(Vangry
p792
g14
tp793
aa(lp794
(Vever
p795
g4
tp796
a(Vbe
p797
g7
tp798
aasI92
(lp799
(lp800
(Vmobile
p801
g11
tp802
a(Vgame
p803
g14
tp804
aa(lp805
(Vwhole
p806
g11
tp807
a(Vyear
p808
g14
tp809
aasI93
(lp810
sI94
(lp811
(lp812
(Vnew
p813
g11
tp814
a(Vlevels
p815
g47
tp816
aasI95
(lp817
(lp818
(Vinternal
p819
g11
tp820
a(Vmemory
p821
g14
tp822
aa(lp823
(Vdownload
p824
g11
tp825
a(Vangry
p826
g14
tp827
aa(lp828
(Voriginal
p829
g11
tp830
a(Vangry
p831
g14
tp832
aasI96
(lp833
(lp834
(Vunlockable
p835
g11
tp836
a(Varea
p837
g14
tp838
aa(lp839
(Vnot
p840
g4
tp841
a(Vaccess
p842
g7
tp843
aasI97
(lp844
(lp845
(Vn't
p846
g4
tp847
a(Vknow
p848
g7
tp849
aasI98
(lp850
(lp851
(Vextra
p852
g11
tp853
a(Vmissions
p854
g47
tp855
aa(lp856
(Vnot
p857
g4
tp858
a(Vget
p859
g7
tp860
aa(lp861
(Vextra
p862
g11
tp863
a(Vlevels
p864
g47
tp865
aa(lp866
(VOtherwise
p867
g4
tp868
a(Vgreat
p869
g11
tp870
aa(lp871
g870
a(Vgame
p872
g14
tp873
aa(lp874
(Vjust
p875
g4
tp876
a(Vrocking
p877
g128
tp878
aasI99
(lp879
(lp880
(Vfinally
p881
g4
tp882
a(Vchanged
p883
g156
tp884
aa(lp885
(Vnormal
p886
g11
tp887
a(Vsized
p888
g11
tp889
aa(lp890
g889
a(Vbuttons
p891
g47
tp892
aasI100
(lp893
(lp894
(Vso
p895
g4
tp896
a(Vintrusive
p897
g11
tp898
aasI101
(lp899
sI102
(lp900
sI103
(lp901
sI104
(lp902
(lp903
(Vn't
p904
g4
tp905
a(Vfinish
p906
g7
tp907
aasI105
(lp908
sI106
(lp909
(lp910
(Vvisually
p911
g4
tp912
a(Vnoisy
p913
g11
tp914
aa(lp915
g914
a(Vad
p916
g14
tp917
aa(lp918
(Vnot
p919
g4
tp920
a(Vbe
p921
g7
tp922
aasI107
(lp923
(lp924
(Vbad
p925
g11
tp926
a(Vpiggies
p927
g47
tp928
aasI108
(lp929
sI109
(lp930
(lp931
(Vvery
p932
g4
tp933
a(Vaddictive
p934
g11
tp935
aasI110
(lp936
(lp937
(Vn't
p938
g4
tp939
a(Vstop
p940
g7
tp941
aasI111
(lp942
sI112
(lp943
(lp944
(Vnot
p945
g4
tp946
a(Vallowing
p947
g128
tp948
aa(lp949
(VOnce
p950
g4
tp951
a(Vcorrected
p952
g156
tp953
aa(lp954
(Vdefinitely
p955
g4
tp956
a(Vbe
p957
g7
tp958
aasI113
(lp959
sI114
(lp960
(lp961
(Vmany
p962
g11
tp963
a(Vothers
p964
g47
tp965
aa(lp966
(Vother
p967
g11
tp968
a(Vlevel
p969
g14
tp970
aa(lp971
(Vnot
p972
g4
tp973
a(Vgain
p974
g7
tp975
aasI115
(lp976
(lp977
(VNot
p978
g4
tp979
a(Vmany
p980
g11
tp981
aa(lp982
g981
a(Vlevels
p983
g47
tp984
aa(lp985
(Vreally
p986
g4
tp987
a(Vdifferent
p988
g11
tp989
aa(lp990
(VNot
p991
g4
tp992
a(Vworth
p993
g11
tp994
aa(lp995
(VReally
p996
g4
tp997
a(Vdisappointed
p998
g63
tp999
aa(lp1000
(VEven
p1001
g4
tp1002
a(Vpurchased
p1003
g63
tp1004
aasI116
(lp1005
(lp1006
(Vgreen
p1007
g11
tp1008
a(Vlight
p1009
g14
tp1010
aasI117
(lp1011
(lp1012
(Vn't
p1013
g4
tp1014
a(Vever
p1015
g7
tp1016
aa(lp1017
(Vtime
p1018
g14
tp1019
a(Vgreat
p1020
g11
tp1021
aasI118
(lp1022
(lp1023
(Vn't
p1024
g4
tp1025
a(Vhave
p1026
g7
tp1027
aa(lp1028
(Venough
p1029
g11
tp1030
a(Vspace
p1031
g14
tp1032
aasI119
(lp1033
(lp1034
(Vnew
p1035
g11
tp1036
a(Vangry
p1037
g14
tp1038
aasI120
(lp1039
(lp1040
(Vnot
p1041
g4
tp1042
a(Vaccepted
p1043
g63
tp1044
aa(lp1045
(Vthen
p1046
g4
tp1047
a(Vreload
p1048
g7
tp1049
aa(lp1050
(Vlast
p1051
g11
tp1052
a(Vapp
p1053
g14
tp1054
aa(lp1055
(Valso
p1056
g4
tp1057
a(Vtask
p1058
g7
tp1059
aasI121
(lp1060
sI122
(lp1061
sI123
(lp1062
(lp1063
(Vtotally
p1064
g4
tp1065
a(Vmessed
p1066
g156
tp1067
aa(lp1068
(Vreally
p1069
g4
tp1070
a(Vupset
p1071
g63
tp1072
aasI124
(lp1073
(lp1074
(Vinnovative
p1075
g11
tp1076
a(Vtheme
p1077
g14
tp1078
aa(lp1079
(Voriginal
p1080
g11
tp1081
a(Vbird-slinging
p1082
g11
tp1083
aa(lp1084
g1083
a(Vgame
p1085
g14
tp1086
aa(lp1087
(Vnew
p1088
g11
tp1089
a(Vpowers
p1090
g47
tp1091
aa(lp1092
(Vcriminal
p1093
g11
tp1094
a(Voffence
p1095
g14
tp1096
aa(lp1097
(Vmust-have
p1098
g11
tp1099
a(Vgame
p1100
g14
tp1101
aasI125
(lp1102
(lp1103
(VC'mon
p1104
g11
tp1105
a(Vstar
p1106
g14
tp1107
aa(lp1108
(Vangry
p1109
g11
tp1110
a(Vbirds
p1111
g47
tp1112
aa(lp1113
(Vwhole
p1114
g11
tp1115
a(Vnutha
p1116
g14
tp1117
aasI126
(lp1118
sI127
(lp1119
sI128
(lp1120
sI129
(lp1121
(lp1122
(Vso
p1123
g4
tp1124
a(Vstop
p1125
g7
tp1126
aa(lp1127
(Vnot
p1128
g4
tp1129
a(Vhave
p1130
g7
tp1131
aasI130
(lp1132
(lp1133
(Vbig
p1134
g11
tp1135
a(Vfan
p1136
g14
tp1137
aa(lp1138
(Vquite
p1139
g4
tp1140
a(Vgood
p1141
g11
tp1142
aa(lp1143
(Vso
p1144
g4
tp1145
a(Vyeah
p1146
g11
tp1147
aa(lp1148
(Vdefinitely
p1149
g4
tp1150
a(Vworth
p1151
g11
tp1152
aasI131
(lp1153
(lp1154
(VDefinitely
p1155
g4
tp1156
a(Vworth
p1157
g11
tp1158
aa(lp1159
g1158
a(Vdownloading
p1160
g14
tp1161
aasI132
(lp1162
(lp1163
(Vother
p1164
g11
tp1165
a(Vangry
p1166
g14
tp1167
aasI133
(lp1168
(lp1169
(Vyears
p1170
g47
tp1171
a(Vold
p1172
g11
tp1173
aasI134
(lp1174
sI135
(lp1175
(lp1176
(Vjust
p1177
g4
tp1178
a(Vdosent
p1179
g11
tp1180
aa(lp1181
g1180
a(Vfeel
p1182
g14
tp1183
aa(lp1184
(Vblack
p1185
g11
tp1186
a(Vbird
p1187
g14
tp1188
aasI136
(lp1189
sI137
(lp1190
(lp1191
(Vgreat
p1192
g11
tp1193
a(Vgame
p1194
g14
tp1195
aasI138
(lp1196
sI139
(lp1197
sI140
(lp1198
(lp1199
(Vangry
p1200
g11
tp1201
a(Vbirds
p1202
g47
tp1203
aa(lp1204
(VNOT
p1205
g4
tp1206
a(VBE
p1207
g7
tp1208
aa(lp1209
(Vn't
p1210
g4
tp1211
a(Vlike
p1212
g7
tp1213
aa(lp1214
(Vnow
p1215
g4
tp1216
a(Vplastering
p1217
g128
tp1218
aa(lp1219
(Vnew
p1220
g11
tp1221
a(Vgames
p1222
g47
tp1223
aa(lp1224
(Vother
p1225
g11
tp1226
a(Vversions
p1227
g47
tp1228
aa(lp1229
(Vangry
p1230
g11
tp1231
a(Vbirds
p1232
g47
tp1233
aa(lp1234
(Veven
p1235
g4
tp1236
a(Vupdating
p1237
g128
tp1238
aa(lp1239
(Vonly
p1240
g4
tp1241
a(Vintrusive
p1242
g11
tp1243
aa(lp1244
(Vrather
p1245
g4
tp1246
a(Vuse
p1247
g7
tp1248
aa(lp1249
(Vother
p1250
g11
tp1251
a(Vthings
p1252
g47
tp1253
aa(lp1254
(Vpretty
p1255
g4
tp1256
a(Vboring
p1257
g128
tp1258
aa(lp1259
(Vsimply
p1260
g4
tp1261
a(Vgoing
p1262
g128
tp1263
aa(lp1264
(Vn't
p1265
g4
tp1266
a(Vget
p1267
g7
tp1268
aa(lp1269
(Vnow
p1270
g4
tp1271
a(Vbeing
p1272
g128
tp1273
aasI141
(lp1274
sI142
(lp1275
(lp1276
(Vn't
p1277
g4
tp1278
a(Vclose
p1279
g11
tp1280
aasI143
(lp1281
sI144
(lp1282
sI145
(lp1283
(lp1284
(Val
p1285
g11
tp1286
a(Vcomes
p1287
g47
tp1288
aa(lp1289
(Vgreat
p1290
g11
tp1291
a(Vgame
p1292
g14
tp1293
aa(lp1294
(Vother
p1295
g11
tp1296
a(Vlevels
p1297
g47
tp1298
aasI146
(lp1299
(lp1300
(Vlovable
p1301
g11
tp1302
a(Vgame
p1303
g14
tp1304
aasI147
(lp1305
sI148
(lp1306
sI149
(lp1307
(lp1308
(Vmore
p1309
S'RBR'
p1310
tp1311
a(Vfun
p1312
g11
tp1313
aasI150
(lp1314
(lp1315
(Vother
p1316
g11
tp1317
a(Vangry
p1318
g14
tp1319
aasI151
(lp1320
(lp1321
(Vnot
p1322
g4
tp1323
a(Vwork
p1324
g7
tp1325
aasI152
(lp1326
(lp1327
(VJust
p1328
g4
tp1329
a(Vupdated
p1330
g63
tp1331
aa(lp1332
(Vnew
p1333
g11
tp1334
a(Vlevels
p1335
g47
tp1336
aa(lp1337
(Vnew
p1338
g11
tp1339
a(Vbirds
p1340
g47
tp1341
aasI153
(lp1342
(lp1343
(VJust
p1344
g4
tp1345
a(Vcurious
p1346
g11
tp1347
aasI154
(lp1348
(lp1349
(Vcant
p1350
g11
tp1351
a(Vinstall
p1352
g14
tp1353
aasI155
(lp1354
(lp1355
(Vnot
p1356
g4
tp1357
a(Vable
p1358
g11
tp1359
aa(lp1360
(Vn't
p1361
g4
tp1362
a(Vget
p1363
g7
tp1364
aasI156
(lp1365
(lp1366
(Valways
p1367
g4
tp1368
a(Vliked
p1369
g156
tp1370
aa(lp1371
(Vtotally
p1372
g4
tp1373
a(Vaddictive
p1374
g11
tp1375
aasI157
(lp1376
(lp1377
(Vnot
p1378
g4
tp1379
a(Vwork
p1380
g7
tp1381
aasI158
(lp1382
(lp1383
(Vmuch
p1384
g4
tp1385
a(Vfun
p1386
g63
tp1387
aasI159
(lp1388
sI160
(lp1389
sI161
(lp1390
sI162
(lp1391
(lp1392
(Vangry
p1393
g11
tp1394
a(Vbirds
p1395
g47
tp1396
aasI163
(lp1397
sI164
(lp1398
(lp1399
(Vreally
p1400
g4
tp1401
a(Vgreat
p1402
g11
tp1403
aa(lp1404
g1403
a(Vgame
p1405
g14
tp1406
aasI165
(lp1407
(lp1408
(Vwell
p1409
g4
tp1410
a(Vworth
p1411
g11
tp1412
aa(lp1413
(VOnce
p1414
g4
tp1415
a(Vcomplete
p1416
g11
tp1417
aa(lp1418
(Vonly
p1419
g4
tp1420
a(Vwant
p1421
g7
tp1422
aa(lp1423
(Voriginal
p1424
g11
tp1425
a(Vtrilogy
p1426
g14
tp1427
aasI166
(lp1428
(lp1429
(Vsuper-duper
p1430
g11
tp1431
a(Vlightsaber
p1432
g14
tp1433
aasI167
(lp1434
sI168
(lp1435
(lp1436
(Vfavorite
p1437
g11
tp1438
a(Vangry
p1439
g14
tp1440
aasI169
(lp1441
(lp1442
(V.must
p1443
g11
tp1444
a(Vplay
p1445
g14
tp1446
aasI170
(lp1447
sI171
(lp1448
sI172
(lp1449
sI173
(lp1450
(lp1451
(Vjust
p1452
g4
tp1453
a(Vcompleted
p1454
g156
tp1455
aa(lp1456
(Vnot
p1457
g4
tp1458
a(Vopened
p1459
g63
tp1460
aasI174
(lp1461
(lp1462
(Vangry
p1463
g11
tp1464
a(Vbirds
p1465
g47
tp1466
aasI175
(lp1467
sI176
(lp1468
sI177
(lp1469
sI178
(lp1470
sI179
(lp1471
(lp1472
(Vlight
p1473
g11
tp1474
a(Vsabers
p1475
g47
tp1476
aasI180
(lp1477
sI181
(lp1478
sI182
(lp1479
(lp1480
(Vseveral
p1481
g11
tp1482
a(Vtimes
p1483
g47
tp1484
aa(lp1485
(Vnot
p1486
g4
tp1487
a(Vwork
p1488
g7
tp1489
aa(lp1490
(Vn't
p1491
g4
tp1492
a(Vload
p1493
g7
tp1494
aasI183
(lp1495
sI184
(lp1496
(lp1497
(Vgreat
p1498
g11
tp1499
a(Vfun
p1500
g14
tp1501
aa(lp1502
(Vn't
p1503
g4
tp1504
a(Vdowlond
p1505
g7
tp1506
aa(lp1507
(Vn't
p1508
g4
tp1509
a(Vdowlond
p1510
g7
tp1511
aa(lp1512
(Vjust
p1513
g4
tp1514
a(Vdid
p1515
g156
tp1516
aa(lp1517
(Vfirst
p1518
g11
tp1519
a(Vbit
p1520
g14
tp1521
aa(lp1522
(Vlong
p1523
g11
tp1524
a(Vtime
p1525
g14
tp1526
aa(lp1527
(Vso
p1528
g4
tp1529
a(Vgood
p1530
g11
tp1531
aa(lp1532
g1531
a(Vapp
p1533
g14
tp1534
aasI185
(lp1535
(lp1536
(Vn't
p1537
g4
tp1538
a(Vrate
p1539
g7
tp1540
aa(lp1541
(Vn't
p1542
g4
tp1543
a(Vplay
p1544
g7
tp1545
aa(lp1546
(Vangry
p1547
g11
tp1548
a(Vbirds
p1549
g47
tp1550
aa(lp1551
(Vnot
p1552
g4
tp1553
a(Vnecessary
p1554
g11
tp1555
aasI186
(lp1556
(lp1557
(Vvery
p1558
g4
tp1559
a(Vfun
p1560
g11
tp1561
aasI187
(lp1562
(lp1563
(Vnever
p1564
g4
tp1565
a(Vdid
p1566
g156
tp1567
aa(lp1568
(Vthere
p1569
g4
tp1570
a(Vwas
p1571
g156
tp1572
aa(lp1573
(Vimmediately
p1574
g4
tp1575
a(Vdownload
p1576
g156
tp1577
aa(lp1578
(Vnot
p1579
g4
tp1580
a(Vrefuse
p1581
g7
tp1582
aa(lp1583
(Vn't
p1584
g4
tp1585
a(Vwait
p1586
g7
tp1587
aasI188
(lp1588
(lp1589
(VShockingly
p1590
g4
tp1591
a(Vpoor
p1592
g11
tp1593
aasI189
(lp1594
(lp1595
(Vwonderful
p1596
g11
tp1597
a(Vabilities
p1598
g47
tp1599
aa(lp1600
(Vonly
p1601
g11
tp1602
a(Vdisappointing
p1603
g11
tp1604
aa(lp1605
g1604
a(Vfactor
p1606
g14
tp1607
aa(lp1608
(Vtrue
p1609
g11
tp1610
a(Vstart
p1611
g14
tp1612
aasI190
(lp1613
sI191
(lp1614
(lp1615
(Vreally
p1616
g4
tp1617
a(Vappreciate
p1618
g11
tp1619
aa(lp1620
(Vwhole
p1621
g11
tp1622
a(Vfamily
p1623
g14
tp1624
aa(lp1625
(Vvery
p1626
g4
tp1627
a(Vfair
p1628
g11
tp1629
aa(lp1630
(Vn't
p1631
g4
tp1632
a(Vhave
p1633
g7
tp1634
aa(lp1635
(Vgood
p1636
g11
tp1637
a(Vtime
p1638
g14
tp1639
aa(lp1640
(Vn't
p1641
g4
tp1642
a(Vmake
p1643
g7
tp1644
aa(lp1645
(Voriginal
p1646
g11
tp1647
a(Vangry
p1648
g14
tp1649
aa(lp1650
(Vincredible
p1651
g11
tp1652
a(Vlittle
p1653
g14
tp1654
aasI192
(lp1655
(lp1656
(Vepic
p1657
g11
tp1658
a(Vintegalactic
p1659
g11
tp1660
aa(lp1661
(Vcomplete
p1662
g11
tp1663
a(Vepisode
p1664
g14
tp1665
aasI193
(lp1666
(lp1667
(Vvery
p1668
g4
tp1669
a(Vgood
p1670
g11
tp1671
aa(lp1672
(Vlast
p1673
g11
tp1674
a(Vupdate
p1675
g14
tp1676
aasI194
(lp1677
(lp1678
(Vvery
p1679
g4
tp1680
a(Vmuch
p1681
g11
tp1682
aasI195
(lp1683
(lp1684
(Vnot
p1685
g4
tp1686
a(Vget
p1687
g7
tp1688
aasI196
(lp1689
(lp1690
(Vplay
p1691
g14
tp1692
a(Vother
p1693
g11
tp1694
aa(lp1695
g1694
a(Vlevels
p1696
g47
tp1697
aa(lp1698
(Vrich
p1699
g11
tp1700
a(Venough
p1701
g11
tp1702
aa(lp1703
g1702
a(Vcome
p1704
g14
tp1705
aasI197
(lp1706
sI198
(lp1707
sI199
(lp1708
sI200
(lp1709
sI201
(lp1710
sI202
(lp1711
(lp1712
(Vperfect
p1713
g11
tp1714
a(Vstar
p1715
g14
tp1716
aa(lp1717
(Vangry
p1718
g11
tp1719
a(Vbirds
p1720
g47
tp1721
aasI203
(lp1722
(lp1723
(Vvery
p1724
g4
tp1725
a(Vgood
p1726
g11
tp1727
aa(lp1728
(Vlast
p1729
g11
tp1730
a(Vupdate
p1731
g14
tp1732
aasI204
(lp1733
(lp1734
(Vplay
p1735
g14
tp1736
a(Vother
p1737
g11
tp1738
aa(lp1739
g1738
a(Vlevels
p1740
g47
tp1741
aa(lp1742
(Vrich
p1743
g11
tp1744
a(Venough
p1745
g11
tp1746
aa(lp1747
g1746
a(Vcome
p1748
g14
tp1749
aasI205
(lp1750
(lp1751
(Vnot
p1752
g4
tp1753
a(Vget
p1754
g7
tp1755
aasI206
(lp1756
sI207
(lp1757
(lp1758
(Vnot
p1759
g4
tp1760
a(Vopen
p1761
g7
tp1762
aa(lp1763
(Vsecond
p1764
g11
tp1765
a(Vtime
p1766
g14
tp1767
aasI208
(lp1768
sI209
(lp1769
sI210
(lp1770
(lp1771
(Valready
p1772
g4
tp1773
a(Vupdated
p1774
g63
tp1775
aasI211
(lp1776
(lp1777
(Vnext
p1778
g11
tp1779
a(Vplanet
p1780
g14
tp1781
aasI212
(lp1782
(lp1783
(Vactually
p1784
g4
tp1785
a(Vpay
p1786
g7
tp1787
aa(lp1788
(Vown
p1789
g11
tp1790
a(Vlevels
p1791
g47
tp1792
aa(lp1793
(Vown
p1794
g11
tp1795
a(Vfort
p1796
g14
tp1797
aasI213
(lp1798
sI214
(lp1799
sI215
(lp1800
sI216
(lp1801
sI217
(lp1802
(lp1803
(Vnot
p1804
g4
tp1805
a(Vopen
p1806
g7
tp1807
aa(lp1808
(Vsecond
p1809
g11
tp1810
a(Vtime
p1811
g14
tp1812
aasI218
(lp1813
(lp1814
(Vnext
p1815
g11
tp1816
a(Vlevel
p1817
g14
tp1818
aa(lp1819
(Vnot
p1820
g4
tp1821
a(Vunlock
p1822
g7
tp1823
aasI219
(lp1824
(lp1825
(Valready
p1826
g4
tp1827
a(Vupdated
p1828
g63
tp1829
aasI220
(lp1830
(lp1831
(Vnext
p1832
g11
tp1833
a(Vplanet
p1834
g14
tp1835
aasI221
(lp1836
sI222
(lp1837
(lp1838
(Vactually
p1839
g4
tp1840
a(Vpay
p1841
g7
tp1842
aa(lp1843
(Vown
p1844
g11
tp1845
a(Vlevels
p1846
g47
tp1847
aa(lp1848
(Vown
p1849
g11
tp1850
a(Vfort
p1851
g14
tp1852
aasI223
(lp1853
sI224
(lp1854
(lp1855
(Vawesome
p1856
g14
tp1857
a(Vunbelievable
p1858
g11
tp1859
aasI225
(lp1860
sI226
(lp1861
sI227
(lp1862
(lp1863
(Veven
p1864
g4
tp1865
a(Vopen
p1866
g11
tp1867
aasI228
(lp1868
sI229
(lp1869
sI230
(lp1870
(lp1871
(Vnot
p1872
g4
tp1873
a(Vopen
p1874
g7
tp1875
aa(lp1876
(Vsecond
p1877
g11
tp1878
a(Vtime
p1879
g14
tp1880
aasI231
(lp1881
(lp1882
(Vnext
p1883
g11
tp1884
a(Vlevel
p1885
g14
tp1886
aa(lp1887
(Vnot
p1888
g4
tp1889
a(Vunlock
p1890
g7
tp1891
aasI232
(lp1892
(lp1893
(Vnext
p1894
g11
tp1895
a(Vplanet
p1896
g14
tp1897
aasI233
(lp1898
sI234
(lp1899
sI235
(lp1900
(lp1901
(Vawesome
p1902
g14
tp1903
a(Vunbelievable
p1904
g11
tp1905
aasI236
(lp1906
sI237
(lp1907
sI238
(lp1908
sI239
(lp1909
(lp1910
(Veven
p1911
g4
tp1912
a(Vopen
p1913
g11
tp1914
aasI240
(lp1915
sI241
(lp1916
sI242
(lp1917
sI243
(lp1918
sI244
(lp1919
sI245
(lp1920
(lp1921
(Veven
p1922
g4
tp1923
a(Vopen
p1924
g11
tp1925
aasI246
(lp1926
sI247
(lp1927
sI248
(lp1928
(lp1929
(Vnot
p1930
g4
tp1931
a(Vgood
p1932
g11
tp1933
aa(lp1934
g1933
a(Vfreezes
p1935
g47
tp1936
aasI249
(lp1937
sI250
(lp1938
sI251
(lp1939
sI252
(lp1940
sI253
(lp1941
sI254
(lp1942
sI255
(lp1943
sI256
(lp1944
(lp1945
(Vnot
p1946
g4
tp1947
a(Vgood
p1948
g11
tp1949
aa(lp1950
g1949
a(Vfreezes
p1951
g47
tp1952
aasI257
(lp1953
sI258
(lp1954
sI259
(lp1955
sI260
(lp1956
sI261
(lp1957
sI262
(lp1958
sI263
(lp1959
(lp1960
(Vbird
p1961
g11
tp1962
a(Vpreview
p1963
g14
tp1964
aa(lp1965
(Vmany
p1966
g11
tp1967
a(Vnew
p1968
g11
tp1969
aa(lp1970
g1969
a(Vones
p1971
g47
tp1972
aasI264
(lp1973
sI265
(lp1974
sI266
(lp1975
sI267
(lp1976
sI268
(lp1977
(lp1978
(Vnot
p1979
g4
tp1980
a(Vgood
p1981
g11
tp1982
aa(lp1983
g1982
a(Vfreezes
p1984
g47
tp1985
aasI269
(lp1986
sI270
(lp1987
(lp1988
(VNot
p1989
g4
tp1990
a(Vhappy
p1991
g11
tp1992
aasI271
(lp1993
(lp1994
(Vnext
p1995
g11
tp1996
a(Vangry
p1997
g14
tp1998
aasI272
(lp1999
sI273
(lp2000
sI274
(lp2001
sI275
(lp2002
sI276
(lp2003
sI277
(lp2004
sI278
(lp2005
(lp2006
(VNot
p2007
g4
tp2008
a(Vhappy
p2009
g11
tp2010
aasI279
(lp2011
(lp2012
(Veasiest
p2013
g11
tp2014
a(Vangry
p2015
g14
tp2016
aasI280
(lp2017
(lp2018
(Vnext
p2019
g11
tp2020
a(Vangry
p2021
g14
tp2022
aasI281
(lp2023
sI282
(lp2024
sI283
(lp2025
sI284
(lp2026
sI285
(lp2027
sI286
(lp2028
sI287
(lp2029
sI288
(lp2030
(lp2031
(VNot
p2032
g4
tp2033
a(Vhappy
p2034
g11
tp2035
aasI289
(lp2036
(lp2037
(Veasiest
p2038
g11
tp2039
a(Vangry
p2040
g14
tp2041
aasI290
(lp2042
(lp2043
(Vnext
p2044
g11
tp2045
a(Vangry
p2046
g14
tp2047
aasI291
(lp2048
sI292
(lp2049
sI293
(lp2050
sI294
(lp2051
sI295
(lp2052
sI296
(lp2053
(lp2054
(VAbsolutely
p2055
g4
tp2056
a(Ventertaining
p2057
g128
tp2058
aa(lp2059
(Vcompletely
p2060
g4
tp2061
a(Vhappy
p2062
g11
tp2063
aasI297
(lp2064
sI298
(lp2065
(lp2066
(Veasiest
p2067
g11
tp2068
a(Vangry
p2069
g14
tp2070
aasI299
(lp2071
sI300
(lp2072
(lp2073
(Vnext
p2074
g11
tp2075
a(Vangry
p2076
g14
tp2077
aasI301
(lp2078
sI302
(lp2079
sI303
(lp2080
sI304
(lp2081
sI305
(lp2082
sI306
(lp2083
sI307
(lp2084
sI308
(lp2085
(lp2086
(VAbsolutely
p2087
g4
tp2088
a(Ventertaining
p2089
g128
tp2090
aa(lp2091
(Vcompletely
p2092
g4
tp2093
a(Vhappy
p2094
g11
tp2095
aasI309
(lp2096
(lp2097
(Vespecially
p2098
g4
tp2099
a(Vlove
p2100
g7
tp2101
aa(lp2102
(Vn't
p2103
g4
tp2104
a(Vlet
p2105
g7
tp2106
aa(lp2107
(VNot
p2108
g4
tp2109
a(Vhappy
p2110
g11
tp2111
aasI310
(lp2112
(lp2113
(Veasiest
p2114
g11
tp2115
a(Vangry
p2116
g14
tp2117
aasI311
(lp2118
(lp2119
(Veven
p2120
g4
tp2121
a(Vhave
p2122
g7
tp2123
aasI312
(lp2124
sI313
(lp2125
sI314
(lp2126
(lp2127
(Vn't
p2128
g4
tp2129
a(Vwork
p2130
g7
tp2131
aa(lp2132
(Vfree
p2133
g11
tp2134
a(Vparts
p2135
g47
tp2136
aasI315
(lp2137
sI316
(lp2138
sI317
(lp2139
(lp2140
(VAbsolutely
p2141
g4
tp2142
a(Ventertaining
p2143
g128
tp2144
aa(lp2145
(Vcompletely
p2146
g4
tp2147
a(Vhappy
p2148
g11
tp2149
aasI318
(lp2150
sI319
(lp2151
(lp2152
(Vn't
p2153
g4
tp2154
a(Vlet
p2155
g7
tp2156
aasI320
(lp2157
(lp2158
(Vespecially
p2159
g4
tp2160
a(Vlove
p2161
g7
tp2162
aa(lp2163
(Vn't
p2164
g4
tp2165
a(Vlet
p2166
g7
tp2167
aa(lp2168
(VNot
p2169
g4
tp2170
a(Vhappy
p2171
g11
tp2172
aasI321
(lp2173
(lp2174
(Veven
p2175
g4
tp2176
a(Vhave
p2177
g7
tp2178
aasI322
(lp2179
sI323
(lp2180
sI324
(lp2181
sI325
(lp2182
(lp2183
(Vn't
p2184
g4
tp2185
a(Vclose
p2186
g11
tp2187
aa(lp2188
g2187
a(Vads
p2189
g47
tp2190
aasI326
(lp2191
sI327
(lp2192
sI328
(lp2193
(lp2194
(Vn't
p2195
g4
tp2196
a(Vlet
p2197
g7
tp2198
aasI329
(lp2199
(lp2200
(Vespecially
p2201
g4
tp2202
a(Vlove
p2203
g7
tp2204
aa(lp2205
(Vn't
p2206
g4
tp2207
a(Vlet
p2208
g7
tp2209
aa(lp2210
(VNot
p2211
g4
tp2212
a(Vhappy
p2213
g11
tp2214
aasI330
(lp2215
(lp2216
(Vother
p2217
g11
tp2218
a(Vangry
p2219
g14
tp2220
aasI331
(lp2221
sI332
(lp2222
sI333
(lp2223
sI334
(lp2224
(lp2225
(Vfun
p2226
g14
tp2227
a(Vnew
p2228
g11
tp2229
aa(lp2230
g2229
a(Vtrust
p2231
g14
tp2232
aasI335
(lp2233
sI336
(lp2234
(lp2235
(Vn't
p2236
g4
tp2237
a(Vlet
p2238
g7
tp2239
aasI337
(lp2240
sI338
(lp2241
sI339
(lp2242
(lp2243
(Vother
p2244
g11
tp2245
a(Vangry
p2246
g14
tp2247
aasI340
(lp2248
sI341
(lp2249
(lp2250
(Vnice
p2251
g11
tp2252
a(Vtwist
p2253
g14
tp2254
aasI342
(lp2255
sI343
(lp2256
sI344
(lp2257
(lp2258
(Vnot
p2259
g4
tp2260
a(Vwork
p2261
g7
tp2262
aa(lp2263
(Vother
p2264
g11
tp2265
a(Vdevice
p2266
g14
tp2267
aa(lp2268
(Vnot
p2269
g4
tp2270
a(Vwork
p2271
g7
tp2272
aa(lp2273
(Vother
p2274
g11
tp2275
a(Vdevice
p2276
g14
tp2277
aasI345
(lp2278
sI346
(lp2279
sI347
(lp2280
(lp2281
(Vother
p2282
g11
tp2283
a(Vangry
p2284
g14
tp2285
aasI348
(lp2286
sI349
(lp2287
sI350
(lp2288
(lp2289
(Vnice
p2290
g11
tp2291
a(Vtwist
p2292
g14
tp2293
aasI351
(lp2294
sI352
(lp2295
sI353
(lp2296
sI354
(lp2297
sI355
(lp2298
sI356
(lp2299
(lp2300
(Vnice
p2301
g11
tp2302
a(Vtwist
p2303
g14
tp2304
aasI357
(lp2305
sI358
(lp2306
sI359
(lp2307
sI360
(lp2308
sI361
(lp2309
(lp2310
(Vepic
p2311
g11
tp2312
a(Vgame
p2313
g14
tp2314
aasI362
(lp2315
sI363
(lp2316
sI364
(lp2317
sI365
(lp2318
sI366
(lp2319
(lp2320
(Vnice
p2321
g11
tp2322
a(Vtwist
p2323
g14
tp2324
aasI367
(lp2325
sI368
(lp2326
sI369
(lp2327
sI370
(lp2328
sI371
(lp2329
(lp2330
(Vepic
p2331
g11
tp2332
a(Vgame
p2333
g14
tp2334
aasI372
(lp2335
sI373
(lp2336
sI374
(lp2337
sI375
(lp2338
sI376
(lp2339
sI377
(lp2340
sI378
(lp2341
sI379
(lp2342
sI380
(lp2343
(lp2344
(VTotally
p2345
g4
tp2346
a(Vdifferent
p2347
g11
tp2348
aa(lp2349
g2348
a(Vview
p2350
g14
tp2351
aasI381
(lp2352
sI382
(lp2353
sI383
(lp2354
sI384
(lp2355
sI385
(lp2356
sI386
(lp2357
sI387
(lp2358
sI388
(lp2359
sI389
(lp2360
(lp2361
(VTotally
p2362
g4
tp2363
a(Vdifferent
p2364
g11
tp2365
aa(lp2366
g2365
a(Vview
p2367
g14
tp2368
aasI390
(lp2369
sI391
(lp2370
sI392
(lp2371
sI393
(lp2372
(lp2373
(Vad
p2374
g14
tp2375
a(Vfree
p2376
g11
tp2377
aa(lp2378
(Vstill
p2379
g4
tp2380
a(Vgetting
p2381
g128
tp2382
aasI394
(lp2383
sI395
(lp2384
sI396
(lp2385
sI397
(lp2386
(lp2387
(VTotally
p2388
g4
tp2389
a(Vdifferent
p2390
g11
tp2391
aa(lp2392
g2391
a(Vview
p2393
g14
tp2394
aasI398
(lp2395
sI399
(lp2396
(lp2397
(VJust
p2398
g4
tp2399
a(Vgot
p2400
g156
tp2401
aasI400
(lp2402
sI401
(lp2403
sI402
(lp2404
sI403
(lp2405
sI404
(lp2406
(lp2407
(Vangry
p2408
g11
tp2409
a(Vbirds
p2410
g47
tp2411
aa(lp2412
(Vangry
p2413
g11
tp2414
a(Vbirds
p2415
g47
tp2416
aasI405
(lp2417
sI406
(lp2418
(lp2419
(Vad
p2420
g14
tp2421
a(Vfree
p2422
g11
tp2423
aa(lp2424
(Vstill
p2425
g4
tp2426
a(Vgetting
p2427
g128
tp2428
aasI407
(lp2429
sI408
(lp2430
sI409
(lp2431
sI410
(lp2432
sI411
(lp2433
(lp2434
(Vmuch
p2435
g4
tp2436
a(Vfun
p2437
g63
tp2438
aasI412
(lp2439
(lp2440
(VJust
p2441
g4
tp2442
a(Vgot
p2443
g156
tp2444
aasI413
(lp2445
sI414
(lp2446
sI415
(lp2447
sI416
(lp2448
sI417
(lp2449
(lp2450
(Vangry
p2451
g11
tp2452
a(Vbirds
p2453
g47
tp2454
aa(lp2455
(Vangry
p2456
g11
tp2457
a(Vbirds
p2458
g47
tp2459
aasI418
(lp2460
sI419
(lp2461
sI420
(lp2462
sI421
(lp2463
sI422
(lp2464
(lp2465
(Vmuch
p2466
g4
tp2467
a(Vfun
p2468
g63
tp2469
aasI423
(lp2470
sI424
(lp2471
sI425
(lp2472
sI426
(lp2473
sI427
(lp2474
(lp2475
(Vangry
p2476
g11
tp2477
a(Vbirds
p2478
g47
tp2479
aa(lp2480
(Vangry
p2481
g11
tp2482
a(Vbirds
p2483
g47
tp2484
aasI428
(lp2485
sI429
(lp2486
sI430
(lp2487
sI431
(lp2488
sI432
(lp2489
(lp2490
(Vmuch
p2491
g4
tp2492
a(Vfun
p2493
g63
tp2494
aasI433
(lp2495
sI434
(lp2496
sI435
(lp2497
(lp2498
(Vnew
p2499
g11
tp2500
a(Vpink
p2501
g14
tp2502
aa(lp2503
(Vpretty
p2504
g4
tp2505
a(Vcool
p2506
g11
tp2507
aa(lp2508
(Vnew
p2509
g11
tp2510
a(Vpower
p2511
g14
tp2512
aasI436
(lp2513
(lp2514
(V3yr
p2515
g11
tp2516
a(Vold
p2517
g11
tp2518
aa(lp2519
g2518
a(Vgson
p2520
g14
tp2521
aasI437
(lp2522
(lp2523
(Vvery
p2524
g4
tp2525
a(Vaddicting
p2526
g128
tp2527
aa(lp2528
(Vvery
p2529
g4
tp2530
a(Vnice
p2531
g11
tp2532
aasI438
(lp2533
sI439
(lp2534
sI440
(lp2535
sI441
(lp2536
sI442
(lp2537
sI443
(lp2538
sI444
(lp2539
(lp2540
(Vnew
p2541
g11
tp2542
a(Vgame
p2543
g14
tp2544
aasI445
(lp2545
sI446
(lp2546
sI447
(lp2547
(lp2548
(Vnew
p2549
g11
tp2550
a(Vpink
p2551
g14
tp2552
aa(lp2553
(Vpretty
p2554
g4
tp2555
a(Vcool
p2556
g11
tp2557
aa(lp2558
(Vnew
p2559
g11
tp2560
a(Vpower
p2561
g14
tp2562
aasI448
(lp2563
(lp2564
(V3yr
p2565
g11
tp2566
a(Vold
p2567
g11
tp2568
aa(lp2569
g2568
a(Vgson
p2570
g14
tp2571
aasI449
(lp2572
(lp2573
(Vvery
p2574
g4
tp2575
a(Vaddicting
p2576
g128
tp2577
aa(lp2578
(Vvery
p2579
g4
tp2580
a(Vnice
p2581
g11
tp2582
aasI450
(lp2583
sI451
(lp2584
sI452
(lp2585
sI453
(lp2586
sI454
(lp2587
sI455
(lp2588
(lp2589
(Vnew
p2590
g11
tp2591
a(Vgame
p2592
g14
tp2593
aasI456
(lp2594
sI457
(lp2595
(lp2596
(Vn't
p2597
g4
tp2598
a(Vmove
p2599
g7
tp2600
aa(lp2601
(Vsecond
p2602
g11
tp2603
a(Vlevel
p2604
g14
tp2605
aasI458
(lp2606
sI459
(lp2607
(lp2608
(Vnew
p2609
g11
tp2610
a(Vpink
p2611
g14
tp2612
aa(lp2613
(Vpretty
p2614
g4
tp2615
a(Vcool
p2616
g11
tp2617
aa(lp2618
(Vnew
p2619
g11
tp2620
a(Vpower
p2621
g14
tp2622
aasI460
(lp2623
sI461
(lp2624
(lp2625
(Vvery
p2626
g4
tp2627
a(Vaddicting
p2628
g128
tp2629
aa(lp2630
(Vvery
p2631
g4
tp2632
a(Vnice
p2633
g11
tp2634
aasI462
(lp2635
sI463
(lp2636
sI464
(lp2637
sI465
(lp2638
sI466
(lp2639
(lp2640
(Vn't
p2641
g4
tp2642
a(Vmove
p2643
g7
tp2644
aa(lp2645
(Vsecond
p2646
g11
tp2647
a(Vlevel
p2648
g14
tp2649
aasI467
(lp2650
(lp2651
(Vcharacters
p2652
g47
tp2653
a(Vnew
p2654
g11
tp2655
aasI468
(lp2656
sI469
(lp2657
sI470
(lp2658
sI471
(lp2659
sI472
(lp2660
sI473
(lp2661
sI474
(lp2662
(lp2663
(Vn't
p2664
g4
tp2665
a(Vmove
p2666
g7
tp2667
aa(lp2668
(Vsecond
p2669
g11
tp2670
a(Vlevel
p2671
g14
tp2672
aasI475
(lp2673
(lp2674
(Vcharacters
p2675
g47
tp2676
a(Vnew
p2677
g11
tp2678
aasI476
(lp2679
sI477
(lp2680
sI478
(lp2681
sI479
(lp2682
sI480
(lp2683
sI481
(lp2684
sI482
(lp2685
sI483
(lp2686
sI484
(lp2687
sI485
(lp2688
(lp2689
(Vvery
p2690
g4
tp2691
a(Vaddictive
p2692
g11
tp2693
aa(lp2694
g2693
a(Vgame
p2695
g14
tp2696
aasI486
(lp2697
sI487
(lp2698
(lp2699
(Vcharacters
p2700
g47
tp2701
a(Vnew
p2702
g11
tp2703
aasI488
(lp2704
sI489
(lp2705
sI490
(lp2706
sI491
(lp2707
sI492
(lp2708
sI493
(lp2709
sI494
(lp2710
sI495
(lp2711
sI496
(lp2712
(lp2713
(Vnew
p2714
g11
tp2715
a(Vpowers
p2716
g47
tp2717
aasI497
(lp2718
(lp2719
(Vvery
p2720
g4
tp2721
a(Vaddictive
p2722
g11
tp2723
aa(lp2724
g2723
a(Vgame
p2725
g14
tp2726
aasI498
(lp2727
sI499
(lp2728
sI500
(lp2729
sI501
(lp2730
sI502
(lp2731
sI503
(lp2732
(lp2733
(Vtotally
p2734
g4
tp2735
a(Vaddictive
p2736
g11
tp2737
aa(lp2738
(Vutterly
p2739
g4
tp2740
a(Vbrilliant
p2741
g11
tp2742
aasI504
(lp2743
(lp2744
(VBrilliant
p2745
g11
tp2746
a(Vgraphics
p2747
g47
tp2748
aa(lp2749
(Vautomatic
p2750
g11
tp2751
a(Vimo
p2752
g14
tp2753
aasI505
(lp2754
(lp2755
(Vso
p2756
g4
tp2757
a(Vaddicted
p2758
g63
tp2759
aa(lp2760
(Vonly
p2761
g11
tp2762
a(Vreason
p2763
g14
tp2764
aa(lp2765
(Vn't
p2766
g4
tp2767
a(Vget
p2768
g7
tp2769
aasI506
(lp2770
(lp2771
(Vtotally
p2772
g4
tp2773
a(Vaddictive
p2774
g11
tp2775
aa(lp2776
(Vutterly
p2777
g4
tp2778
a(Vbrilliant
p2779
g11
tp2780
aasI507
(lp2781
(lp2782
(VBrilliant
p2783
g11
tp2784
a(Vgraphics
p2785
g47
tp2786
aa(lp2787
(Vautomatic
p2788
g11
tp2789
a(Vimo
p2790
g14
tp2791
aasI508
(lp2792
(lp2793
(Vso
p2794
g4
tp2795
a(Vaddicted
p2796
g63
tp2797
aa(lp2798
(Vonly
p2799
g11
tp2800
a(Vreason
p2801
g14
tp2802
aa(lp2803
(Vn't
p2804
g4
tp2805
a(Vget
p2806
g7
tp2807
aasI509
(lp2808
(lp2809
(Vgreat
p2810
g11
tp2811
a(Vgame
p2812
g14
tp2813
aa(lp2814
(Vnew
p2815
g11
tp2816
a(Vtwist
p2817
g14
tp2818
aa(lp2819
(Vfavorite
p2820
g11
tp2821
a(Vgame
p2822
g14
tp2823
aasI510
(lp2824
(lp2825
(Vreally
p2826
g4
tp2827
a(Vetchy
p2828
g11
tp2829
aa(lp2830
(Vpretty
p2831
g4
tp2832
a(Vfun
p2833
g63
tp2834
aasI511
(lp2835
(lp2836
(Vpretty
p2837
g4
tp2838
a(Vgood
p2839
g11
tp2840
aa(lp2841
g2840
a(Vgame
p2842
g14
tp2843
aasI512
(lp2844
(lp2845
(Vn't
p2846
g4
tp2847
a(Vneed
p2848
g7
tp2849
aasI513
(lp2850
(lp2851
(Vlast
p2852
g11
tp2853
a(Vupdate
p2854
g14
tp2855
aa(lp2856
(VNever
p2857
g4
tp2858
a(Vhad
p2859
g156
tp2860
aasI514
(lp2861
(lp2862
(Vlast
p2863
g11
tp2864
a(Vupdate
p2865
g14
tp2866
aa(lp2867
(Valways
p2868
g4
tp2869
a(Vdie
p2870
g7
tp2871
aa(lp2872
(Vfree
p2873
g11
tp2874
a(Vcoin
p2875
g14
tp2876
aasI515
(lp2877
(lp2878
(Vhigh
p2879
g11
tp2880
a(Vscore
p2881
g14
tp2882
aa(lp2883
(Veven
p2884
g4
tp2885
a(Vwent
p2886
g156
tp2887
aa(lp2888
(Vother
p2889
g11
tp2890
a(VApps
p2891
g47
tp2892
aasI516
(lp2893
(lp2894
(Vmindless
p2895
g11
tp2896
a(Vgames
p2897
g47
tp2898
aa(lp2899
g2898
a(Vsuch
p2900
g11
tp2901
aa(lp2902
(Vangry
p2903
g11
tp2904
a(Vbirds
p2905
g47
tp2906
aa(lp2907
(Vso
p2908
g4
tp2909
a(Vdifferent
p2910
g11
tp2911
aa(lp2912
(Vso
p2913
g4
tp2914
a(Vaddicted
p2915
g63
tp2916
aasI517
(lp2917
(lp2918
(Vtoo
p2919
g4
tp2920
a(Vmany
p2921
g11
tp2922
aa(lp2923
g2922
a(Vtimes
p2924
g47
tp2925
aa(lp2926
(VAlso
p2927
g4
tp2928
a(Vhome
p2929
g156
tp2930
aa(lp2931
(Vn't
p2932
g4
tp2933
a(Vfit
p2934
g7
tp2935
aa(lp2936
(Vactual
p2937
g11
tp2938
a(Vscreen
p2939
g14
tp2940
aasI518
(lp2941
(lp2942
(Vn't
p2943
g4
tp2944
a(Vrate
p2945
g7
tp2946
aasI519
(lp2947
(lp2948
(VBrilliant
p2949
g11
tp2950
a(Vgame
p2951
g14
tp2952
aa(lp2953
(Vvery
p2954
g4
tp2955
a(Vaddictive
p2956
g11
tp2957
aa(lp2958
(Vgame
p2959
g14
tp2960
a(Vflat
p2961
g11
tp2962
aa(lp2963
(Vpast
p2964
g11
tp2965
a(Vhour
p2966
g14
tp2967
aasI520
(lp2968
(lp2969
(Vnot
p2970
g4
tp2971
a(Vok
p2972
g7
tp2973
aa(lp2974
(Vconstant
p2975
g11
tp2976
a(Vgegging
p2977
g14
tp2978
aa(lp2979
(Vother
p2980
g11
tp2981
a(Vapps
p2982
g47
tp2983
aa(lp2984
(Vreally
p2985
g4
tp2986
a(Vannoying
p2987
g128
tp2988
aasI521
(lp2989
(lp2990
(Vbetween..after
p2991
g11
tp2992
a(Vrunning
p2993
g14
tp2994
aasI522
(lp2995
(lp2996
(Vjust
p2997
g4
tp2998
a(Vgot
p2999
g156
tp3000
aa(lp3001
(Vn't
p3002
g4
tp3003
a(Vstop
p3004
g7
tp3005
aasI523
(lp3006
(lp3007
(Vrecently
p3008
g4
tp3009
a(Vupdated
p3010
g63
tp3011
aa(lp3012
(Vnot
p3013
g4
tp3014
a(Vgoing
p3015
g128
tp3016
aasI524
(lp3017
(lp3018
(Vsimple
p3019
g11
tp3020
a(Vgame
p3021
g14
tp3022
aa(lp3023
(Vso
p3024
g4
tp3025
a(Vrare
p3026
g11
tp3027
aa(lp3028
(Vfree
p3029
g11
tp3030
a(Vgame
p3031
g14
tp3032
aa(lp3033
(Vintrusive
p3034
g11
tp3035
a(Vads
p3036
g47
tp3037
aasI525
(lp3038
(lp3039
(VToo
p3040
g4
tp3041
a(Vbad
p3042
g11
tp3043
aa(lp3044
(Vgreat
p3045
g11
tp3046
a(Vgame
p3047
g14
tp3048
aasI526
(lp3049
(lp3050
(Vso
p3051
g4
tp3052
a(VAddictive
p3053
g11
tp3054
aa(lp3055
(Vnot
p3056
g4
tp3057
a(Vget
p3058
g7
tp3059
aasI527
(lp3060
(lp3061
(Vn't
p3062
g4
tp3063
a(Vlose
p3064
g7
tp3065
aasI528
(lp3066
(lp3067
(Veven
p3068
g4
tp3069
a(Vcount
p3070
g7
tp3071
aa(lp3072
(Vnever
p3073
g4
tp3074
a(Vhappened
p3075
g63
tp3076
aa(lp3077
(Vn
p3078
g11
tp3079
a(Vu
p3080
g14
tp3081
aasI529
(lp3082
(lp3083
(Vhard
p3084
g11
tp3085
a(Vreset
p3086
g14
tp3087
aa(lp3088
(Vsomething
p3089
g14
tp3090
a(Vother
p3091
g11
tp3092
aa(lp3093
(Vjungle
p3094
g11
tp3095
a(Vbridges
p3096
g47
tp3097
aasI530
(lp3098
(lp3099
(Vcertain
p3100
g11
tp3101
a(Vstage
p3102
g14
tp3103
aa(lp3104
(Vsuch
p3105
g11
tp3106
a(Vspeeds
p3107
g47
tp3108
aa(lp3109
(Vspecial
p3110
g11
tp3111
a(Vpowers
p3112
g47
tp3113
aasI531
(lp3114
(lp3115
(Vstop
p3116
g11
tp3117
a(Vplaying
p3118
g14
tp3119
aa(lp3120
(Vonly
p3121
g11
tp3122
a(Vproble
p3123
g11
tp3124
aa(lp3125
(Vown
p3126
g11
tp3127
a(Vplz
p3128
g14
tp3129
aasI532
(lp3130
(lp3131
(Vgraphically
p3132
g4
tp3133
a(Vamazing.but
p3134
g11
tp3135
aasI533
(lp3136
sI534
(lp3137
(lp3138
(Vgreat
p3139
g11
tp3140
a(Vgame
p3141
g14
tp3142
aa(lp3143
(Vgreat
p3144
g11
tp3145
a(Vjob
p3146
g14
tp3147
aasI535
(lp3148
sI536
(lp3149
(lp3150
(Vbrilliant
p3151
g11
tp3152
a(Vgame
p3153
g14
tp3154
aa(lp3155
(Vn't
p3156
g4
tp3157
a(Vplay
p3158
g7
tp3159
aasI537
(lp3160
(lp3161
(Vgreat
p3162
g11
tp3163
a(Vgreat
p3164
g11
tp3165
aa(lp3166
g3165
a(Vgreat
p3167
g11
tp3168
aa(lp3169
g3168
a(Vlil
p3170
g14
tp3171
aasI538
(lp3172
(lp3173
(Vn't
p3174
g4
tp3175
a(Vdiminish
p3176
g7
tp3177
aa(lp3178
(Vgood
p3179
g11
tp3180
a(Vfun
p3181
g14
tp3182
aasI539
(lp3183
(lp3184
(Vlittle
p3185
g4
tp3186
a(Vslow
p3187
g11
tp3188
aasI540
(lp3189
sI541
(lp3190
(lp3191
(Vmost
p3192
g191
tp3193
a(Vawesome
p3194
g11
tp3195
aa(lp3196
g3195
a(Vgames
p3197
g47
tp3198
aa(lp3199
(Vever
p3200
g4
tp3201
a(Vplayed
p3202
g63
tp3203
aasI542
(lp3204
(lp3205
(Vamusing
p3206
g11
tp3207
a(Vwaste
p3208
g14
tp3209
aa(lp3210
(Vgood
p3211
g11
tp3212
a(Vway
p3213
g14
tp3214
aasI543
(lp3215
(lp3216
(Vgood
p3217
g11
tp3218
a(Vquality
p3219
g14
tp3220
aasI544
(lp3221
(lp3222
(Vreally
p3223
g4
tp3224
a(Vslow
p3225
g11
tp3226
aasI545
(lp3227
sI546
(lp3228
(lp3229
(VReally
p3230
g4
tp3231
a(Vgood
p3232
g11
tp3233
aa(lp3234
g3233
a(Vgame
p3235
g14
tp3236
aa(lp3237
(Vother
p3238
g11
tp3239
a(Vgames
p3240
g47
tp3241
aasI547
(lp3242
(lp3243
(Vjust
p3244
g4
tp3245
a(Vgot
p3246
g156
tp3247
aa(lp3248
(Vnew
p3249
g11
tp3250
a(Vupdate
p3251
g14
tp3252
aa(lp3253
(Vnever
p3254
g4
tp3255
a(Vlagged
p3256
g63
tp3257
aa(lp3258
(Vnew
p3259
g11
tp3260
a(Vgames
p3261
g47
tp3262
aa(lp3263
(Vn't
p3264
g4
tp3265
a(Vwant
p3266
g7
tp3267
aasI548
(lp3268
(lp3269
(Vvery
p3270
g4
tp3271
a(Vnifty
p3272
g11
tp3273
aa(lp3274
g3273
a(Vlittle
p3275
g11
tp3276
aa(lp3277
g3276
a(Vtime
p3278
g14
tp3279
aa(lp3280
(Vquick
p3281
g11
tp3282
a(Vgame
p3283
g14
tp3284
aasI549
(lp3285
sI550
(lp3286
sI551
(lp3287
sI552
(lp3288
sI553
(lp3289
sI554
(lp3290
(lp3291
(Vlive
p3292
g11
tp3293
a(Vwater
p3294
g14
tp3295
aasI555
(lp3296
sI556
(lp3297
(lp3298
(Vso
p3299
g4
tp3300
a(Veasy
p3301
g11
tp3302
aasI557
(lp3303
(lp3304
(Vvery
p3305
g4
tp3306
a(Vfun
p3307
g63
tp3308
aasI558
(lp3309
sI559
(lp3310
(lp3311
(Vn't
p3312
g4
tp3313
a(Vknow
p3314
g7
tp3315
aa(lp3316
(Vother
p3317
g11
tp3318
a(Vhalf
p3319
g14
tp3320
aasI560
(lp3321
sI561
(lp3322
(lp3323
(Vnew
p3324
g11
tp3325
a(Vupdate
p3326
g14
tp3327
aa(lp3328
(Vaccidentally
p3329
g4
tp3330
a(Vbuying
p3331
g128
tp3332
aasI562
(lp3333
(lp3334
(Vreally
p3335
g4
tp3336
a(Vfun
p3337
g63
tp3338
aasI563
(lp3339
(lp3340
(Vnot
p3341
g4
tp3342
a(Vwrong
p3343
g11
tp3344
aasI564
(lp3345
sI565
(lp3346
(lp3347
(Vslightly
p3348
g4
tp3349
a(Vunresponsive
p3350
g11
tp3351
aasI566
(lp3352
(lp3353
(VOverall
p3354
g11
tp3355
a(Venjoy
p3356
g14
tp3357
aa(lp3358
(Vmultiple
p3359
g11
tp3360
a(Vlevels
p3361
g47
tp3362
aa(lp3363
(Vexcess
p3364
g11
tp3365
a(Vtime
p3366
g14
tp3367
aasI567
(lp3368
(lp3369
(Valso
p3370
g4
tp3371
a(Vloved
p3372
g63
tp3373
aa(lp3374
(Vnot
p3375
g4
tp3376
a(Vdisappointed
p3377
g63
tp3378
aa(lp3379
(Vstill
p3380
g4
tp3381
a(Vgreat
p3382
g11
tp3383
aasI568
(lp3384
(lp3385
(Vfun
p3386
g14
tp3387
a(Vaddictive
p3388
g11
tp3389
aa(lp3390
(Vonly
p3391
g11
tp3392
a(Vdowner
p3393
g14
tp3394
aa(lp3395
(Vn't
p3396
g4
tp3397
a(Vwanted
p3398
g63
tp3399
aasI569
(lp3400
(lp3401
(Vvery
p3402
g4
tp3403
a(Vgood
p3404
g11
tp3405
aa(lp3406
(Vfirst
p3407
g11
tp3408
a(Vtime
p3409
g14
tp3410
aa(lp3411
(Voften
p3412
g4
tp3413
a(Vcausing
p3414
g128
tp3415
aa(lp3416
(Vjust
p3417
g4
tp3418
a(Vbe
p3419
g7
tp3420
aa(lp3421
(Vnext
p3422
g11
tp3423
a(Vobjective
p3424
g14
tp3425
aasI570
(lp3426
(lp3427
(Vgreat
p3428
g11
tp3429
a(Vgame
p3430
g14
tp3431
aasI571
(lp3432
(lp3433
(Vvery
p3434
g4
tp3435
a(Vchallenging
p3436
g128
tp3437
aa(lp3438
(VLast
p3439
g11
tp3440
a(Vfew
p3441
g11
tp3442
aa(lp3443
g3442
a(Vupdates
p3444
g47
tp3445
aa(lp3446
(Vn't
p3447
g4
tp3448
a(Vthink
p3449
g7
tp3450
aa(lp3451
(Vgraphical
p3452
g11
tp3453
a(Vgame
p3454
g14
tp3455
aasI572
(lp3456
(lp3457
(Vsmall
p3458
g11
tp3459
a(Vissue
p3460
g14
tp3461
aa(lp3462
(Vactually
p3463
g4
tp3464
a(Vwant
p3465
g7
tp3466
aa(lp3467
(Vdouble
p3468
g11
tp3469
a(Vtap
p3470
g14
tp3471
aa(lp3472
(Voverly
p3473
g4
tp3474
a(Vsensitive
p3475
g11
tp3476
aa(lp3477
(Vgreat
p3478
g11
tp3479
a(Vway
p3480
g14
tp3481
aasI573
(lp3482
(lp3483
(VAddictive
p3484
g11
tp3485
a(Vfun
p3486
g14
tp3487
aasI574
(lp3488
(lp3489
(Valways
p3490
g4
tp3491
a(Vloved
p3492
g156
tp3493
aa(lp3494
(Vonly
p3495
g11
tp3496
a(Vreason
p3497
g14
tp3498
aa(lp3499
(Vlittle
p3500
g11
tp3501
a(Vjumpy
p3502
g14
tp3503
aasI575
(lp3504
(lp3505
(Vpowerful
p3506
g11
tp3507
a(Vphone
p3508
g14
tp3509
aasI576
(lp3510
(lp3511
(V.i
p3512
g11
tp3513
a(Vcant
p3514
g14
tp3515
aa(lp3516
(Vvery
p3517
g4
tp3518
a(Vaddictive
p3519
g11
tp3520
aa(lp3521
g3520
a(Vgive
p3522
g11
tp3523
aasI577
(lp3524
(lp3525
(Vjust
p3526
g4
tp3527
a(Vrunning
p3528
g128
tp3529
aa(lp3530
(Vlong
p3531
g11
tp3532
a(Vride
p3533
g14
tp3534
aa(lp3535
(Vjust
p3536
g4
tp3537
a(Vsitting
p3538
g128
tp3539
aa(lp3540
(Vtime
p3541
g14
tp3542
a(Vuseful
p3543
g11
tp3544
aa(lp3545
(Vgreat
p3546
g11
tp3547
a(Vgame
p3548
g14
tp3549
aasI578
(lp3550
(lp3551
(Vwhole
p3552
g11
tp3553
a(Vgame
p3554
g14
tp3555
aa(lp3556
(Vbig
p3557
g11
tp3558
a(Vbother
p3559
g14
tp3560
aa(lp3561
(Vgreat
p3562
g11
tp3563
a(Vgame
p3564
g14
tp3565
aasI579
(lp3566
sI580
(lp3567
(lp3568
(Vmost
p3569
g191
tp3570
a(Vfun
p3571
g11
tp3572
aa(lp3573
g3572
a(Vgame
p3574
g14
tp3575
aa(lp3576
(Vever
p3577
g4
tp3578
a(Vplayed
p3579
g63
tp3580
aasI581
(lp3581
(lp3582
(VAlways
p3583
g4
tp3584
a(Vtrying
p3585
g128
tp3586
aasI582
(lp3587
(lp3588
(Vlittle
p3589
g11
tp3590
a(Vbug
p3591
g14
tp3592
aa(lp3593
(Vrocky
p3594
g11
tp3595
a(Vpath
p3596
g14
tp3597
aa(lp3598
(Vnot
p3599
g4
tp3600
a(Vtake
p3601
g7
tp3602
aasI583
(lp3603
(lp3604
(Vmany
p3605
g11
tp3606
a(Vtimes
p3607
g47
tp3608
aa(lp3609
(Vgood
p3610
g11
tp3611
a(Vgame
p3612
g14
tp3613
aasI584
(lp3614
(lp3615
(Vgood
p3616
g11
tp3617
a(Vgame
p3618
g14
tp3619
aasI585
(lp3620
sI586
(lp3621
(lp3622
(Vnot
p3623
g4
tp3624
a(Vreal
p3625
g11
tp3626
aa(lp3627
g3626
a(Veasy
p3628
g11
tp3629
aasI587
(lp3630
(lp3631
(Vjust
p3632
g4
tp3633
a(Vcant
p3634
g11
tp3635
aa(lp3636
g3635
a(Vstop
p3637
g14
tp3638
aasI588
(lp3639
(lp3640
(Vbrand
p3641
g14
tp3642
a(Vnew
p3643
g11
tp3644
aa(lp3645
(Vn't
p3646
g4
tp3647
a(Vfreeze
p3648
g7
tp3649
aa(lp3650
(Vcertainly
p3651
g4
tp3652
a(Vnecessary
p3653
g11
tp3654
aasI589
(lp3655
(lp3656
(Vreally
p3657
g4
tp3658
a(Vfun
p3659
g11
tp3660
aa(lp3661
(Vworks
p3662
g47
tp3663
a(Vgreat
p3664
g11
tp3665
aasI590
(lp3666
(lp3667
(Vbasic
p3668
g11
tp3669
a(Vgame
p3670
g14
tp3671
aa(lp3672
(Vgreat
p3673
g11
tp3674
a(Vtime
p3675
g14
tp3676
aa(lp3677
(Vlong
p3678
g11
tp3679
a(Vbus
p3680
g14
tp3681
aasI591
(lp3682
(lp3683
(Vthen
p3684
g4
tp3685
a(Vput
p3686
g63
tp3687
aasI592
(lp3688
(lp3689
(Vonly
p3690
g4
tp3691
a(Vcomplaint
p3692
g11
tp3693
aa(lp3694
(Vso
p3695
g4
tp3696
a(Vgood
p3697
g11
tp3698
aa(lp3699
g3698
a(Vother
p3700
g11
tp3701
aasI593
(lp3702
(lp3703
(Vonly
p3704
g11
tp3705
a(Vthing
p3706
g14
tp3707
aasI594
(lp3708
(lp3709
(V.also
p3710
g4
tp3711
a(Vhaving
p3712
g128
tp3713
aasI595
(lp3714
(lp3715
(Vmotive
p3716
g11
tp3717
a(Vskill
p3718
g14
tp3719
aa(lp3720
(Vnot
p3721
g4
tp3722
a(Vforget
p3723
g7
tp3724
aa(lp3725
(Vbig
p3726
g11
tp3727
a(Vscreen
p3728
g14
tp3729
aasI596
(lp3730
(lp3731
(Vreally
p3732
g4
tp3733
a(Vgood
p3734
g11
tp3735
aa(lp3736
g3735
a(Vgfx
p3737
g14
tp3738
aasI597
(lp3739
(lp3740
(Vreally
p3741
g4
tp3742
a(Vlove
p3743
g7
tp3744
aa(lp3745
(Vsoo
p3746
g14
tp3747
a(Vaddictive
p3748
g11
tp3749
aa(lp3750
(Vn't
p3751
g4
tp3752
a(Vrespond
p3753
g7
tp3754
aasI598
(lp3755
(lp3756
(Vn't
p3757
g4
tp3758
a(Vlag
p3759
g7
tp3760
aa(lp3761
(Vn't
p3762
g4
tp3763
a(Vexperienced
p3764
g63
tp3765
aasI599
(lp3766
(lp3767
(Vn't
p3768
g4
tp3769
a(Vclose
p3770
g7
tp3771
aa(lp3772
(Vnever
p3773
g4
tp3774
a(Vcontacted
p3775
g63
tp3776
aa(lp3777
(VBad
p3778
g11
tp3779
a(Vcustomer
p3780
g14
tp3781
aa(lp3782
(Vn't
p3783
g4
tp3784
a(Vknow
p3785
g7
tp3786
aa(lp3787
(Vn't
p3788
g4
tp3789
a(Vdeserve
p3790
g7
tp3791
aasI600
(lp3792
(lp3793
(Vso
p3794
g4
tp3795
a(Vexcited
p3796
g63
tp3797
aa(lp3798
(Vso
p3799
g4
tp3800
a(Vbad
p3801
g11
tp3802
aa(lp3803
(Vhardly
p3804
g4
tp3805
a(Vplay
p3806
g7
tp3807
aasI601
(lp3808
(lp3809
(Vbrilliant
p3810
g11
tp3811
a(Vtime
p3812
g14
tp3813
aasI602
(lp3814
sI603
(lp3815
(lp3816
(Voccasional
p3817
g11
tp3818
a(Vlag
p3819
g14
tp3820
aa(lp3821
(Vn't
p3822
g4
tp3823
a(Vcomplain
p3824
g7
tp3825
aasI604
(lp3826
sI605
(lp3827
(lp3828
(Vfew
p3829
g11
tp3830
a(Vlife
p3831
g14
tp3832
aa(lp3833
(Vnot
p3834
g4
tp3835
a(Vwork
p3836
g7
tp3837
aasI606
(lp3838
(lp3839
(Vvery
p3840
g4
tp3841
a(Vaddictive
p3842
g11
tp3843
aa(lp3844
g3843
a(Vgame
p3845
g14
tp3846
aa(lp3847
(Vn't
p3848
g4
tp3849
a(Vwait
p3850
g7
tp3851
aasI607
(lp3852
(lp3853
(Vnot
p3854
g4
tp3855
a(Vable
p3856
g11
tp3857
aasI608
(lp3858
(lp3859
(Vother
p3860
g11
tp3861
a(Vgood
p3862
g11
tp3863
aa(lp3864
g3863
a(Vstuff
p3865
g14
tp3866
aa(lp3867
(Vfish
p3868
g11
tp3869
a(Vgets
p3870
g47
tp3871
aasI609
(lp3872
(lp3873
(VHighly
p3874
g4
tp3875
a(Vaddictive
p3876
g11
tp3877
aa(lp3878
g3877
a(Vgame
p3879
g14
tp3880
aa(lp3881
(Ventire
p3882
g11
tp3883
a(Vfamily
p3884
g14
tp3885
aa(lp3886
(Vold
p3887
g11
tp3888
a(V)
p3889
g14
tp3890
aasI610
(lp3891
(lp3892
(Vpretty
p3893
g4
tp3894
a(Vgood
p3895
g11
tp3896
aa(lp3897
(VPretty
p3898
g4
tp3899
a(Vgood
p3900
g11
tp3901
aasI611
(lp3902
sI612
(lp3903
(lp3904
(Vso
p3905
g4
tp3906
a(Vfun
p3907
g63
tp3908
aasI613
(lp3909
(lp3910
(Vn't
p3911
g4
tp3912
a(Vregister
p3913
g7
tp3914
aasI614
(lp3915
(lp3916
(Vgreat
p3917
g11
tp3918
a(Vapp
p3919
g14
tp3920
aa(lp3921
(Vgreat
p3922
g11
tp3923
a(Vtime
p3924
g14
tp3925
aasI615
(lp3926
(lp3927
(Vjust
p3928
g4
tp3929
a(Vwish
p3930
g11
tp3931
aa(lp3932
(VPOINTS
p3933
g47
tp3934
a(V2Day
p3935
g11
tp3936
aasI616
(lp3937
(lp3938
(Vthen
p3939
g4
tp3940
a(Vplay
p3941
g7
tp3942
aa(lp3943
(Vfar
p3944
g11
tp3945
a(g3080
g14
tp3946
aasI617
(lp3947
(lp3948
(Vgreat
p3949
g11
tp3950
a(Vgame
p3951
g14
tp3952
aa(lp3953
(Vseveral
p3954
g11
tp3955
a(Vupdates
p3956
g47
tp3957
aa(lp3958
(Vonly
p3959
g11
tp3960
a(Vsolution
p3961
g14
tp3962
aasI618
(lp3963
(lp3964
(Vjust
p3965
g4
tp3966
a(Vget
p3967
g7
tp3968
aa(lp3969
(Veven
p3970
g4
tp3971
a(Vmade
p3972
g63
tp3973
aasI619
(lp3974
(lp3975
(Vnever
p3976
g4
tp3977
a(Vbeen
p3978
g63
tp3979
aa(lp3980
(Vfree
p3981
g11
tp3982
a(Vcoin
p3983
g14
tp3984
aa(lp3985
(Vnever
p3986
g4
tp3987
a(Vworked
p3988
g63
tp3989
aasI620
(lp3990
(lp3991
(VNot
p3992
g4
tp3993
a(Vsure
p3994
g11
tp3995
aa(lp3996
(Vreal
p3997
g11
tp3998
a(Vreason
p3999
g14
tp4000
aa(lp4001
(Veven
p4002
g4
tp4003
a(Vclosed
p4004
g63
tp4005
aa(lp4006
(Vagain
p4007
g4
tp4008
a(Vtested
p4009
g63
tp4010
aasI621
(lp4011
(lp4012
(Vn't
p4013
g4
tp4014
a(Vget
p4015
g7
tp4016
aa(lp4017
(Vmany
p4018
g11
tp4019
a(Vphone
p4020
g14
tp4021
aasI622
(lp4022
sI623
(lp4023
(lp4024
(Vso
p4025
g4
tp4026
a(Vaddicting
p4027
g128
tp4028
aa(lp4029
(Vever
p4030
g4
tp4031
a(Vplayed
p4032
g63
tp4033
aasI624
(lp4034
(lp4035
(Valways
p4036
g4
tp4037
a(Vsensitive
p4038
g11
tp4039
aasI625
(lp4040
sI626
(lp4041
(lp4042
(Vn't
p4043
g4
tp4044
a(Vlet
p4045
g7
tp4046
aasI627
(lp4047
sI628
(lp4048
(lp4049
(Vonly
p4050
g11
tp4051
a(Vproblem
p4052
g14
tp4053
aa(lp4054
(VAlso
p4055
g4
tp4056
a(Vforce
p4057
g7
tp4058
aa(lp4059
(Vn't
p4060
g4
tp4061
a(Vpick
p4062
g7
tp4063
aa(lp4064
(Vjust
p4065
g4
tp4066
a(Vbe
p4067
g7
tp4068
aasI629
(lp4069
(lp4070
(Vsimple
p4071
g11
tp4072
a(Vgame
p4073
g14
tp4074
aasI630
(lp4075
(lp4076
(Venergetic
p4077
g11
tp4078
a(Vjumps
p4079
g47
tp4080
aasI631
(lp4081
(lp4082
(Vfirst
p4083
g11
tp4084
a(Vdrove
p4085
g14
tp4086
aa(lp4087
(Vso
p4088
g4
tp4089
a(Vfun
p4090
g63
tp4091
aasI632
(lp4092
sI633
(lp4093
sI634
(lp4094
(lp4095
(Vfirst
p4096
g4
tp4097
a(Vinstalled
p4098
g156
tp4099
aa(lp4100
(Vbig
p4101
g11
tp4102
a(Vscreen
p4103
g14
tp4104
aasI635
(lp4105
sI636
(lp4106
(lp4107
(Vlittle
p4108
g11
tp4109
a(Vglitchy
p4110
g14
tp4111
aasI637
(lp4112
sI638
(lp4113
(lp4114
(Veven
p4115
g4
tp4116
a(Vget
p4117
g7
tp4118
aa(lp4119
(Vnormally
p4120
g4
tp4121
a(Vget
p4122
g7
tp4123
aa(lp4124
(Vsingle
p4125
g11
tp4126
a(Vcore
p4127
g14
tp4128
aa(lp4129
(Vsingle
p4130
g11
tp4131
a(Vcore
p4132
g14
tp4133
aa(lp4134
(Vother
p4135
g11
tp4136
a(Vbugs
p4137
g47
tp4138
aasI639
(lp4139
(lp4140
(Vlast
p4141
g11
tp4142
a(Vmultipler
p4143
g14
tp4144
aa(lp4145
(Vsmall
p4146
g11
tp4147
a(Vnote
p4148
g14
tp4149
aa(lp4150
(Vregular
p4151
g11
tp4152
a(Vboost
p4153
g14
tp4154
aa(lp4155
(Vgreat
p4156
g11
tp4157
a(Vjob
p4158
g14
tp4159
aa(lp4160
(Vso
p4161
g4
tp4162
a(Vaddicting
p4163
g128
tp4164
aa(lp4165
(Vnext
p4166
g11
tp4167
a(Vupdate
p4168
g14
tp4169
aa(lp4170
(Vnew
p4171
g11
tp4172
a(Vobjectives
p4173
g47
tp4174
aa(lp4175
(Vnew
p4176
g11
tp4177
a(Vtools
p4178
g47
tp4179
aasI640
(lp4180
(lp4181
(Vvery
p4182
g4
tp4183
a(Vteasing
p4184
g128
tp4185
aasI641
(lp4186
(lp4187
(Vn't
p4188
g4
tp4189
a(Vdownload
p4190
g7
tp4191
aa(lp4192
(Vonly
p4193
g4
tp4194
a(Vbegan
p4195
g156
tp4196
aa(lp4197
(Vnew
p4198
g11
tp4199
a(Vupdate
p4200
g14
tp4201
aasI642
(lp4202
(lp4203
(Vvery
p4204
g4
tp4205
a(Vsimple
p4206
g11
tp4207
aa(lp4208
g4207
a(Vgame
p4209
g14
tp4210
aa(lp4211
(Vnever
p4212
g4
tp4213
a(Vget
p4214
g7
tp4215
aa(lp4216
(Vconstant
p4217
g11
tp4218
a(Vconcentration
p4219
g14
tp4220
aa(lp4221
(Vwhilst
p4222
g11
tp4223
a(Vwatching
p4224
g14
tp4225
aa(lp4226
(VFantastic
p4227
g11
tp4228
a(Vfun
p4229
g14
tp4230
aasI643
(lp4231
(lp4232
(VEven
p4233
g4
tp4234
a(Vcoke
p4235
g156
tp4236
aasI644
(lp4237
(lp4238
(Vmanually
p4239
g4
tp4240
a(Vreset
p4241
g7
tp4242
aasI645
(lp4243
(lp4244
(Vnot
p4245
g4
tp4246
a(Vfix
p4247
g7
tp4248
aa(lp4249
(Vwhole
p4250
g11
tp4251
a(Vscreen
p4252
g14
tp4253
aa(lp4254
(Vso
p4255
g4
tp4256
a(Virritating
p4257
g128
tp4258
aasI646
(lp4259
(lp4260
(Vvery
p4261
g4
tp4262
a(Vnice
p4263
g11
tp4264
aa(lp4265
(Vonly
p4266
g4
tp4267
a(Vgiving
p4268
g128
tp4269
aasI647
(lp4270
(lp4271
(Vnot
p4272
g4
tp4273
a(Vfind
p4274
g7
tp4275
aasI648
(lp4276
(lp4277
(Vlong
p4278
g11
tp4279
a(Vtraffic
p4280
g14
tp4281
aasI649
(lp4282
(lp4283
(Vawesome
p4284
g4
tp4285
a(Vgood
p4286
g11
tp4287
aa(lp4288
g4287
a(Vgame
p4289
g14
tp4290
aasI650
(lp4291
(lp4292
(Vreally
p4293
g4
tp4294
a(Vbad
p4295
g11
tp4296
aa(lp4297
(Vcompletely
p4298
g4
tp4299
a(Vblack
p4300
g11
tp4301
aasI651
(lp4302
(lp4303
(Vgreat
p4304
g11
tp4305
a(Vapplication~
p4306
g14
tp4307
aasI652
(lp4308
(lp4309
(Vlittle
p4310
g11
tp4311
a(Vsister
p4312
g14
tp4313
aa(lp4314
(Vyears
p4315
g47
tp4316
a(Vold
p4317
g11
tp4318
aa(lp4319
g4318
a(Vscored
p4320
g11
tp4321
aasI653
(lp4322
(lp4323
(VReally
p4324
g4
tp4325
a(Vaddictive
p4326
g11
tp4327
aa(lp4328
(Vonly
p4329
g4
tp4330
a(Vtap
p4331
g7
tp4332
aa(lp4333
(Veven
p4334
g4
tp4335
a(Vtouch
p4336
g11
tp4337
aasI654
(lp4338
(lp4339
(Vextremely
p4340
g4
tp4341
a(Vaddicting
p4342
g128
tp4343
aa(lp4344
(Vother
p4345
g11
tp4346
a(Vcommand
p4347
g14
tp4348
aasI655
(lp4349
sI656
(lp4350
(lp4351
(Vaddictive
p4352
g11
tp4353
a(Vgame
p4354
g14
tp4355
aasI657
(lp4356
(lp4357
(Vgood
p4358
g11
tp4359
a(Vmanner
p4360
g14
tp4361
aasI658
(lp4362
(lp4363
(Vn't
p4364
g4
tp4365
a(Vknow
p4366
g7
tp4367
aasI659
(lp4368
sI660
(lp4369
(lp4370
(Vreal
p4371
g11
tp4372
a(Vglitchy
p4373
g14
tp4374
aa(lp4375
(Vn't
p4376
g4
tp4377
a(Vbe
p4378
g7
tp4379
aa(lp4380
(Vreal
p4381
g11
tp4382
a(Vfun
p4383
g14
tp4384
aasI661
(lp4385
(lp4386
(Vvery
p4387
g4
tp4388
a(Vfast
p4389
g11
tp4390
aasI662
(lp4391
(lp4392
(Vfirst
p4393
g11
tp4394
a(Vtime
p4395
g14
tp4396
aa(lp4397
(Vn't
p4398
g4
tp4399
a(Vstop
p4400
g7
tp4401
aa(lp4402
(Vso
p4403
g4
tp4404
a(Vadicting
p4405
g128
tp4406
aasI663
(lp4407
(lp4408
(Vtemple
p4409
g11
tp4410
a(Vrun
p4411
g14
tp4412
aasI664
(lp4413
(lp4414
(Vnot
p4415
g4
tp4416
a(Vunderstand
p4417
g7
tp4418
aasI665
(lp4419
(lp4420
(VSometimes
p4421
g4
tp4422
a(Vunresponsive
p4423
g11
tp4424
aasI666
(lp4425
(lp4426
(V.it
p4427
g11
tp4428
a(Vslows
p4429
g47
tp4430
aasI667
(lp4431
(lp4432
(Vnumerous
p4433
g11
tp4434
a(Vboring
p4435
g14
tp4436
aasI668
(lp4437
(lp4438
(Vonly
p4439
g11
tp4440
a(Vproblem
p4441
g14
tp4442
aasI669
(lp4443
sI670
(lp4444
(lp4445
(Vreally
p4446
g4
tp4447
a(Vfun
p4448
g63
tp4449
aa(lp4450
(Vn't
p4451
g4
tp4452
a(Vstop
p4453
g7
tp4454
aasI671
(lp4455
(lp4456
(Vcompletely
p4457
g4
tp4458
a(Vfeet
p4459
g11
tp4460
aasI672
(lp4461
(lp4462
(Vfavorite
p4463
g11
tp4464
a(Vfeatures
p4465
g47
tp4466
aa(lp4467
(Vdifferent
p4468
g11
tp4469
a(Vquotes
p4470
g47
tp4471
aa(lp4472
(Vsometimes
p4473
g4
tp4474
a(Vmiss
p4475
g7
tp4476
aa(lp4477
(Vgreat
p4478
g11
tp4479
a(Vgame
p4480
g14
tp4481
aa(lp4482
g4481
a(Voverall
p4483
g11
tp4484
aasI673
(lp4485
sI674
(lp4486
(lp4487
(Vmajor
p4488
g11
tp4489
a(Vrevamp
p4490
g14
tp4491
aasI675
(lp4492
(lp4493
(Vreally
p4494
g4
tp4495
a(Vplay
p4496
g7
tp4497
aa(lp4498
(Vgood
p4499
g11
tp4500
a(Vgame
p4501
g14
tp4502
aasI676
(lp4503
(lp4504
(Vso
p4505
g4
tp4506
a(Vsmooth
p4507
g11
tp4508
aa(lp4509
(Vtoo
p4510
g4
tp4511
a(Vlaggy
p4512
g11
tp4513
aa(lp4514
(Vhigh
p4515
g11
tp4516
a(Vends
p4517
g47
tp4518
aasI677
(lp4519
(lp4520
(VFantastic
p4521
g11
tp4522
a(Vgame
p4523
g14
tp4524
aa(lp4525
(Vabsolutely
p4526
g4
tp4527
a(Vaddictive
p4528
g11
tp4529
aa(lp4530
(Vsimply
p4531
g4
tp4532
a(Vget
p4533
g7
tp4534
aa(lp4535
(VNever
p4536
g4
tp4537
a(Vloved
p4538
g156
tp4539
aasI678
(lp4540
(lp4541
(Vlittle
p4542
g4
tp4543
a(Vslow
p4544
g11
tp4545
aasI679
(lp4546
(lp4547
(Vpretty
p4548
g4
tp4549
a(Vfun
p4550
g11
tp4551
aa(lp4552
(Vpretty
p4553
g4
tp4554
a(Vhuge
p4555
g11
tp4556
aa(lp4557
g4556
a(Vbummer
p4558
g14
tp4559
aa(lp4560
(Vn't
p4561
g4
tp4562
a(Vjump
p4563
g7
tp4564
aa(lp4565
(Vn't
p4566
g4
tp4567
a(Vhave
p4568
g7
tp4569
aa(lp4570
(Vvery
p4571
g4
tp4572
a(Vbeginning
p4573
g128
tp4574
aasI680
(lp4575
(lp4576
(Vever
p4577
g4
tp4578
a(Vplayed
p4579
g63
tp4580
aa(lp4581
(Vonly
p4582
g11
tp4583
a(Vproblem
p4584
g14
tp4585
aa(lp4586
(Vbig
p4587
g11
tp4588
a(Vpoints
p4589
g47
tp4590
aasI681
(lp4591
(lp4592
(Vn't
p4593
g4
tp4594
a(Vget
p4595
g7
tp4596
aa(lp4597
(VNever
p4598
g4
tp4599
a(Vending
p4600
g128
tp4601
aa(lp4602
(Vso
p4603
g4
tp4604
a(Vmany
p4605
g11
tp4606
aa(lp4607
g4606
a(Vlevels
p4608
g47
tp4609
aasI682
(lp4610
(lp4611
(Vandroid
p4612
g11
tp4613
a(Vphone
p4614
g14
tp4615
aasI683
(lp4616
(lp4617
(Vmany
p4618
g11
tp4619
a(Vtimes
p4620
g47
tp4621
aa(lp4622
(Vfew
p4623
g11
tp4624
a(Vsteps
p4625
g47
tp4626
aa(lp4627
(Vn't
p4628
g4
tp4629
a(Vknow
p4630
g7
tp4631
aasI684
(lp4632
(lp4633
(Vmuch
p4634
g4
tp4635
a(Vfun
p4636
g63
tp4637
aa(lp4638
(Vnot
p4639
g4
tp4640
a(Vregister
p4641
g7
tp4642
aa(lp4643
(Vgreat
p4644
g11
tp4645
a(Vfun
p4646
g14
tp4647
aasI685
(lp4648
(lp4649
(Vthen
p4650
g4
tp4651
a(Vdeleted
p4652
g156
tp4653
aa(lp4654
(Vnow
p4655
g4
tp4656
a(Vgone
p4657
g63
tp4658
aasI686
(lp4659
(lp4660
(Vever
p4661
g4
tp4662
a(Vhad
p4663
g156
tp4664
aa(lp4665
(Vnever
p4666
g4
tp4667
a(Vhave
p4668
g7
tp4669
aasI687
(lp4670
(lp4671
(Vsoooo
p4672
g4
tp4673
a(Vaddicted
p4674
g63
tp4675
aa(lp4676
(Vn't
p4677
g4
tp4678
a(Vstop
p4679
g7
tp4680
aasI688
(lp4681
sI689
(lp4682
(lp4683
(Vjust
p4684
g4
tp4685
a(Vclosed
p4686
g156
tp4687
aa(lp4688
(Vgood
p4689
g11
tp4690
a(Vgame
p4691
g14
tp4692
aa(lp4693
(Vnot
p4694
g4
tp4695
a(Vplay
p4696
g7
tp4697
aasI690
(lp4698
(lp4699
(Vso
p4700
g4
tp4701
a(Vnxt
p4702
g11
tp4703
aasI691
(lp4704
(lp4705
(Vseveral
p4706
g11
tp4707
a(Vtimes
p4708
g47
tp4709
aa(lp4710
(Vwonderful
p4711
g11
tp4712
a(Votherwise
p4713
g14
tp4714
aasI692
(lp4715
(lp4716
(Vfuctionally
p4717
g4
tp4718
a(Vmuch
p4719
g11
tp4720
aa(lp4721
(V3rd
p4722
g11
tp4723
a(Vtime
p4724
g14
tp4725
aasI693
(lp4726
(lp4727
(Vmain
p4728
g11
tp4729
a(Vscreen
p4730
g14
tp4731
aasI694
(lp4732
(lp4733
(Vhorrible
p4734
g11
tp4735
a(Vplz
p4736
g14
tp4737
aasI695
(lp4738
(lp4739
(Vhighly
p4740
g4
tp4741
a(Vaddictive
p4742
g11
tp4743
aa(lp4744
(Vso
p4745
g4
tp4746
a(Vanoying
p4747
g128
tp4748
aasI696
(lp4749
sI697
(lp4750
(lp4751
(Vtrue
p4752
g11
tp4753
a(Vmust
p4754
g14
tp4755
aasI698
(lp4756
(lp4757
(Vwhole
p4758
g11
tp4759
a(Vfamily
p4760
g14
tp4761
aasI699
(lp4762
sI700
(lp4763
(lp4764
(Vn't
p4765
g4
tp4766
a(Vuse
p4767
g7
tp4768
aa(lp4769
(Vonly
p4770
g4
tp4771
a(Vmagnet
p4772
g11
tp4773
aasI701
(lp4774
(lp4775
(Vvery
p4776
g4
tp4777
a(Vexciting
p4778
g128
tp4779
aa(lp4780
(Vn't
p4781
g4
tp4782
a(Vstop
p4783
g7
tp4784
aa(lp4785
(Vonly
p4786
g4
tp4787
a(Vstop
p4788
g7
tp4789
aasI702
(lp4790
(lp4791
(Vyellowish
p4792
g11
tp4793
a(Vwalls
p4794
g47
tp4795
aasI703
(lp4796
(lp4797
(Vmain
p4798
g11
tp4799
a(Vmenu
p4800
g14
tp4801
aa(lp4802
(Vnothing
p4803
g14
tp4804
a(Vbad
p4805
g11
tp4806
aasI704
(lp4807
sI705
(lp4808
(lp4809
(Vtotally
p4810
g4
tp4811
a(Vaddictive
p4812
g11
tp4813
aasI706
(lp4814
sI707
(lp4815
(lp4816
(Vgood
p4817
g11
tp4818
a(Vfun
p4819
g14
tp4820
aasI708
(lp4821
sI709
(lp4822
sI710
(lp4823
(lp4824
(Vbrilliant
p4825
g11
tp4826
a(Vconcept
p4827
g14
tp4828
aa(lp4829
(Vlittle
p4830
g4
tp4831
a(Vslow
p4832
g11
tp4833
aa(lp4834
(Vn't
p4835
g4
tp4836
a(Vregister
p4837
g7
tp4838
aasI711
(lp4839
(lp4840
(Vtotally
p4841
g4
tp4842
a(Vaddictive
p4843
g11
tp4844
aasI712
(lp4845
sI713
(lp4846
(lp4847
(Vwhole
p4848
g11
tp4849
a(Vfamily
p4850
g14
tp4851
aasI714
(lp4852
(lp4853
(Vmain
p4854
g11
tp4855
a(Vmenu
p4856
g14
tp4857
aa(lp4858
(Vnothing
p4859
g14
tp4860
a(Vbad
p4861
g11
tp4862
aasI715
(lp4863
(lp4864
(Vtrue
p4865
g11
tp4866
a(Vmust
p4867
g14
tp4868
aasI716
(lp4869
(lp4870
(Veven
p4871
g4
tp4872
a(Vworth
p4873
g11
tp4874
aasI717
(lp4875
(lp4876
(Vtemple
p4877
g11
tp4878
a(Vrun
p4879
g14
tp4880
aa(lp4881
(Vreally
p4882
g4
tp4883
a(Vgood
p4884
g11
tp4885
aa(lp4886
g4885
a(Vgame
p4887
g14
tp4888
aa(lp4889
g4888
a(Vbig
p4890
g11
tp4891
aa(lp4892
g4891
a(Vtime
p4893
g14
tp4894
aa(lp4895
(Vseriously
p4896
g4
tp4897
a(Vrecommend
p4898
g7
tp4899
aasI718
(lp4900
(lp4901
(Vquite
p4902
g4
tp4903
a(Vaddicting
p4904
g128
tp4905
aa(lp4906
(Vonly
p4907
g11
tp4908
a(Vthing
p4909
g14
tp4910
aa(lp4911
(Valways
p4912
g4
tp4913
a(Vread
p4914
g7
tp4915
aasI719
(lp4916
(lp4917
(Vrid
p4918
g11
tp4919
a(Vgame
p4920
g14
tp4921
aasI720
(lp4922
(lp4923
(Vgood
p4924
g11
tp4925
a(Vfun
p4926
g14
tp4927
aasI721
(lp4928
(lp4929
(Vso
p4930
g4
tp4931
a(Vchoppy
p4932
g11
tp4933
aa(lp4934
(Valmost
p4935
g14
tp4936
a(Vunplayable
p4937
g11
tp4938
aasI722
(lp4939
sI723
(lp4940
(lp4941
(Vyear
p4942
g14
tp4943
a(Vold
p4944
g11
tp4945
aa(lp4946
g4945
a(Vputs
p4947
g47
tp4948
aasI724
(lp4949
(lp4950
(Vfirst
p4951
g11
tp4952
a(Veaverything
p4953
g14
tp4954
aasI725
(lp4955
(lp4956
(Vbrilliant
p4957
g11
tp4958
a(Vconcept
p4959
g14
tp4960
aa(lp4961
(Vlittle
p4962
g4
tp4963
a(Vslow
p4964
g11
tp4965
aa(lp4966
(Vn't
p4967
g4
tp4968
a(Vregister
p4969
g7
tp4970
aasI726
(lp4971
(lp4972
(Vfree
p4973
g11
tp4974
a(Vgames
p4975
g47
tp4976
aa(lp4977
(Vmost
p4978
g191
tp4979
a(Vaddicting
p4980
g128
tp4981
aa(lp4982
(Vever
p4983
g4
tp4984
a(Vplayed
p4985
g63
tp4986
aa(lp4987
(Vmobile
p4988
g11
tp4989
a(Vdevice
p4990
g14
tp4991
aa(lp4992
(Vfree
p4993
g11
tp4994
a(Vgames
p4995
g47
tp4996
aa(lp4997
(Vmobile
p4998
g11
tp4999
a(Vdevice
p5000
g14
tp5001
aa(lp5002
(Vmost
p5003
g191
tp5004
a(Vfun
p5005
g11
tp5006
aa(lp5007
(Vlong
p5008
g11
tp5009
a(Vtime
p5010
g14
tp5011
aasI727
(lp5012
(lp5013
(Vbig
p5014
g11
tp5015
a(Vgamer
p5016
g14
tp5017
aa(lp5018
(Vgreat
p5019
g11
tp5020
a(Vgame
p5021
g14
tp5022
aasI728
(lp5023
(lp5024
(Vn't
p5025
g4
tp5026
a(Vrecognize
p5027
g7
tp5028
aa(lp5029
(VNot
p5030
g4
tp5031
a(Vsure
p5032
g11
tp5033
aasI729
(lp5034
(lp5035
(Vso
p5036
g4
tp5037
a(Vchoppy
p5038
g11
tp5039
aa(lp5040
(Valmost
p5041
g14
tp5042
a(Vunplayable
p5043
g11
tp5044
aasI730
(lp5045
(lp5046
(Vko
p5047
g4
tp5048
a(Vlagatar
p5049
g11
tp5050
aa(lp5051
g5050
a(Vkhelna
p5052
g14
tp5053
aasI731
(lp5054
(lp5055
(Vtoo
p5056
g4
tp5057
a(Vslow
p5058
g11
tp5059
aasI732
(lp5060
(lp5061
(Vgood
p5062
g11
tp5063
a(Vgame
p5064
g14
tp5065
aa(lp5066
(Vvery
p5067
g4
tp5068
a(Vglitchy
p5069
g11
tp5070
aasI733
(lp5071
sI734
(lp5072
(lp5073
(Vyear
p5074
g14
tp5075
a(Vold
p5076
g11
tp5077
aa(lp5078
g5077
a(Vputs
p5079
g47
tp5080
aasI735
(lp5081
(lp5082
(Vfirst
p5083
g11
tp5084
a(Veaverything
p5085
g14
tp5086
aasI736
(lp5087
(lp5088
(Vbig
p5089
g11
tp5090
a(Vgamer
p5091
g14
tp5092
aa(lp5093
(Vgreat
p5094
g11
tp5095
a(Vgame
p5096
g14
tp5097
aasI737
(lp5098
(lp5099
(Vn't
p5100
g4
tp5101
a(Vrecognize
p5102
g7
tp5103
aa(lp5104
(VNot
p5105
g4
tp5106
a(Vsure
p5107
g11
tp5108
aasI738
(lp5109
(lp5110
(Vso
p5111
g4
tp5112
a(Vchoppy
p5113
g11
tp5114
aa(lp5115
(Valmost
p5116
g14
tp5117
a(Vunplayable
p5118
g11
tp5119
aasI739
(lp5120
(lp5121
(Vko
p5122
g4
tp5123
a(Vlagatar
p5124
g11
tp5125
aa(lp5126
g5125
a(Vkhelna
p5127
g14
tp5128
aasI740
(lp5129
(lp5130
(Vtoo
p5131
g4
tp5132
a(Vslow
p5133
g11
tp5134
aasI741
(lp5135
(lp5136
(Vgood
p5137
g11
tp5138
a(Vgame
p5139
g14
tp5140
aa(lp5141
(Vvery
p5142
g4
tp5143
a(Vglitchy
p5144
g11
tp5145
aasI742
(lp5146
sI743
(lp5147
(lp5148
(Vn't
p5149
g4
tp5150
a(Vstop
p5151
g7
tp5152
aasI744
(lp5153
(lp5154
(Vtemple
p5155
g11
tp5156
a(Vrun
p5157
g14
tp5158
aa(lp5159
(Vreally
p5160
g4
tp5161
a(Vplay
p5162
g7
tp5163
aasI745
(lp5164
(lp5165
(Vminor
p5166
g11
tp5167
a(Vbugs
p5168
g47
tp5169
aa(lp5170
(Vcompletely
p5171
g4
tp5172
a(Vremoved
p5173
g63
tp5174
aa(lp5175
(Vnew
p5176
g11
tp5177
a(Vupdate
p5178
g14
tp5179
aa(lp5180
(Vmore
p5181
g1310
tp5182
a(Vobjective
p5183
g11
tp5184
aa(lp5185
g5184
a(Vnd
p5186
g14
tp5187
aasI746
(lp5188
sI747
(lp5189
sI748
(lp5190
(lp5191
(Vreally
p5192
g4
tp5193
a(Vfun
p5194
g63
tp5195
aa(lp5196
(Vnot
p5197
g4
tp5198
a(Vrespond
p5199
g7
tp5200
aasI749
(lp5201
(lp5202
(Vnumerous
p5203
g11
tp5204
a(Vpurches
p5205
g47
tp5206
aa(lp5207
(Vexact
p5208
g11
tp5209
a(g3889
g14
tp5210
aa(lp5211
(Vive
p5212
g11
tp5213
a(Vtriple
p5214
g14
tp5215
aa(lp5216
(Visnt
p5217
g14
tp5218
a(Vbad
p5219
g11
tp5220
aa(lp5221
(Vreally
p5222
g4
tp5223
a(Vtired
p5224
g63
tp5225
aasI750
(lp5226
(lp5227
(Vbig
p5228
g11
tp5229
a(Vgamer
p5230
g14
tp5231
aa(lp5232
(Vgreat
p5233
g11
tp5234
a(Vgame
p5235
g14
tp5236
aasI751
(lp5237
(lp5238
(Vko
p5239
g4
tp5240
a(Vlagatar
p5241
g11
tp5242
aa(lp5243
g5242
a(Vkhelna
p5244
g14
tp5245
aasI752
(lp5246
(lp5247
(Vtoo
p5248
g4
tp5249
a(Vslow
p5250
g11
tp5251
aasI753
(lp5252
(lp5253
(Vn't
p5254
g4
tp5255
a(Vstop
p5256
g7
tp5257
aasI754
(lp5258
(lp5259
(Vtemple
p5260
g11
tp5261
a(Vrun
p5262
g14
tp5263
aa(lp5264
(Vreally
p5265
g4
tp5266
a(Vplay
p5267
g7
tp5268
aasI755
(lp5269
(lp5270
(Vminor
p5271
g11
tp5272
a(Vbugs
p5273
g47
tp5274
aa(lp5275
(Vcompletely
p5276
g4
tp5277
a(Vremoved
p5278
g63
tp5279
aa(lp5280
(Vnew
p5281
g11
tp5282
a(Vupdate
p5283
g14
tp5284
aa(lp5285
(Vmore
p5286
g1310
tp5287
a(Vobjective
p5288
g11
tp5289
aa(lp5290
g5289
a(Vnd
p5291
g14
tp5292
aasI756
(lp5293
(lp5294
(Vtemple
p5295
g11
tp5296
a(Vrun
p5297
g14
tp5298
aa(lp5299
(Vdifferent
p5300
g11
tp5301
a(Vlevels
p5302
g47
tp5303
aasI757
(lp5304
(lp5305
(VSeriously
p5306
g4
tp5307
a(VLoved
p5308
g63
tp5309
aasI758
(lp5310
(lp5311
(Vever
p5312
g4
tp5313
a(Vplay
p5314
g11
tp5315
aa(lp5316
(Vlong
p5317
g11
tp5318
a(Vtime
p5319
g14
tp5320
aa(lp5321
(Vstill
p5322
g4
tp5323
a(Vhavent
p5324
g11
tp5325
aa(lp5326
g5325
a(Vmade
p5327
g14
tp5328
aa(lp5329
(Vblue
p5330
g11
tp5331
a(Vcoins
p5332
g47
tp5333
aa(lp5334
(Vn't
p5335
g4
tp5336
a(Vbe
p5337
g7
tp5338
aasI759
(lp5339
(lp5340
(Vpretty
p5341
g4
tp5342
a(Vgood
p5343
g11
tp5344
aa(lp5345
g5344
a(Vgame
p5346
g14
tp5347
aasI760
(lp5348
sI761
(lp5349
sI762
(lp5350
(lp5351
(Vlast
p5352
g11
tp5353
a(Vweek
p5354
g14
tp5355
aa(lp5356
(Vnot
p5357
g4
tp5358
a(Vworking
p5359
g128
tp5360
aa(lp5361
(Vnormally
p5362
g4
tp5363
a(Vhave
p5364
g7
tp5365
aasI763
(lp5366
(lp5367
(Vnumerous
p5368
g11
tp5369
a(Vpurches
p5370
g47
tp5371
aa(lp5372
(Vexact
p5373
g11
tp5374
a(g3889
g14
tp5375
aa(lp5376
(Vive
p5377
g11
tp5378
a(Vtriple
p5379
g14
tp5380
aa(lp5381
(Visnt
p5382
g14
tp5383
a(Vbad
p5384
g11
tp5385
aa(lp5386
(Vreally
p5387
g4
tp5388
a(Vtired
p5389
g63
tp5390
aasI764
(lp5391
sI765
(lp5392
(lp5393
(Vn't
p5394
g4
tp5395
a(Vstop
p5396
g7
tp5397
aa(lp5398
(Vhigh
p5399
g11
tp5400
a(Vscore
p5401
g14
tp5402
aasI766
(lp5403
(lp5404
(VSeriously
p5405
g4
tp5406
a(VLoved
p5407
g63
tp5408
aasI767
(lp5409
sI768
(lp5410
(lp5411
(Vn't
p5412
g4
tp5413
a(Vhave
p5414
g7
tp5415
aa(lp5416
(Vn't
p5417
g4
tp5418
a(Vget
p5419
g7
tp5420
aa(lp5421
(Vdoodle
p5422
g11
tp5423
a(Vjump
p5424
g14
tp5425
aa(lp5426
(Vn't
p5427
g4
tp5428
a(Vknow
p5429
g7
tp5430
aasI769
(lp5431
(lp5432
(Vever
p5433
g4
tp5434
a(Vplay
p5435
g11
tp5436
aa(lp5437
(Vlong
p5438
g11
tp5439
a(Vtime
p5440
g14
tp5441
aa(lp5442
(Vstill
p5443
g4
tp5444
a(Vhavent
p5445
g11
tp5446
aa(lp5447
g5446
a(Vmade
p5448
g14
tp5449
aa(lp5450
(Vblue
p5451
g11
tp5452
a(Vcoins
p5453
g47
tp5454
aa(lp5455
(Vn't
p5456
g4
tp5457
a(Vbe
p5458
g7
tp5459
aasI770
(lp5460
(lp5461
(Vnever
p5462
g4
tp5463
a(Vhad
p5464
g156
tp5465
aa(lp5466
(Vlast
p5467
g11
tp5468
a(Vscore
p5469
g14
tp5470
aa(lp5471
(Vjust
p5472
g4
tp5473
a(Vsad
p5474
g11
tp5475
aa(lp5476
(Vnew
p5477
g11
tp5478
a(Vhobby
p5479
g14
tp5480
aasI771
(lp5481
sI772
(lp5482
(lp5483
(Vlast
p5484
g11
tp5485
a(Vweek
p5486
g14
tp5487
aa(lp5488
(Vnot
p5489
g4
tp5490
a(Vworking
p5491
g128
tp5492
aa(lp5493
(Vnormally
p5494
g4
tp5495
a(Vhave
p5496
g7
tp5497
aasI773
(lp5498
sI774
(lp5499
sI775
(lp5500
(lp5501
(Vn't
p5502
g4
tp5503
a(Vstop
p5504
g7
tp5505
aa(lp5506
(Vhigh
p5507
g11
tp5508
a(Vscore
p5509
g14
tp5510
aasI776
(lp5511
(lp5512
(VSeriously
p5513
g4
tp5514
a(VLoved
p5515
g63
tp5516
aasI777
(lp5517
sI778
(lp5518
(lp5519
(Vn't
p5520
g4
tp5521
a(Vhave
p5522
g7
tp5523
aa(lp5524
(Vn't
p5525
g4
tp5526
a(Vget
p5527
g7
tp5528
aa(lp5529
(Vdoodle
p5530
g11
tp5531
a(Vjump
p5532
g14
tp5533
aa(lp5534
(Vn't
p5535
g4
tp5536
a(Vknow
p5537
g7
tp5538
aasI779
(lp5539
(lp5540
(Vnever
p5541
g4
tp5542
a(Vhad
p5543
g156
tp5544
aa(lp5545
(Vlast
p5546
g11
tp5547
a(Vscore
p5548
g14
tp5549
aa(lp5550
(Vjust
p5551
g4
tp5552
a(Vsad
p5553
g11
tp5554
aa(lp5555
(Vnew
p5556
g11
tp5557
a(Vhobby
p5558
g14
tp5559
aasI780
(lp5560
(lp5561
(VInnovative
p5562
g11
tp5563
a(Vconcept
p5564
g14
tp5565
aa(lp5566
(Vsimple
p5567
g11
tp5568
a(Vmechanism
p5569
g14
tp5570
aa(lp5571
(Vfull
p5572
g11
tp5573
a(Vversion
p5574
g14
tp5575
aasI781
(lp5576
sI782
(lp5577
sI783
(lp5578
sI784
(lp5579
(lp5580
(Vlow
p5581
g11
tp5582
a(Vscore
p5583
g14
tp5584
aasI785
(lp5585
(lp5586
(Vn't
p5587
g4
tp5588
a(Vstop
p5589
g7
tp5590
aa(lp5591
(Vhigh
p5592
g11
tp5593
a(Vscore
p5594
g14
tp5595
aasI786
(lp5596
(lp5597
(Vn't
p5598
g4
tp5599
a(Vstop
p5600
g7
tp5601
aa(lp5602
(Vonly
p5603
g11
tp5604
a(Vthing
p5605
g14
tp5606
aasI787
(lp5607
(lp5608
(Vn't
p5609
g4
tp5610
a(Vhave
p5611
g7
tp5612
aa(lp5613
(Vn't
p5614
g4
tp5615
a(Vget
p5616
g7
tp5617
aa(lp5618
(Vdoodle
p5619
g11
tp5620
a(Vjump
p5621
g14
tp5622
aa(lp5623
(Vn't
p5624
g4
tp5625
a(Vknow
p5626
g7
tp5627
aasI788
(lp5628
(lp5629
(VInnovative
p5630
g11
tp5631
a(Vconcept
p5632
g14
tp5633
aa(lp5634
(Vsimple
p5635
g11
tp5636
a(Vmechanism
p5637
g14
tp5638
aa(lp5639
(Vfull
p5640
g11
tp5641
a(Vversion
p5642
g14
tp5643
aasI789
(lp5644
(lp5645
(Vtotally
p5646
g4
tp5647
a(Vaddictive
p5648
g11
tp5649
aasI790
(lp5650
(lp5651
(Vnot
p5652
g4
tp5653
a(Voptimized
p5654
g63
tp5655
aa(lp5656
(Vlow
p5657
g11
tp5658
a(Vend
p5659
g14
tp5660
aasI791
(lp5661
(lp5662
(Vquite
p5663
g4
tp5664
a(Vhard
p5665
g11
tp5666
aasI792
(lp5667
sI793
(lp5668
sI794
(lp5669
(lp5670
(Vlow
p5671
g11
tp5672
a(Vscore
p5673
g14
tp5674
aasI795
(lp5675
(lp5676
(Vdefinitely
p5677
g4
tp5678
a(Vfun
p5679
g63
tp5680
aasI796
(lp5681
(lp5682
(Vn't
p5683
g4
tp5684
a(Vstop
p5685
g7
tp5686
aa(lp5687
(Vonly
p5688
g11
tp5689
a(Vthing
p5690
g14
tp5691
aasI797
(lp5692
(lp5693
(Vn't
p5694
g4
tp5695
a(Vhave
p5696
g7
tp5697
aa(lp5698
(Vn't
p5699
g4
tp5700
a(Vget
p5701
g7
tp5702
aa(lp5703
(Vdoodle
p5704
g11
tp5705
a(Vjump
p5706
g14
tp5707
aa(lp5708
(Vn't
p5709
g4
tp5710
a(Vknow
p5711
g7
tp5712
aasI798
(lp5713
(lp5714
(VInnovative
p5715
g11
tp5716
a(Vconcept
p5717
g14
tp5718
aa(lp5719
(Vsimple
p5720
g11
tp5721
a(Vmechanism
p5722
g14
tp5723
aa(lp5724
(Vfull
p5725
g11
tp5726
a(Vversion
p5727
g14
tp5728
aasI799
(lp5729
(lp5730
(Vtotally
p5731
g4
tp5732
a(Vaddictive
p5733
g11
tp5734
aasI800
(lp5735
(lp5736
(Vnot
p5737
g4
tp5738
a(Voptimized
p5739
g63
tp5740
aa(lp5741
(Vlow
p5742
g11
tp5743
a(Vend
p5744
g14
tp5745
aasI801
(lp5746
(lp5747
(Vquite
p5748
g4
tp5749
a(Vhard
p5750
g11
tp5751
aasI802
(lp5752
sI803
(lp5753
sI804
(lp5754
(lp5755
(Vlow
p5756
g11
tp5757
a(Vscore
p5758
g14
tp5759
aasI805
(lp5760
(lp5761
(Vdefinitely
p5762
g4
tp5763
a(Vfun
p5764
g63
tp5765
aasI806
(lp5766
(lp5767
(VInnovative
p5768
g11
tp5769
a(Vconcept
p5770
g14
tp5771
aa(lp5772
(Vsimple
p5773
g11
tp5774
a(Vmechanism
p5775
g14
tp5776
aa(lp5777
(Vfull
p5778
g11
tp5779
a(Vversion
p5780
g14
tp5781
aasI807
(lp5782
(lp5783
(Vtotally
p5784
g4
tp5785
a(Vaddictive
p5786
g11
tp5787
aasI808
(lp5788
(lp5789
(Vnot
p5790
g4
tp5791
a(Voptimized
p5792
g63
tp5793
aa(lp5794
(Vlow
p5795
g11
tp5796
a(Vend
p5797
g14
tp5798
aasI809
(lp5799
(lp5800
(Vquite
p5801
g4
tp5802
a(Vhard
p5803
g11
tp5804
aasI810
(lp5805
sI811
(lp5806
(lp5807
(Vlow
p5808
g11
tp5809
a(Vscore
p5810
g14
tp5811
aasI812
(lp5812
(lp5813
(Vvery
p5814
g4
tp5815
a(Vaddicting
p5816
g128
tp5817
aasI813
(lp5818
(lp5819
(Vnever
p5820
g4
tp5821
a(Vdownloaded
p5822
g63
tp5823
aa(lp5824
(Vgreat
p5825
g11
tp5826
a(Vfun
p5827
g14
tp5828
aasI814
(lp5829
(lp5830
(Vstill
p5831
g4
tp5832
a(Vloading
p5833
g128
tp5834
aa(lp5835
(Vn't
p5836
g4
tp5837
a(Vregister
p5838
g7
tp5839
aa(lp5840
(Vfirst
p5841
g11
tp5842
a(Vuse
p5843
g14
tp5844
aasI815
(lp5845
(lp5846
(Vposso
p5847
g4
tp5848
a(Vpagare
p5849
g11
tp5850
aasI816
(lp5851
(lp5852
(Vtotally
p5853
g4
tp5854
a(Vaddictive
p5855
g11
tp5856
aasI817
(lp5857
(lp5858
(Vnot
p5859
g4
tp5860
a(Voptimized
p5861
g63
tp5862
aa(lp5863
(Vlow
p5864
g11
tp5865
a(Vend
p5866
g14
tp5867
aasI818
(lp5868
(lp5869
(Vvery
p5870
g4
tp5871
a(Vfun
p5872
g63
tp5873
aa(lp5874
(Vaddictive
p5875
g11
tp5876
a(Vgame
p5877
g14
tp5878
aa(lp5879
(Vpossible
p5880
g11
tp5881
a(Vway
p5882
g14
tp5883
aasI819
(lp5884
sI820
(lp5885
(lp5886
(V3D
p5887
g11
tp5888
a(Vgame
p5889
g14
tp5890
aasI821
(lp5891
(lp5892
(VPretty
p5893
g4
tp5894
a(Vgood
p5895
g11
tp5896
aa(lp5897
(Vreally
p5898
g4
tp5899
a(Vmaking
p5900
g128
tp5901
aa(lp5902
(Vrather
p5903
g4
tp5904
a(V'addictive
p5905
g11
tp5906
aasI822
(lp5907
(lp5908
(Vvery
p5909
g4
tp5910
a(Vaddicting
p5911
g128
tp5912
aasI823
(lp5913
sI824
(lp5914
(lp5915
(Vposso
p5916
g4
tp5917
a(Vpagare
p5918
g11
tp5919
aasI825
(lp5920
sI826
(lp5921
sI827
(lp5922
(lp5923
(Vso
p5924
g4
tp5925
a(Vaddicted
p5926
g63
tp5927
aa(lp5928
(Vn't
p5929
g4
tp5930
a(Vrun
p5931
g7
tp5932
aa(lp5933
(Vnot
p5934
g4
tp5935
a(Vresponding
p5936
g128
tp5937
aasI828
(lp5938
(lp5939
(V3D
p5940
g11
tp5941
a(Vgame
p5942
g14
tp5943
aasI829
(lp5944
(lp5945
(VPretty
p5946
g4
tp5947
a(Vgood
p5948
g11
tp5949
aa(lp5950
(Vreally
p5951
g4
tp5952
a(Vmaking
p5953
g128
tp5954
aa(lp5955
(Vrather
p5956
g4
tp5957
a(V'addictive
p5958
g11
tp5959
aasI830
(lp5960
sI831
(lp5961
(lp5962
(Vposso
p5963
g4
tp5964
a(Vpagare
p5965
g11
tp5966
aasI832
(lp5967
sI833
(lp5968
sI834
(lp5969
(lp5970
(Vvery
p5971
g4
tp5972
a(Vaddictive
p5973
g11
tp5974
aa(lp5975
(Vn't
p5976
g4
tp5977
a(Vstop
p5978
g7
tp5979
aasI835
(lp5980
sI836
(lp5981
(lp5982
(Vgood
p5983
g11
tp5984
a(Vgame
p5985
g14
tp5986
aa(lp5987
(Veven
p5988
g4
tp5989
a(Vpick
p5990
g7
tp5991
aasI837
(lp5992
(lp5993
(VTotally
p5994
g4
tp5995
a(Vaddictive
p5996
g11
tp5997
aa(lp5998
(Vlittle
p5999
g4
tp6000
a(Vjerky
p6001
g11
tp6002
aa(lp6003
(Vyet
p6004
g4
tp6005
a(Vgive
p6006
g7
tp6007
aasI838
(lp6008
(lp6009
(Vfinish
p6010
g11
tp6011
a(Vline
p6012
g14
tp6013
aasI839
(lp6014
(lp6015
(Vtotally
p6016
g4
tp6017
a(Vaddictive
p6018
g11
tp6019
aasI840
(lp6020
(lp6021
(Vnot
p6022
g4
tp6023
a(Vplay
p6024
g7
tp6025
aa(lp6026
(Veasily
p6027
g4
tp6028
a(V..n
p6029
g11
tp6030
aasI841
(lp6031
sI842
(lp6032
(lp6033
(Vn't
p6034
g4
tp6035
a(Vtilt
p6036
g7
tp6037
aasI843
(lp6038
(lp6039
(Vso
p6040
g4
tp6041
a(Vaddicted
p6042
g63
tp6043
aa(lp6044
(Vn't
p6045
g4
tp6046
a(Vrun
p6047
g7
tp6048
aa(lp6049
(Vnot
p6050
g4
tp6051
a(Vresponding
p6052
g128
tp6053
aasI844
(lp6054
(lp6055
(V3D
p6056
g11
tp6057
a(Vgame
p6058
g14
tp6059
aasI845
(lp6060
(lp6061
(VPretty
p6062
g4
tp6063
a(Vgood
p6064
g11
tp6065
aa(lp6066
(Vreally
p6067
g4
tp6068
a(Vmaking
p6069
g128
tp6070
aa(lp6071
(Vrather
p6072
g4
tp6073
a(V'addictive
p6074
g11
tp6075
aasI846
(lp6076
(lp6077
(Vfinish
p6078
g11
tp6079
a(Vline
p6080
g14
tp6081
aasI847
(lp6082
(lp6083
(Vreally
p6084
g4
tp6085
a(Vdid
p6086
g156
tp6087
aa(lp6088
(Vn't
p6089
g4
tp6090
a(Vthink
p6091
g7
tp6092
aa(lp6093
(Vsimple
p6094
g11
tp6095
a(Vconcept
p6096
g14
tp6097
aasI848
(lp6098
(lp6099
(Vtotally
p6100
g4
tp6101
a(Vaddictive
p6102
g11
tp6103
aasI849
(lp6104
(lp6105
(Vn't
p6106
g4
tp6107
a(Vtilt
p6108
g7
tp6109
aasI850
(lp6110
(lp6111
(Vso
p6112
g4
tp6113
a(Vaddicted
p6114
g63
tp6115
aa(lp6116
(Vn't
p6117
g4
tp6118
a(Vrun
p6119
g7
tp6120
aa(lp6121
(Vnot
p6122
g4
tp6123
a(Vresponding
p6124
g128
tp6125
aasI851
(lp6126
(lp6127
(Vn't
p6128
g4
tp6129
a(Vwaste
p6130
g7
tp6131
aa(lp6132
(Vdifferent
p6133
g11
tp6134
a(Vrunners
p6135
g47
tp6136
aa(lp6137
(Vn't
p6138
g4
tp6139
a(Vhave
p6140
g7
tp6141
aa(lp6142
(Vextra
p6143
g11
tp6144
a(Vfeature
p6145
g14
tp6146
aa(lp6147
(Vn't
p6148
g4
tp6149
a(Vspend
p6150
g7
tp6151
aa(lp6152
(Vnot
p6153
g4
tp6154
a(Vworth
p6155
g11
tp6156
aa(lp6157
(Vfirst
p6158
g11
tp6159
a(Vfew
p6160
g11
tp6161
aa(lp6162
g6161
a(Vdays
p6163
g47
tp6164
aa(lp6165
(Vn't
p6166
g4
tp6167
a(Vavoid
p6168
g7
tp6169
aasI852
(lp6170
sI853
(lp6171
(lp6172
(Vgood
p6173
g11
tp6174
a(Vgame
p6175
g14
tp6176
aa(lp6177
(Vdead
p6178
g11
tp6179
a(Vbcause
p6180
g14
tp6181
aa(lp6182
(Vtht..and
p6183
g11
tp6184
a(Vsometimes
p6185
g47
tp6186
aasI854
(lp6187
sI855
(lp6188
(lp6189
(Vquite
p6190
g4
tp6191
a(Virritating
p6192
g128
tp6193
aasI856
(lp6194
(lp6195
(Vvery
p6196
g4
tp6197
a(Vgooooood
p6198
g11
tp6199
aa(lp6200
g6199
a(Vandroid
p6201
g11
tp6202
aa(lp6203
g6202
a(Vapp
p6204
g14
tp6205
aa(lp6206
(Vgud
p6207
g11
tp6208
a(Vwork
p6209
g14
tp6210
aasI857
(lp6211
(lp6212
(Vn't
p6213
g4
tp6214
a(Vtilt
p6215
g7
tp6216
aasI858
(lp6217
(lp6218
(Vfinally
p6219
g4
tp6220
a(Vget
p6221
g7
tp6222
aa(lp6223
(Vcompletely
p6224
g4
tp6225
a(Vhooked
p6226
g63
tp6227
aa(lp6228
(Vn't
p6229
g4
tp6230
a(Vknow
p6231
g7
tp6232
aa(lp6233
(Vvery
p6234
g4
tp6235
a(Vfun
p6236
g63
tp6237
aa(lp6238
(Vpretty
p6239
g4
tp6240
a(Vsimple
p6241
g11
tp6242
aasI859
(lp6243
(lp6244
(Vn't
p6245
g4
tp6246
a(Vwaste
p6247
g7
tp6248
aa(lp6249
(Vdifferent
p6250
g11
tp6251
a(Vrunners
p6252
g47
tp6253
aa(lp6254
(Vn't
p6255
g4
tp6256
a(Vhave
p6257
g7
tp6258
aa(lp6259
(Vextra
p6260
g11
tp6261
a(Vfeature
p6262
g14
tp6263
aa(lp6264
(Vn't
p6265
g4
tp6266
a(Vspend
p6267
g7
tp6268
aa(lp6269
(Vnot
p6270
g4
tp6271
a(Vworth
p6272
g11
tp6273
aa(lp6274
(Vfirst
p6275
g11
tp6276
a(Vfew
p6277
g11
tp6278
aa(lp6279
g6278
a(Vdays
p6280
g47
tp6281
aa(lp6282
(Vn't
p6283
g4
tp6284
a(Vavoid
p6285
g7
tp6286
aasI860
(lp6287
sI861
(lp6288
(lp6289
(Vgood
p6290
g11
tp6291
a(Vgame
p6292
g14
tp6293
aa(lp6294
(Vdead
p6295
g11
tp6296
a(Vbcause
p6297
g14
tp6298
aa(lp6299
(Vtht..and
p6300
g11
tp6301
a(Vsometimes
p6302
g47
tp6303
aasI862
(lp6304
(lp6305
(Vreally
p6306
g4
tp6307
a(Vawesome
p6308
g11
tp6309
aa(lp6310
(Vmuch
p6311
g4
tp6312
a(Vfun.m
p6313
g11
tp6314
aa(lp6315
g6314
a(Vkinda
p6316
g14
tp6317
aa(lp6318
(Vds
p6319
g47
tp6320
a(Vgame.tnx
p6321
g11
tp6322
aasI863
(lp6323
sI864
(lp6324
(lp6325
(Vreally
p6326
g4
tp6327
a(Vnice
p6328
g11
tp6329
aa(lp6330
g6329
a(Vtouch
p6331
g14
tp6332
aa(lp6333
(Vlast
p6334
g11
tp6335
a(Vupdated
p6336
g11
tp6337
aa(lp6338
(Vreally
p6339
g4
tp6340
a(Vlaggy.But
p6341
g11
tp6342
aa(lp6343
g6342
a(Vother
p6344
g11
tp6345
aa(lp6346
(Vreally
p6347
g4
tp6348
a(Vgreat
p6349
g11
tp6350
aasI865
(lp6351
(lp6352
(Vperfect
p6353
g11
tp6354
a(Vwen
p6355
g14
tp6356
aasI866
(lp6357
(lp6358
(Vvery
p6359
g4
tp6360
a(Vdifferent
p6361
g11
tp6362
aa(lp6363
(Vn't
p6364
g4
tp6365
a(Vstop
p6366
g7
tp6367
aasI867
(lp6368
(lp6369
(Vreally
p6370
g4
tp6371
a(Vdid
p6372
g156
tp6373
aa(lp6374
(Vn't
p6375
g4
tp6376
a(Vthink
p6377
g7
tp6378
aa(lp6379
(Vsimple
p6380
g11
tp6381
a(Vconcept
p6382
g14
tp6383
aasI868
(lp6384
(lp6385
(Vvery
p6386
g4
tp6387
a(Vgooooood
p6388
g11
tp6389
aa(lp6390
g6389
a(Vandroid
p6391
g11
tp6392
aa(lp6393
g6392
a(Vapp
p6394
g14
tp6395
aa(lp6396
(Vgud
p6397
g11
tp6398
a(Vwork
p6399
g14
tp6400
aasI869
(lp6401
(lp6402
(Vfinally
p6403
g4
tp6404
a(Vget
p6405
g7
tp6406
aa(lp6407
(Vcompletely
p6408
g4
tp6409
a(Vhooked
p6410
g63
tp6411
aa(lp6412
(Vn't
p6413
g4
tp6414
a(Vknow
p6415
g7
tp6416
aa(lp6417
(Vvery
p6418
g4
tp6419
a(Vfun
p6420
g63
tp6421
aa(lp6422
(Vpretty
p6423
g4
tp6424
a(Vsimple
p6425
g11
tp6426
aasI870
(lp6427
(lp6428
(Vn't
p6429
g4
tp6430
a(Vwaste
p6431
g7
tp6432
aa(lp6433
(Vdifferent
p6434
g11
tp6435
a(Vrunners
p6436
g47
tp6437
aa(lp6438
(Vn't
p6439
g4
tp6440
a(Vhave
p6441
g7
tp6442
aa(lp6443
(Vextra
p6444
g11
tp6445
a(Vfeature
p6446
g14
tp6447
aa(lp6448
(Vn't
p6449
g4
tp6450
a(Vspend
p6451
g7
tp6452
aa(lp6453
(Vnot
p6454
g4
tp6455
a(Vworth
p6456
g11
tp6457
aa(lp6458
(Vfirst
p6459
g11
tp6460
a(Vfew
p6461
g11
tp6462
aa(lp6463
g6462
a(Vdays
p6464
g47
tp6465
aa(lp6466
(Vn't
p6467
g4
tp6468
a(Vavoid
p6469
g7
tp6470
aasI871
(lp6471
(lp6472
(Vgood
p6473
g11
tp6474
a(Vgame
p6475
g14
tp6476
aa(lp6477
(Vdead
p6478
g11
tp6479
a(Vbcause
p6480
g14
tp6481
aa(lp6482
(Vtht..and
p6483
g11
tp6484
a(Vsometimes
p6485
g47
tp6486
aasI872
(lp6487
(lp6488
(Vreally
p6489
g4
tp6490
a(Vawesome
p6491
g11
tp6492
aa(lp6493
(Vmuch
p6494
g4
tp6495
a(Vfun.m
p6496
g11
tp6497
aa(lp6498
g6497
a(Vkinda
p6499
g14
tp6500
aa(lp6501
(Vds
p6502
g47
tp6503
a(Vgame.tnx
p6504
g11
tp6505
aasI873
(lp6506
sI874
(lp6507
(lp6508
(Vreally
p6509
g4
tp6510
a(Vnice
p6511
g11
tp6512
aa(lp6513
g6512
a(Vtouch
p6514
g14
tp6515
aa(lp6516
(Vlast
p6517
g11
tp6518
a(Vupdated
p6519
g11
tp6520
aa(lp6521
(Vreally
p6522
g4
tp6523
a(Vlaggy.But
p6524
g11
tp6525
aa(lp6526
g6525
a(Vother
p6527
g11
tp6528
aa(lp6529
(Vreally
p6530
g4
tp6531
a(Vgreat
p6532
g11
tp6533
aasI875
(lp6534
(lp6535
(Vperfect
p6536
g11
tp6537
a(Vwen
p6538
g14
tp6539
aasI876
(lp6540
sI877
(lp6541
(lp6542
(Vfinally
p6543
g4
tp6544
a(Vget
p6545
g7
tp6546
aa(lp6547
(Vcompletely
p6548
g4
tp6549
a(Vhooked
p6550
g63
tp6551
aa(lp6552
(Vn't
p6553
g4
tp6554
a(Vknow
p6555
g7
tp6556
aa(lp6557
(Vvery
p6558
g4
tp6559
a(Vfun
p6560
g63
tp6561
aa(lp6562
(Vpretty
p6563
g4
tp6564
a(Vsimple
p6565
g11
tp6566
aasI878
(lp6567
(lp6568
(Vupdate
p6569
g11
tp6570
a(Vsoon
p6571
g14
tp6572
aasI879
(lp6573
(lp6574
(Vreally
p6575
g4
tp6576
a(Vawesome
p6577
g11
tp6578
aa(lp6579
(Vmuch
p6580
g4
tp6581
a(Vfun.m
p6582
g11
tp6583
aa(lp6584
g6583
a(Vkinda
p6585
g14
tp6586
aa(lp6587
(Vds
p6588
g47
tp6589
a(Vgame.tnx
p6590
g11
tp6591
aasI880
(lp6592
(lp6593
(Vcritical
p6594
g11
tp6595
a(Vsituations
p6596
g47
tp6597
aasI881
(lp6598
(lp6599
(Vever
p6600
g4
tp6601
a(Vget
p6602
g7
tp6603
aasI882
(lp6604
(lp6605
(Vtemple
p6606
g11
tp6607
a(Vrun
p6608
g14
tp6609
aa(lp6610
(VReally
p6611
g4
tp6612
a(Vannoying
p6613
g128
tp6614
aa(lp6615
(Vn't
p6616
g4
tp6617
a(Vhave
p6618
g7
tp6619
aa(lp6620
(Vother
p6621
g11
tp6622
a(Vproblems
p6623
g47
tp6624
aasI883
(lp6625
(lp6626
(Vn't
p6627
g4
tp6628
a(Vrun
p6629
g7
tp6630
aa(lp6631
(Vnot
p6632
g4
tp6633
a(Vrespond
p6634
g7
tp6635
aasI884
(lp6636
(lp6637
(Vstupid
p6638
g11
tp6639
a(Vglitch
p6640
g14
tp6641
aasI885
(lp6642
(lp6643
(Vfew
p6644
g11
tp6645
a(Vdays
p6646
g47
tp6647
aa(lp6648
(Vfirst
p6649
g11
tp6650
a(Vtime
p6651
g14
tp6652
aasI886
(lp6653
(lp6654
(Vevil
p6655
g11
tp6656
a(Vcreatures
p6657
g47
tp6658
aasI887
(lp6659
sI888
(lp6660
sI889
(lp6661
(lp6662
(Vupdate
p6663
g11
tp6664
a(Vsoon
p6665
g14
tp6666
aasI890
(lp6667
(lp6668
(Vcritical
p6669
g11
tp6670
a(Vsituations
p6671
g47
tp6672
aasI891
(lp6673
(lp6674
(Vever
p6675
g4
tp6676
a(Vget
p6677
g7
tp6678
aasI892
(lp6679
(lp6680
(Vtemple
p6681
g11
tp6682
a(Vrun
p6683
g14
tp6684
aa(lp6685
(VReally
p6686
g4
tp6687
a(Vannoying
p6688
g128
tp6689
aa(lp6690
(Vn't
p6691
g4
tp6692
a(Vhave
p6693
g7
tp6694
aa(lp6695
(Vother
p6696
g11
tp6697
a(Vproblems
p6698
g47
tp6699
aasI893
(lp6700
(lp6701
(Vfree
p6702
g11
tp6703
a(Vversion
p6704
g14
tp6705
aa(lp6706
(Vnot
p6707
g4
tp6708
a(Vallow
p6709
g7
tp6710
aasI894
(lp6711
(lp6712
(Vstupid
p6713
g11
tp6714
a(Vglitch
p6715
g14
tp6716
aasI895
(lp6717
(lp6718
(Vfew
p6719
g11
tp6720
a(Vdays
p6721
g47
tp6722
aa(lp6723
(Vfirst
p6724
g11
tp6725
a(Vtime
p6726
g14
tp6727
aasI896
(lp6728
(lp6729
(Vtruly
p6730
g4
tp6731
a(Vaddictive
p6732
g11
tp6733
aa(lp6734
(Vfew
p6735
g11
tp6736
a(Vsmall
p6737
g11
tp6738
aa(lp6739
g6738
a(Vglitches
p6740
g47
tp6741
aasI897
(lp6742
(lp6743
(Vrecent
p6744
g11
tp6745
a(Vupgrade
p6746
g14
tp6747
aasI898
(lp6748
sI899
(lp6749
(lp6750
(Vupdate
p6751
g11
tp6752
a(Vsoon
p6753
g14
tp6754
aasI900
(lp6755
(lp6756
(Vgreat
p6757
g11
tp6758
a(Vgame
p6759
g14
tp6760
aa(lp6761
(Vconstantly
p6762
g4
tp6763
a(Vdying
p6764
g128
tp6765
aasI901
(lp6766
(lp6767
(Vbig
p6768
g11
tp6769
a(Vrun
p6770
g14
tp6771
aa(lp6772
(Vnew
p6773
g11
tp6774
a(Vmap
p6775
g14
tp6776
aasI902
(lp6777
(lp6778
(Vcritical
p6779
g11
tp6780
a(Vsituations
p6781
g47
tp6782
aasI903
(lp6783
(lp6784
(Vever
p6785
g4
tp6786
a(Vget
p6787
g7
tp6788
aasI904
(lp6789
(lp6790
(Vtemple
p6791
g11
tp6792
a(Vrun
p6793
g14
tp6794
aa(lp6795
(VReally
p6796
g4
tp6797
a(Vannoying
p6798
g128
tp6799
aa(lp6800
(Vn't
p6801
g4
tp6802
a(Vhave
p6803
g7
tp6804
aa(lp6805
(Vother
p6806
g11
tp6807
a(Vproblems
p6808
g47
tp6809
aasI905
(lp6810
(lp6811
(Vfree
p6812
g11
tp6813
a(Vversion
p6814
g14
tp6815
aa(lp6816
(Vnot
p6817
g4
tp6818
a(Vallow
p6819
g7
tp6820
aasI906
(lp6821
(lp6822
(Vgood
p6823
g11
tp6824
a(Vgame
p6825
g14
tp6826
aa(lp6827
(Vonly
p6828
g11
tp6829
a(Vthing
p6830
g14
tp6831
aa(lp6832
(Veverytime
p6833
g11
tp6834
a(Vi
p6835
g14
tp6836
aa(lp6837
(Vn't
p6838
g4
tp6839
a(Vturn
p6840
g7
tp6841
aasI907
(lp6842
(lp6843
(Vtruly
p6844
g4
tp6845
a(Vaddictive
p6846
g11
tp6847
aa(lp6848
(Vfew
p6849
g11
tp6850
a(Vsmall
p6851
g11
tp6852
aa(lp6853
g6852
a(Vglitches
p6854
g47
tp6855
aasI908
(lp6856
(lp6857
(Vrecent
p6858
g11
tp6859
a(Vupgrade
p6860
g14
tp6861
aasI909
(lp6862
(lp6863
(Vnot
p6864
g4
tp6865
a(Vstop
p6866
g7
tp6867
aasI910
(lp6868
sI911
(lp6869
(lp6870
(Vgreat
p6871
g11
tp6872
a(Vgame
p6873
g14
tp6874
aa(lp6875
(Vconstantly
p6876
g4
tp6877
a(Vdying
p6878
g128
tp6879
aasI912
(lp6880
(lp6881
(Vbig
p6882
g11
tp6883
a(Vrun
p6884
g14
tp6885
aa(lp6886
(Vnew
p6887
g11
tp6888
a(Vmap
p6889
g14
tp6890
aasI913
(lp6891
(lp6892
(Vfree
p6893
g11
tp6894
a(Vversion
p6895
g14
tp6896
aa(lp6897
(Vnot
p6898
g4
tp6899
a(Vallow
p6900
g7
tp6901
aasI914
(lp6902
(lp6903
(Valways
p6904
g4
tp6905
a(Vregister
p6906
g7
tp6907
aa(lp6908
(Vhigh
p6909
g11
tp6910
a(Vspeed
p6911
g14
tp6912
aasI915
(lp6913
(lp6914
(Vfew
p6915
g11
tp6916
a(Vminutes
p6917
g47
tp6918
aa(lp6919
(Vother
p6920
g11
tp6921
a(Vwise
p6922
g14
tp6923
aa(lp6924
g6923
a(Vgreat
p6925
g11
tp6926
aasI916
(lp6927
sI917
(lp6928
sI918
(lp6929
(lp6930
(Valways
p6931
g4
tp6932
a(Vfollow
p6933
g7
tp6934
aasI919
(lp6935
(lp6936
(Vgood
p6937
g11
tp6938
a(Vgame
p6939
g14
tp6940
aa(lp6941
(Vonly
p6942
g11
tp6943
a(Vthing
p6944
g14
tp6945
aa(lp6946
(Veverytime
p6947
g11
tp6948
a(g6835
g14
tp6949
aa(lp6950
(Vn't
p6951
g4
tp6952
a(Vturn
p6953
g7
tp6954
aasI920
(lp6955
(lp6956
(Vnot
p6957
g4
tp6958
a(Vstop
p6959
g7
tp6960
aasI921
(lp6961
sI922
(lp6962
(lp6963
(Vbig
p6964
g11
tp6965
a(Vrun
p6966
g14
tp6967
aa(lp6968
(Vnew
p6969
g11
tp6970
a(Vmap
p6971
g14
tp6972
aasI923
(lp6973
sI924
(lp6974
(lp6975
(Vjellybean
p6976
g11
tp6977
a(Vupdate
p6978
g14
tp6979
aasI925
(lp6980
sI926
(lp6981
(lp6982
(Vmuch
p6983
g4
tp6984
a(Vfun
p6985
g63
tp6986
aa(lp6987
(Vlittle
p6988
g11
tp6989
a(Vsisters
p6990
g47
tp6991
aa(lp6992
(Vmore
p6993
g1310
tp6994
a(Vthing
p6995
g11
tp6996
aa(lp6997
(Vlittle
p6998
g11
tp6999
a(Vsisters
p7000
g47
tp7001
aasI927
(lp7002
(lp7003
(Vn't
p7004
g4
tp7005
a(Vplay
p7006
g7
tp7007
aasI928
(lp7008
sI929
(lp7009
(lp7010
(Vnot
p7011
g4
tp7012
a(Vstop
p7013
g7
tp7014
aasI930
(lp7015
(lp7016
(Vgreat
p7017
g11
tp7018
a(Vgame
p7019
g14
tp7020
aa(lp7021
(Vpainful
p7022
g11
tp7023
a(Vlong
p7024
g11
tp7025
aa(lp7026
g7025
a(Vjourney..enjoy
p7027
g11
tp7028
aasI931
(lp7029
(lp7030
(Vreally
p7031
g4
tp7032
a(Virritating
p7033
g128
tp7034
aa(lp7035
(Vquickly
p7036
g4
tp7037
a(Vi'l
p7038
g11
tp7039
aa(lp7040
g7039
a(Vgive
p7041
g11
tp7042
aa(lp7043
g7042
a(g3080
g14
tp7044
aasI932
(lp7045
sI933
(lp7046
(lp7047
(Vjellybean
p7048
g11
tp7049
a(Vupdate
p7050
g14
tp7051
aasI934
(lp7052
sI935
(lp7053
(lp7054
(VSometimes
p7055
g4
tp7056
a(Vunresponsive
p7057
g11
tp7058
aasI936
(lp7059
(lp7060
(Vbig
p7061
g11
tp7062
a(Vfan
p7063
g14
tp7064
aa(lp7065
(Vhuge
p7066
g11
tp7067
a(Vproblem
p7068
g14
tp7069
aa(lp7070
(Vn't
p7071
g4
tp7072
a(Vwork
p7073
g7
tp7074
aa(lp7075
(Veven
p7076
g4
tp7077
a(Vuninstalled
p7078
g156
tp7079
aa(lp7080
(Vthen
p7081
g4
tp7082
a(Vreinstalled
p7083
g156
tp7084
aa(lp7085
(Vagain
p7086
g4
tp7087
a(Vhelp
p7088
g7
tp7089
aa(lp7090
(Vn't
p7091
g4
tp7092
a(Vstay
p7093
g7
tp7094
aasI937
(lp7095
sI938
(lp7096
(lp7097
(Vquite
p7098
g4
tp7099
a(Vhumorous
p7100
g11
tp7101
aa(lp7102
(Vgreat
p7103
g11
tp7104
a(Vgame
p7105
g14
tp7106
aasI939
(lp7107
(lp7108
(Vvery
p7109
g4
tp7110
a(Vwerid
p7111
g11
tp7112
aa(lp7113
g7112
a(Vperson
p7114
g14
tp7115
aasI940
(lp7116
(lp7117
(Vmillion
p7118
g14
tp7119
a(Vdue
p7120
g11
tp7121
aasI941
(lp7122
(lp7123
(Vgreat
p7124
g11
tp7125
a(Vgame
p7126
g14
tp7127
aa(lp7128
(Vn't
p7129
g4
tp7130
a(Vhave
p7131
g7
tp7132
aa(lp7133
(Vreally
p7134
g4
tp7135
a(Virritating
p7136
g128
tp7137
aasI942
(lp7138
(lp7139
(Vfirst
p7140
g11
tp7141
a(Vinstallation
p7142
g14
tp7143
aa(lp7144
(Vseveral
p7145
g11
tp7146
a(Vtimes
p7147
g47
tp7148
aa(lp7149
(Vnot
p7150
g4
tp7151
a(Vsave
p7152
g7
tp7153
aa(lp7154
(Vrecently
p7155
g4
tp7156
a(Vre
p7157
g7
tp7158
aasI943
(lp7159
(lp7160
(Vrecently
p7161
g4
tp7162
a(Vdownloaded
p7163
g156
tp7164
aa(lp7165
(Vreally
p7166
g4
tp7167
a(Vaddicting
p7168
g128
tp7169
aasI944
(lp7170
(lp7171
(Vgreat
p7172
g11
tp7173
a(Vgame
p7174
g14
tp7175
aa(lp7176
(Vpainful
p7177
g11
tp7178
a(Vlong
p7179
g11
tp7180
aa(lp7181
g7180
a(Vjourney..enjoy
p7182
g11
tp7183
aasI945
(lp7184
(lp7185
(Vminor
p7186
g11
tp7187
a(Vglitches
p7188
g47
tp7189
aa(lp7190
(Vtoo
p7191
g4
tp7192
a(Vmuch
p7193
g11
tp7194
aa(lp7195
g7194
a(Vtilt
p7196
g14
tp7197
aasI946
(lp7198
sI947
(lp7199
(lp7200
(Vmillion
p7201
g14
tp7202
a(Vdue
p7203
g11
tp7204
aasI948
(lp7205
(lp7206
(Vgreat
p7207
g11
tp7208
a(Vgame
p7209
g14
tp7210
aa(lp7211
(Vn't
p7212
g4
tp7213
a(Vhave
p7214
g7
tp7215
aa(lp7216
(Vreally
p7217
g4
tp7218
a(Virritating
p7219
g128
tp7220
aasI949
(lp7221
(lp7222
(Vfirst
p7223
g11
tp7224
a(Vinstallation
p7225
g14
tp7226
aa(lp7227
(Vseveral
p7228
g11
tp7229
a(Vtimes
p7230
g47
tp7231
aa(lp7232
(Vnot
p7233
g4
tp7234
a(Vsave
p7235
g7
tp7236
aa(lp7237
(Vrecently
p7238
g4
tp7239
a(Vre
p7240
g7
tp7241
aasI950
(lp7242
(lp7243
(Vrecently
p7244
g4
tp7245
a(Vdownloaded
p7246
g156
tp7247
aa(lp7248
(Vreally
p7249
g4
tp7250
a(Vaddicting
p7251
g128
tp7252
aasI951
(lp7253
(lp7254
(Vonly
p7255
g11
tp7256
a(Vthing
p7257
g14
tp7258
aa(lp7259
(Vmean
p7260
g11
tp7261
a(Vlag
p7262
g14
tp7263
aa(lp7264
(VOverall
p7265
g11
tp7266
a(Vawesome
p7267
g14
tp7268
aasI952
(lp7269
(lp7270
(Vpreviously
p7271
g4
tp7272
a(Vgave
p7273
g156
tp7274
aasI953
(lp7275
(lp7276
(Vgreat
p7277
g11
tp7278
a(Vgame
p7279
g14
tp7280
aa(lp7281
(Vpainful
p7282
g11
tp7283
a(Vlong
p7284
g11
tp7285
aa(lp7286
g7285
a(Vjourney..enjoy
p7287
g11
tp7288
aasI954
(lp7289
(lp7290
(Vminor
p7291
g11
tp7292
a(Vglitches
p7293
g47
tp7294
aa(lp7295
(Vtoo
p7296
g4
tp7297
a(Vmuch
p7298
g11
tp7299
aa(lp7300
g7299
a(Vtilt
p7301
g14
tp7302
aasI955
(lp7303
(lp7304
(Vreally
p7305
g4
tp7306
a(Virritating
p7307
g128
tp7308
aa(lp7309
(Vquickly
p7310
g4
tp7311
a(Vi'l
p7312
g11
tp7313
aa(lp7314
g7313
a(Vgive
p7315
g11
tp7316
aa(lp7317
g7316
a(g3080
g14
tp7318
aasI956
(lp7319
sI957
(lp7320
sI958
(lp7321
(lp7322
(Vgood
p7323
g11
tp7324
a(Vgame
p7325
g14
tp7326
aasI959
(lp7327
sI960
(lp7328
(lp7329
(Vonly
p7330
g11
tp7331
a(Vthing
p7332
g14
tp7333
aa(lp7334
(Vmean
p7335
g11
tp7336
a(Vlag
p7337
g14
tp7338
aa(lp7339
(VOverall
p7340
g11
tp7341
a(Vawesome
p7342
g14
tp7343
aasI961
(lp7344
(lp7345
(Vpreviously
p7346
g4
tp7347
a(Vgave
p7348
g156
tp7349
aasI962
(lp7350
(lp7351
(Vminor
p7352
g11
tp7353
a(Vglitches
p7354
g47
tp7355
aa(lp7356
(Vtoo
p7357
g4
tp7358
a(Vmuch
p7359
g11
tp7360
aa(lp7361
g7360
a(Vtilt
p7362
g14
tp7363
aasI963
(lp7364
sI964
(lp7365
(lp7366
(Vn't
p7367
g4
tp7368
a(Vgive
p7369
g7
tp7370
aasI965
(lp7371
sI966
(lp7372
sI967
(lp7373
(lp7374
(Vpreviously
p7375
g4
tp7376
a(Vgave
p7377
g156
tp7378
aasI968
(lp7379
(lp7380
(Valmost
p7381
g4
tp7382
a(Vexceptional
p7383
g11
tp7384
aa(lp7385
(Vnever
p7386
g4
tp7387
a(Vget
p7388
g7
tp7389
aa(lp7390
(Vonly
p7391
g11
tp7392
a(Vgame
p7393
g14
tp7394
aa(lp7395
(Vonly
p7396
g11
tp7397
a(Vproblems
p7398
g47
tp7399
aa(lp7400
(Vn't
p7401
g4
tp7402
a(Vregister
p7403
g7
tp7404
aa(lp7405
(Vnot
p7406
g4
tp7407
a(Vregister
p7408
g7
tp7409
aasI969
(lp7410
(lp7411
(Vn't
p7412
g4
tp7413
a(Vrun
p7414
g7
tp7415
aasI970
(lp7416
sI971
(lp7417
(lp7418
(Vn't
p7419
g4
tp7420
a(Vgive
p7421
g7
tp7422
aasI972
(lp7423
sI973
(lp7424
sI974
(lp7425
sI975
(lp7426
sI976
(lp7427
(lp7428
(Vsad
p7429
g11
tp7430
a(Vaffair
p7431
g14
tp7432
aa(lp7433
(Vvery
p7434
g4
tp7435
a(Vslow
p7436
g11
tp7437
aasI977
(lp7438
sI978
(lp7439
sI979
(lp7440
(lp7441
(Vnever
p7442
g4
tp7443
a(Vget
p7444
g7
tp7445
aasI980
(lp7446
sI981
(lp7447
(lp7448
(Valmost
p7449
g4
tp7450
a(Vexceptional
p7451
g11
tp7452
aa(lp7453
(Vnever
p7454
g4
tp7455
a(Vget
p7456
g7
tp7457
aa(lp7458
(Vonly
p7459
g11
tp7460
a(Vgame
p7461
g14
tp7462
aa(lp7463
(Vonly
p7464
g11
tp7465
a(Vproblems
p7466
g47
tp7467
aa(lp7468
(Vn't
p7469
g4
tp7470
a(Vregister
p7471
g7
tp7472
aa(lp7473
(Vnot
p7474
g4
tp7475
a(Vregister
p7476
g7
tp7477
aasI982
(lp7478
sI983
(lp7479
(lp7480
(Vn't
p7481
g4
tp7482
a(Vrun
p7483
g7
tp7484
aasI984
(lp7485
(lp7486
(Valways
p7487
g4
tp7488
a(Vitspretty
p7489
g11
tp7490
aa(lp7491
g7490
a(Vbad
p7492
g11
tp7493
aasI985
(lp7494
sI986
(lp7495
sI987
(lp7496
sI988
(lp7497
(lp7498
(Vnever
p7499
g4
tp7500
a(Vget
p7501
g7
tp7502
aasI989
(lp7503
(lp7504
(Vreally
p7505
g4
tp7506
a(Vkool
p7507
g11
tp7508
aa(lp7509
g7508
a(Vgame
p7510
g14
tp7511
aa(lp7512
(Vcrash
p7513
g11
tp7514
a(g3080
g14
tp7515
aasI990
(lp7516
(lp7517
(Valmost
p7518
g4
tp7519
a(Vexceptional
p7520
g11
tp7521
aa(lp7522
(Vnever
p7523
g4
tp7524
a(Vget
p7525
g7
tp7526
aa(lp7527
(Vonly
p7528
g11
tp7529
a(Vgame
p7530
g14
tp7531
aa(lp7532
(Vonly
p7533
g11
tp7534
a(Vproblems
p7535
g47
tp7536
aa(lp7537
(Vn't
p7538
g4
tp7539
a(Vregister
p7540
g7
tp7541
aa(lp7542
(Vnot
p7543
g4
tp7544
a(Vregister
p7545
g7
tp7546
aasI991
(lp7547
sI992
(lp7548
(lp7549
(Valways
p7550
g4
tp7551
a(Vitspretty
p7552
g11
tp7553
aa(lp7554
g7553
a(Vbad
p7555
g11
tp7556
aasI993
(lp7557
sI994
(lp7558
sI995
(lp7559
(lp7560
(Vso
p7561
g4
tp7562
a(Vhigh
p7563
g11
tp7564
aa(lp7565
(VSometimes
p7566
g4
tp7567
a(Vlet
p7568
g156
tp7569
aasI996
(lp7570
(lp7571
(Vever
p7572
g4
tp7573
a(Vplayed
p7574
g63
tp7575
aa(lp7576
(Vfirst
p7577
g11
tp7578
a(Vweek
p7579
g14
tp7580
aa(lp7581
(Vkinda
p7582
g14
tp7583
a(Vslow
p7584
g11
tp7585
aasI997
(lp7586
(lp7587
(VMOST
p7588
g191
tp7589
a(VENJOYABLE
p7590
g11
tp7591
aa(lp7592
(Vold
p7593
g11
tp7594
a(Vbar
p7595
g14
tp7596
aa(lp7597
(Vlong
p7598
g11
tp7599
a(Vline
p7600
g14
tp7601
aasI998
(lp7602
(lp7603
(Vmore
p7604
g1310
tp7605
a(Vincentive
p7606
g11
tp7607
aasI999
(lp7608
(lp7609
(Vever
p7610
g4
tp7611
a(Vplayed
p7612
g63
tp7613
aa(lp7614
(Vfirst
p7615
g11
tp7616
a(Vweek
p7617
g14
tp7618
aa(lp7619
(Vkinda
p7620
g14
tp7621
a(Vslow
p7622
g11
tp7623
aasI1000
(lp7624
(lp7625
(VMOST
p7626
g191
tp7627
a(VENJOYABLE
p7628
g11
tp7629
aa(lp7630
(Vold
p7631
g11
tp7632
a(Vbar
p7633
g14
tp7634
aa(lp7635
(Vlong
p7636
g11
tp7637
a(Vline
p7638
g14
tp7639
aasI1001
(lp7640
(lp7641
(Vmore
p7642
g1310
tp7643
a(Vincentive
p7644
g11
tp7645
aasI1002
(lp7646
(lp7647
(Vjust
p7648
g4
tp7649
a(Vput
p7650
g7
tp7651
aasI1003
(lp7652
(lp7653
(Vtoo
p7654
g4
tp7655
a(Vfrustrating
p7656
g128
tp7657
aa(lp7658
(Vfew
p7659
g11
tp7660
a(Vminutes
p7661
g47
tp7662
aa(lp7663
(Vfew
p7664
g11
tp7665
a(Vhours
p7666
g47
tp7667
aasI1004
(lp7668
sI1005
(lp7669
(lp7670
(Vstupid
p7671
g11
tp7672
a(Vcomplaint
p7673
g14
tp7674
aa(lp7675
(Vlittle
p7676
g11
tp7677
a(Vbit
p7678
g14
tp7679
aa(lp7680
(Vvery
p7681
g4
tp7682
a(Vgood
p7683
g11
tp7684
aa(lp7685
g7684
a(Vgame
p7686
g14
tp7687
aasI1006
(lp7688
(lp7689
(Vvery
p7690
g4
tp7691
a(Vaddictive
p7692
g11
tp7693
aa(lp7694
(Vnew
p7695
g11
tp7696
a(Vtracks
p7697
g47
tp7698
aa(lp7699
(Vquick
p7700
g11
tp7701
a(Vcash
p7702
g14
tp7703
aasI1007
(lp7704
(lp7705
(Vn't
p7706
g4
tp7707
a(Vfreeze
p7708
g7
tp7709
aa(lp7710
(Vstill
p7711
g4
tp7712
a(Ventertaining
p7713
g128
tp7714
aa(lp7715
(VToo
p7716
g4
tp7717
a(Vmany
p7718
g11
tp7719
aa(lp7720
g7719
a(Vgames
p7721
g47
tp7722
aa(lp7723
(Vmany
p7724
g11
tp7725
a(Vbugs
p7726
g47
tp7727
aasI1008
(lp7728
sI1009
(lp7729
(lp7730
(Vvery
p7731
g4
tp7732
a(Vaddictive
p7733
g11
tp7734
aa(lp7735
(Vonly
p7736
g11
tp7737
a(Vthing
p7738
g14
tp7739
aa(lp7740
(Vnew
p7741
g11
tp7742
a(Vmotorcycle
p7743
g14
tp7744
aasI1010
(lp7745
(lp7746
(VAddictive
p7747
g11
tp7748
a(Vfun
p7749
g14
tp7750
aa(lp7751
g7750
a(V..jump.flip.break
p7752
g11
tp7753
aa(lp7754
(Vsame
p7755
g11
tp7756
a(Vlevel
p7757
g14
tp7758
aa(lp7759
(Vjust
p7760
g4
tp7761
a(Vtrying
p7762
g128
tp7763
aa(lp7764
(Vit..but
p7765
g11
tp7766
a(Vlooks
p7767
g47
tp7768
aasI1011
(lp7769
(lp7770
(Vvery
p7771
g4
tp7772
a(Vfun
p7773
g63
tp7774
aa(lp7775
(Vtechnical
p7776
g11
tp7777
a(Vdriving
p7778
g14
tp7779
aa(lp7780
(Voverly
p7781
g4
tp7782
a(Vdramatic
p7783
g11
tp7784
aasI1012
(lp7785
(lp7786
(Vcounter
p7787
g14
tp7788
a(Vproductive
p7789
g11
tp7790
aasI1013
(lp7791
(lp7792
(VReally
p7793
g4
tp7794
a(Vhelped
p7795
g156
tp7796
aasI1014
(lp7797
sI1015
(lp7798
(lp7799
(Vgreat
p7800
g11
tp7801
a(Vway
p7802
g14
tp7803
aa(lp7804
(Vpaint
p7805
g11
tp7806
a(Vjobs
p7807
g47
tp7808
aasI1016
(lp7809
(lp7810
(Vlite
p7811
g11
tp7812
a(Vblue
p7813
g11
tp7814
aa(lp7815
g7814
a(Vhard
p7816
g11
tp7817
aasI1017
(lp7818
(lp7819
(Vfirst
p7820
g4
tp7821
a(Vgot
p7822
g156
tp7823
aa(lp7824
(Vmonth
p7825
g14
tp7826
a(Vlater
p7827
g11
tp7828
aa(lp7829
g7828
a(Vwhick
p7830
g14
tp7831
aasI1018
(lp7832
(lp7833
(Vnot
p7834
g4
tp7835
a(Vtrying
p7836
g128
tp7837
aasI1019
(lp7838
(lp7839
(Vfree
p7840
g11
tp7841
a(Vthanks
p7842
g47
tp7843
aasI1020
(lp7844
(lp7845
(Vwaster
p7846
g14
tp7847
a(Vcould.add
p7848
g11
tp7849
aa(lp7850
g7849
a(Vnas
p7851
g47
tp7852
aa(lp7853
g7852
a(Vother
p7854
g11
tp7855
aasI1021
(lp7856
(lp7857
(VExtremely
p7858
g4
tp7859
a(Vaddictive
p7860
g11
tp7861
aa(lp7862
g7861
a(Vgame
p7863
g14
tp7864
aa(lp7865
(Vother
p7866
g11
tp7867
a(Vposts
p7868
g47
tp7869
aa(lp7870
(Vsimple
p7871
g11
tp7872
a(Vcolor
p7873
g14
tp7874
aa(lp7875
(Vdifferent
p7876
g11
tp7877
a(Vavatars
p7878
g47
tp7879
aa(lp7880
(Vhigh
p7881
g11
tp7882
a(Vscore
p7883
g14
tp7884
aa(lp7885
(Vn't
p7886
g4
tp7887
a(Vwait
p7888
g7
tp7889
aa(lp7890
(Vaddictive
p7891
g11
tp7892
a(Vgame
p7893
g14
tp7894
aa(lp7895
(Vvery
p7896
g4
tp7897
a(Vsimilar
p7898
g11
tp7899
aa(lp7900
(Vnot
p7901
g4
tp7902
a(Vbe
p7903
g7
tp7904
aa(lp7905
(Vmuch
p7906
g4
tp7907
a(Vdifferent
p7908
g11
tp7909
aa(lp7910
(Vgreat
p7911
g11
tp7912
a(Vchallenge
p7913
g14
tp7914
aasI1022
(lp7915
(lp7916
(Vn't
p7917
g4
tp7918
a(Vstop
p7919
g7
tp7920
aa(lp7921
(Vown
p7922
g11
tp7923
a(Vcharacter
p7924
g14
tp7925
aa(lp7926
(Valso
p7927
g4
tp7928
a(Vbe
p7929
g7
tp7930
aa(lp7931
(Vn't
p7932
g4
tp7933
a(Vdowngrade
p7934
g7
tp7935
aa(lp7936
(Vfully
p7937
g4
tp7938
a(Vupgraded
p7939
g63
tp7940
aasI1023
(lp7941
(lp7942
(Vso
p7943
g4
tp7944
a(Vaddictive
p7945
g11
tp7946
aa(lp7947
(Vn't
p7948
g4
tp7949
a(Vstop
p7950
g7
tp7951
aa(lp7952
(Vperfectly
p7953
g4
tp7954
a(Vapplied
p7955
g63
tp7956
aasI1024
(lp7957
(lp7958
(Vaddictive
p7959
g11
tp7960
a(Vgame
p7961
g14
tp7962
aa(lp7963
(Vcage
p7964
g14
tp7965
a(Vavailable
p7966
g11
tp7967
aasI1025
(lp7968
(lp7969
(Vangry
p7970
g11
tp7971
a(Vbirds
p7972
g47
tp7973
aa(lp7974
(Vmuch
p7975
g4
tp7976
a(Vfun
p7977
g63
tp7978
aasI1026
(lp7979
(lp7980
(Vso
p7981
g4
tp7982
a(Vplease
p7983
g7
tp7984
aa(lp7985
(Vso
p7986
g4
tp7987
a(Vplease
p7988
g7
tp7989
aasI1027
(lp7990
(lp7991
(VYep..at
p7992
g11
tp7993
a(Vleast
p7994
g14
tp7995
aa(lp7996
(Vrelatively
p7997
g4
tp7998
a(Veasy
p7999
g11
tp8000
aa(lp8001
g8000
a(V(
p8002
g14
tp8003
aa(lp8004
(Vtoo
p8005
g4
tp8006
a(Veasy
p8007
g11
tp8008
aa(lp8009
(Vhills/
p8010
g11
tp8011
a(Vrace
p8012
g14
tp8013
aa(lp8014
(Vcoins=power
p8015
g11
tp8016
a(Vups
p8017
g47
tp8018
aa(lp8019
(Vfast
p8020
g4
tp8021
a(g3078
g11
tp8022
aa(lp8023
g8022
a(Vflip
p8024
g14
tp8025
aasI1028
(lp8026
(lp8027
(Vfirst
p8028
g11
tp8029
a(Vtime
p8030
g14
tp8031
aa(lp8032
(Vprobably
p8033
g4
tp8034
a(Vlook
p8035
g7
tp8036
aasI1029
(lp8037
sI1030
(lp8038
sI1031
(lp8039
(lp8040
(Vlast
p8041
g11
tp8042
a(Vlevel
p8043
g14
tp8044
aasI1032
(lp8045
(lp8046
(Vonly
p8047
g11
tp8048
a(Vthing
p8049
g14
tp8050
aa(lp8051
(Valways
p8052
g4
tp8053
a(Vcrash
p8054
g11
tp8055
aasI1033
(lp8056
(lp8057
(Vnew
p8058
g11
tp8059
a(Vheights
p8060
g47
tp8061
aa(lp8062
(Vpower-driven
p8063
g11
tp8064
a(Vphysics
p8065
g14
tp8066
aa(lp8067
(Vright
p8068
g4
tp8069
a(Valongside
p8070
g7
tp8071
aasI1034
(lp8072
(lp8073
(Vnothing
p8074
g14
tp8075
a(Vspecial
p8076
g11
tp8077
aa(lp8078
(Vnever
p8079
g4
tp8080
a(Vuninstall
p8081
g7
tp8082
aasI1035
(lp8083
(lp8084
(VRealy
p8085
g4
tp8086
a(Vloved
p8087
g156
tp8088
aa(lp8089
(Vreally
p8090
g4
tp8091
a(Vaddicted
p8092
g63
tp8093
aa(lp8094
(Vfree
p8095
g11
tp8096
a(Vgame
p8097
g14
tp8098
aasI1036
(lp8099
(lp8100
(Vin-game
p8101
g11
tp8102
a(Vshop
p8103
g14
tp8104
aa(lp8105
(Vlarge
p8106
g11
tp8107
a(Vfuel
p8108
g14
tp8109
aa(lp8110
(Vfully
p8111
g4
tp8112
a(Vdone
p8113
g63
tp8114
aa(lp8115
(Vmore
p8116
g1310
tp8117
a(Vfuel
p8118
g11
tp8119
aa(lp8120
g8119
a(Vspace
p8121
g14
tp8122
aasI1037
(lp8123
sI1038
(lp8124
(lp8125
(Vso
p8126
g4
tp8127
a(Vaddictive
p8128
g11
tp8129
aa(lp8130
(Vnew
p8131
g11
tp8132
a(Vstages
p8133
g47
tp8134
aa(lp8135
(Vn't
p8136
g4
tp8137
a(Vstop
p8138
g7
tp8139
aa(lp8140
(Vn't
p8141
g4
tp8142
a(Vsay
p8143
g7
tp8144
aa(lp8145
(Vanything
p8146
g14
tp8147
a(Vnegative
p8148
g11
tp8149
aasI1039
(lp8150
(lp8151
(Vmuch
p8152
g4
tp8153
a(Vtorque
p8154
g11
tp8155
aa(lp8156
(Vgood
p8157
g11
tp8158
a(Vgame
p8159
g14
tp8160
aa(lp8161
(Vn't
p8162
g4
tp8163
a(Vbullshit
p8164
g7
tp8165
aasI1040
(lp8166
(lp8167
(Vreally
p8168
g4
tp8169
a(Vfun
p8170
g63
tp8171
aa(lp8172
(Valways
p8173
g4
tp8174
a(Vflip
p8175
g7
tp8176
aasI1041
(lp8177
(lp8178
(Vn't
p8179
g4
tp8180
a(Vput
p8181
g7
tp8182
aa(lp8183
(Vvery
p8184
g4
tp8185
a(Vgood
p8186
g11
tp8187
aa(lp8188
g8187
a(Vgame
p8189
g14
tp8190
aasI1042
(lp8191
(lp8192
(Vfirst
p8193
g4
tp8194
a(Vdownloaded
p8195
g156
tp8196
aa(lp8197
(Vsame
p8198
g11
tp8199
a(Vcontrols
p8200
g47
tp8201
aa(lp8202
(Vfamous
p8203
g11
tp8204
a(Vmultiplayer
p8205
g14
tp8206
aa(lp8207
(Veasy
p8208
g11
tp8209
a(Vpart
p8210
g14
tp8211
aa(lp8212
(Vactually
p8213
g4
tp8214
a(Vstarted
p8215
g156
tp8216
aa(lp8217
(Vquite
p8218
g4
tp8219
a(Vtough
p8220
g11
tp8221
aa(lp8222
(Vnot
p8223
g4
tp8224
a(Vappeal
p8225
g7
tp8226
aasI1043
(lp8227
(lp8228
(Vdifferent
p8229
g11
tp8230
a(Vvehicles
p8231
g47
tp8232
aasI1044
(lp8233
(lp8234
(Vreal
p8235
g11
tp8236
a(Vsmooth
p8237
g14
tp8238
aa(lp8239
(Vgreat
p8240
g11
tp8241
a(Vtime
p8242
g14
tp8243
aasI1045
(lp8244
(lp8245
(Vvery
p8246
g4
tp8247
a(Vaddicting
p8248
g128
tp8249
aasI1046
(lp8250
(lp8251
(Vmany
p8252
g11
tp8253
a(Vrewards
p8254
g47
tp8255
aasI1047
(lp8256
sI1048
(lp8257
(lp8258
(VNot
p8259
g4
tp8260
a(Vmany
p8261
g11
tp8262
aa(lp8263
(Vactually
p8264
g4
tp8265
a(Vplay
p8266
g7
tp8267
aa(lp8268
(Vnew
p8269
g11
tp8270
a(Vareas
p8271
g47
tp8272
aa(lp8273
(Veven
p8274
g4
tp8275
a(Vhad
p8276
g156
tp8277
aa(lp8278
(Vother
p8279
g11
tp8280
a(Vgames
p8281
g47
tp8282
aa(lp8283
(VNOT
p8284
g4
tp8285
a(Vbe
p8286
g7
tp8287
aasI1049
(lp8288
(lp8289
(Vgood
p8290
g11
tp8291
a(Vtime-waster
p8292
g14
tp8293
aasI1050
(lp8294
(lp8295
(Vn't
p8296
g4
tp8297
a(Vhave
p8298
g7
tp8299
aa(lp8300
(Vcool
p8301
g11
tp8302
a(Vlevels
p8303
g47
tp8304
aa(lp8305
(Vmonster
p8306
g14
tp8307
a(Vtruck.Download
p8308
g11
tp8309
aa(lp8310
(Vn't
p8311
g4
tp8312
a(Vregret
p8313
g7
tp8314
aasI1051
(lp8315
(lp8316
(Vyet
p8317
g4
tp8318
a(Vchallenging
p8319
g128
tp8320
aa(lp8321
(Vfew
p8322
g11
tp8323
a(Vthings
p8324
g47
tp8325
aa(lp8326
(Vown
p8327
g11
tp8328
a(Vrecord
p8329
g14
tp8330
aa(lp8331
(Vincrementally
p8332
g4
tp8333
a(Vmetered
p8334
g63
tp8335
aa(lp8336
(Vcomplete
p8337
g11
tp8338
a(Vstop
p8339
g14
tp8340
aa(lp8341
(Vnext
p8342
g11
tp8343
a(Vscreen
p8344
g14
tp8345
aasI1052
(lp8346
(lp8347
(Vtop
p8348
g11
tp8349
a(Vcharts
p8350
g47
tp8351
aa(lp8352
(Vreally
p8353
g4
tp8354
a(Vcool
p8355
g11
tp8356
aa(lp8357
(Vwell
p8358
g4
tp8359
a(Vdeserved
p8360
g63
tp8361
aasI1053
(lp8362
(lp8363
(Vsame
p8364
g11
tp8365
a(Vpoint
p8366
g14
tp8367
aasI1054
(lp8368
(lp8369
(Vjust
p8370
g4
tp8371
a(Vwish
p8372
g11
tp8373
aa(lp8374
(Vn't
p8375
g4
tp8376
a(Vend
p8377
g7
tp8378
aa(lp8379
(Vn't
p8380
g4
tp8381
a(Vtell
p8382
g7
tp8383
aa(lp8384
(Vmany
p8385
g11
tp8386
a(Vtimes
p8387
g47
tp8388
aasI1055
(lp8389
(lp8390
(Vle
p8391
g11
tp8392
a(Vguste
p8393
g14
tp8394
aasI1056
(lp8395
(lp8396
(Vreally
p8397
g4
tp8398
a(Vaddicting
p8399
g128
tp8400
aa(lp8401
(Vpretty
p8402
g4
tp8403
a(Vrealistic
p8404
g11
tp8405
aasI1057
(lp8406
sI1058
(lp8407
(lp8408
(Vn't
p8409
g4
tp8410
a(Vstop
p8411
g7
tp8412
aa(lp8413
(Vn't
p8414
g4
tp8415
a(Vregret
p8416
g7
tp8417
aasI1059
(lp8418
sI1060
(lp8419
(lp8420
(Vaddictive
p8421
g11
tp8422
a(Vgame
p8423
g14
tp8424
aa(lp8425
(Vlong
p8426
g11
tp8427
a(Vtime
p8428
g14
tp8429
aa(lp8430
(Vn't
p8431
g4
tp8432
a(Vwait
p8433
g7
tp8434
aa(lp8435
(VJust
p8436
g4
tp8437
a(Vwondering
p8438
g128
tp8439
aa(lp8440
(Vdifferent
p8441
g11
tp8442
a(Vbackground
p8443
g14
tp8444
aasI1061
(lp8445
sI1062
(lp8446
(lp8447
(Vgreat
p8448
g11
tp8449
a(Vgame
p8450
g14
tp8451
aa(lp8452
(Vcant
p8453
g11
tp8454
a(Vstop
p8455
g14
tp8456
aasI1063
(lp8457
sI1064
(lp8458
(lp8459
(Vgreat
p8460
g11
tp8461
a(Vgame
p8462
g14
tp8463
aa(lp8464
(Vcave
p8465
g11
tp8466
a(Vlevels
p8467
g47
tp8468
aasI1065
(lp8469
sI1066
(lp8470
(lp8471
(Vnot
p8472
g4
tp8473
a(Vexcellent
p8474
g11
tp8475
aa(lp8476
(Vgood
p8477
g11
tp8478
a(Vall
p8479
g14
tp8480
aasI1067
(lp8481
(lp8482
(Vplay
p8483
g11
tp8484
a(Vfirst
p8485
g11
tp8486
aa(lp8487
g8486
a(Vversion
p8488
g14
tp8489
aa(lp8490
(Vbad
p8491
g11
tp8492
a(Veng
p8493
g14
tp8494
aasI1068
(lp8495
(lp8496
(Vn't
p8497
g4
tp8498
a(Vget
p8499
g7
tp8500
aa(lp8501
(VIts
p8502
g47
tp8503
a(Vgreat
p8504
g11
tp8505
aasI1069
(lp8506
(lp8507
(Vbirds
p8508
g47
tp8509
a(Vanimal
p8510
g11
tp8511
aa(lp8512
g8511
a(Vefecs
p8513
g47
tp8514
aasI1070
(lp8515
(lp8516
(Vtoo
p8517
g4
tp8518
a(Vmuch
p8519
g11
tp8520
aa(lp8521
g8520
a(Vfun
p8522
g14
tp8523
aa(lp8524
(Vmore
p8525
g1310
tp8526
a(Vrealistic
p8527
g11
tp8528
aa(lp8529
g8528
a(Vsounds
p8530
g47
tp8531
aa(lp8532
(Vfully
p8533
g4
tp8534
a(Vmodified
p8535
g63
tp8536
aa(lp8537
(Vn't
p8538
g4
tp8539
a(Vsound
p8540
g7
tp8541
aasI1071
(lp8542
sI1072
(lp8543
(lp8544
(Vvery
p8545
g4
tp8546
a(Vannoying
p8547
g128
tp8548
aa(lp8549
(Vvery
p8550
g4
tp8551
a(Vangry
p8552
g11
tp8553
aa(lp8554
g8553
a(Vvhen
p8555
g47
tp8556
aasI1073
(lp8557
(lp8558
(VNeeds
p8559
g47
tp8560
a(Vnew
p8561
g11
tp8562
aa(lp8563
g8562
a(Vvehicles
p8564
g47
tp8565
aa(lp8566
(Vdirtbikes
p8567
g47
tp8568
a(Vgood
p8569
g11
tp8570
aasI1074
(lp8571
(lp8572
(Vlong
p8573
g11
tp8574
a(Vtime
p8575
g14
tp8576
aasI1075
(lp8577
(lp8578
(Vgreat
p8579
g11
tp8580
a(Vgame
p8581
g14
tp8582
aa(lp8583
(Vnew
p8584
g11
tp8585
a(Vcareer
p8586
g14
tp8587
aasI1076
(lp8588
(lp8589
(Vanyways
p8590
g47
tp8591
a(Vgood
p8592
g11
tp8593
aasI1077
(lp8594
(lp8595
(Vgreat
p8596
g11
tp8597
a(Vgame
p8598
g14
tp8599
aa(lp8600
(Vever
p8601
g4
tp8602
a(Vplayed
p8603
g63
tp8604
aasI1078
(lp8605
(lp8606
(Vgreat
p8607
g11
tp8608
a(Vfun
p8609
g14
tp8610
aa(lp8611
(Vsame
p8612
g11
tp8613
a(Vtime
p8614
g14
tp8615
aasI1079
(lp8616
sI1080
(lp8617
sI1081
(lp8618
(lp8619
(Vreally
p8620
g4
tp8621
a(Venjoyable
p8622
g11
tp8623
aa(lp8624
g8623
a(Vgame
p8625
g14
tp8626
aa(lp8627
(Vfew
p8628
g11
tp8629
a(Vtimes
p8630
g47
tp8631
aasI1082
(lp8632
(lp8633
(Vyear
p8634
g14
tp8635
a(Vold
p8636
g11
tp8637
aa(lp8638
g8637
a(Vson
p8639
g14
tp8640
aa(lp8641
(Vgood
p8642
g11
tp8643
a(Vgame
p8644
g14
tp8645
aasI1083
(lp8646
(lp8647
(Vair
p8648
g11
tp8649
a(Vtime
p8650
g14
tp8651
aa(lp8652
(VN'T
p8653
g4
tp8654
a(Vlose
p8655
g7
tp8656
aa(lp8657
(Vnot
p8658
g4
tp8659
a(Vmoving
p8660
g128
tp8661
aa(lp8662
(Vjust
p8663
g4
tp8664
a(Vhaving
p8665
g128
tp8666
aasI1084
(lp8667
(lp8668
(Vgood
p8669
g11
tp8670
a(Vfun
p8671
g14
tp8672
aa(lp8673
(Voverall
p8674
g11
tp8675
a(Vgreat
p8676
g11
tp8677
aa(lp8678
g8677
a(Vgame
p8679
g14
tp8680
aasI1085
(lp8681
(lp8682
(Vnot
p8683
g4
tp8684
a(Vbusy
p8685
g11
tp8686
aa(lp8687
g8686
a(Vyea
p8688
g14
tp8689
aa(lp8690
(Vnot
p8691
g4
tp8692
a(Vbusy
p8693
g11
tp8694
aa(lp8695
(Veven
p8696
g4
tp8697
a(Vput
p8698
g63
tp8699
aasI1086
(lp8700
(lp8701
(Vdifficult
p8702
g11
tp8703
a(Venough
p8704
g11
tp8705
aa(lp8706
(Vwell
p8707
g4
tp8708
a(Vplaced
p8709
g63
tp8710
aa(lp8711
(Vn't
p8712
g4
tp8713
a(Vget
p8714
g7
tp8715
aa(lp8716
(Vbig
p8717
g11
tp8718
a(Vplus
p8719
g14
tp8720
aa(lp8721
(Vactually
p8722
g4
tp8723
a(Vsit
p8724
g7
tp8725
aasI1087
(lp8726
sI1088
(lp8727
(lp8728
(Vmuch
p8729
g4
tp8730
a(Vfun
p8731
g63
tp8732
aa(lp8733
(Vn't
p8734
g4
tp8735
a(Vstop
p8736
g7
tp8737
aa(lp8738
(Vn't
p8739
g4
tp8740
a(Vtake
p8741
g7
tp8742
aa(lp8743
(Vmuch
p8744
g11
tp8745
a(Vspace
p8746
g14
tp8747
aasI1089
(lp8748
(lp8749
(Vstrategic
p8750
g11
tp8751
a(Vtimes
p8752
g47
tp8753
aasI1090
(lp8754
(lp8755
(Vlong
p8756
g4
tp8757
a(Vhad
p8758
g156
tp8759
aa(lp8760
(Vnumerous
p8761
g11
tp8762
a(Vhours
p8763
g47
tp8764
aa(lp8765
(Vreally
p8766
g4
tp8767
a(Vaddictive
p8768
g11
tp8769
aa(lp8770
(Vwell
p8771
g4
tp8772
a(Vdone
p8773
g63
tp8774
aasI1091
(lp8775
(lp8776
(Vlast
p8777
g11
tp8778
a(Vweek
p8779
g14
tp8780
aa(lp8781
(Vvery
p8782
g4
tp8783
a(Vaddicting
p8784
g128
tp8785
aa(lp8786
(Vout-of-game
p8787
g11
tp8788
a(Vpurchases
p8789
g47
tp8790
aa(lp8791
(Vnot
p8792
g4
tp8793
a(Vimpossible
p8794
g11
tp8795
aa(lp8796
(Vincredibly
p8797
g4
tp8798
a(Veasy
p8799
g11
tp8800
aa(lp8801
g8800
a(Veither
p8802
g14
tp8803
aa(lp8804
(Vlast
p8805
g11
tp8806
a(Vthing
p8807
g14
tp8808
aa(lp8809
(Vvery
p8810
g4
tp8811
a(Vlight
p8812
g11
tp8813
aa(lp8814
(Vwheras
p8815
g47
tp8816
a(Vother
p8817
g11
tp8818
aa(lp8819
g8818
a(Vapps
p8820
g47
tp8821
aa(lp8822
(Vimpressive
p8823
g11
tp8824
a(Vgraphics
p8825
g47
tp8826
aasI1092
(lp8827
(lp8828
(Vgolden
p8829
g11
tp8830
a(Vrims
p8831
g47
tp8832
aasI1093
(lp8833
(lp8834
(Vgames
p8835
g47
tp8836
a(Vavailable
p8837
g11
tp8838
aa(lp8839
(Vunique
p8840
g11
tp8841
a(Vvehicles
p8842
g47
tp8843
aasI1094
(lp8844
sI1095
(lp8845
sI1096
(lp8846
(lp8847
(Vn't
p8848
g4
tp8849
a(Vmake
p8850
g7
tp8851
aasI1097
(lp8852
(lp8853
(VFully
p8854
g4
tp8855
a(Vupgraded
p8856
g156
tp8857
aa(lp8858
(VThen
p8859
g4
tp8860
a(Vunlocked
p8861
g156
tp8862
aa(lp8863
(VThen
p8864
g4
tp8865
a(Vgot
p8866
g156
tp8867
aasI1098
(lp8868
(lp8869
(Vreally
p8870
g4
tp8871
a(Vboring
p8872
g128
tp8873
aasI1099
(lp8874
(lp8875
(Vn't
p8876
g4
tp8877
a(Vexplored
p8878
g63
tp8879
aa(lp8880
(Vwell
p8881
g4
tp8882
a(Vdesigned
p8883
g63
tp8884
aa(lp8885
(Vreally
p8886
g4
tp8887
a(Vexcellent
p8888
g11
tp8889
aa(lp8890
g8889
a(Vfeel
p8891
g14
tp8892
aasI1100
(lp8893
(lp8894
(Vn't
p8895
g4
tp8896
a(Vstopped
p8897
g63
tp8898
aa(lp8899
(Vsecond
p8900
g11
tp8901
a(Vmap
p8902
g14
tp8903
aasI1101
(lp8904
(lp8905
(Vvery
p8906
g4
tp8907
a(Vlong
p8908
g11
tp8909
aasI1102
(lp8910
sI1103
(lp8911
(lp8912
(Vn't
p8913
g4
tp8914
a(Vstop
p8915
g7
tp8916
aasI1104
(lp8917
(lp8918
(Vtotally
p8919
g4
tp8920
a(Vaddictive
p8921
g11
tp8922
aa(lp8923
(Vn't
p8924
g4
tp8925
a(Vwork
p8926
g7
tp8927
aasI1105
(lp8928
(lp8929
(Vjust
p8930
g4
tp8931
a(Vwent
p8932
g156
tp8933
aa(lp8934
(Vnot
p8935
g4
tp8936
a(Vopen
p8937
g7
tp8938
aasI1106
(lp8939
(lp8940
(Vmany
p8941
g11
tp8942
a(Vgames
p8943
g47
tp8944
aasI1107
(lp8945
(lp8946
(Vsocial
p8947
g11
tp8948
a(Vmisfit
p8949
g14
tp8950
aasI1108
(lp8951
(lp8952
(Vn't
p8953
g4
tp8954
a(Vwork
p8955
g7
tp8956
aa(lp8957
(Vnot
p8958
g4
tp8959
a(Vgood
p8960
g11
tp8961
aa(lp8962
g8961
a(Veither
p8963
g14
tp8964
aa(lp8965
(Vnot
p8966
g4
tp8967
a(Vtime
p8968
g7
tp8969
aa(lp8970
(Vonly
p8971
g11
tp8972
a(Vthing
p8973
g14
tp8974
aasI1109
(lp8975
sI1110
(lp8976
sI1111
(lp8977
(lp8978
(Vpretty
p8979
g4
tp8980
a(Vcheap
p8981
g7
tp8982
aa(lp8983
(Vvery
p8984
g4
tp8985
a(Vfun
p8986
g63
tp8987
aasI1112
(lp8988
(lp8989
(Vcurrently
p8990
g4
tp8991
a(Vsaved
p8992
g63
tp8993
aa(lp8994
(Vnew
p8995
g11
tp8996
a(Vcars
p8997
g47
tp8998
aa(lp8999
(Vpossibly
p9000
g4
tp9001
a(Vadd
p9002
g11
tp9003
aa(lp9004
g9003
a(Vaddons
p9005
g47
tp9006
aa(lp9007
(Vposaibly
p9008
g4
tp9009
a(Vadd
p9010
g11
tp9011
aa(lp9012
g9011
a(Vcountries
p9013
g47
tp9014
aasI1113
(lp9015
(lp9016
(Vjust
p9017
g4
tp9018
a(Ventertaining
p9019
g128
tp9020
aa(lp9021
(Vgreat
p9022
g11
tp9023
a(Vway
p9024
g14
tp9025
aasI1114
(lp9026
(lp9027
(Vgreat
p9028
g11
tp9029
a(Vgame
p9030
g14
tp9031
aa(lp9032
(Veven
p9033
g4
tp9034
a(Vgot
p9035
g156
tp9036
aasI1115
(lp9037
(lp9038
(Vwell
p9039
g4
tp9040
a(Vdeveloped
p9041
g63
tp9042
aasI1116
(lp9043
sI1117
(lp9044
(lp9045
(Vever
p9046
g4
tp9047
a(Vseen
p9048
g63
tp9049
aasI1118
(lp9050
(lp9051
(Vmaybe
p9052
g4
tp9053
a(Vfifteen
p9054
g63
tp9055
aa(lp9056
(Vn't
p9057
g4
tp9058
a(Vanalog
p9059
g11
tp9060
aa(lp9061
(Vnot
p9062
g4
tp9063
a(Vfun
p9064
g7
tp9065
aa(lp9066
(Vnoticeable
p9067
g11
tp9068
a(Vdifferences
p9069
g47
tp9070
aa(lp9071
(Vgreat
p9072
g11
tp9073
a(Vtime
p9074
g14
tp9075
aasI1119
(lp9076
sI1120
(lp9077
sI1121
(lp9078
sI1122
(lp9079
(lp9080
(Vn't
p9081
g4
tp9082
a(Vdownload
p9083
g7
tp9084
aasI1123
(lp9085
sI1124
(lp9086
(lp9087
(Vmaybe
p9088
g4
tp9089
a(Vadd
p9090
g11
tp9091
aasI1125
(lp9092
(lp9093
(Vmuch
p9094
g4
tp9095
a(Vtime
p9096
g7
tp9097
aasI1126
(lp9098
(lp9099
(Vnot
p9100
g4
tp9101
a(Vexplain
p9102
g7
tp9103
aasI1127
(lp9104
(lp9105
(Vn't
p9106
g4
tp9107
a(Vstop
p9108
g7
tp9109
aasI1128
(lp9110
(lp9111
(Vn't
p9112
g4
tp9113
a(Vput
p9114
g7
tp9115
aa(lp9116
(V.my
p9117
g11
tp9118
a(Vkids
p9119
g47
tp9120
aa(lp9121
(V.my
p9122
g11
tp9123
a(Vfriends
p9124
g47
tp9125
aa(lp9126
(V..my
p9127
g11
tp9128
a(Vdog
p9129
g14
tp9130
aa(lp9131
(Vn't
p9132
g4
tp9133
a(Vlove
p9134
g7
tp9135
aa(lp9136
(Vnext
p9137
g11
tp9138
a(Vupdste
p9139
g14
tp9140
aasI1129
(lp9141
sI1130
(lp9142
(lp9143
(Vtricky
p9144
g11
tp9145
a(Vgame
p9146
g14
tp9147
aasI1131
(lp9148
sI1132
(lp9149
(lp9150
(Vlittle
p9151
g11
tp9152
a(Vgame
p9153
g14
tp9154
aa(lp9155
(Vreal
p9156
g11
tp9157
a(Vmoney
p9158
g14
tp9159
aa(lp9160
(VHighly
p9161
g4
tp9162
a(Vrecommended
p9163
g156
tp9164
aasI1133
(lp9165
sI1134
(lp9166
(lp9167
(Vsimple
p9168
g11
tp9169
a(Vconcept
p9170
g14
tp9171
aa(lp9172
(Vvehicles
p9173
g47
tp9174
a(Vand/or
p9175
g11
tp9176
aa(lp9177
g9176
a(Vmaps
p9178
g47
tp9179
aasI1135
(lp9180
(lp9181
(Vreally
p9182
g4
tp9183
a(Vgood
p9184
g11
tp9185
aasI1136
(lp9186
(lp9187
(Vmore
p9188
g1310
tp9189
a(Vupgrade
p9190
g11
tp9191
aa(lp9192
(Vever
p9193
g4
tp9194
a(Vseen
p9195
g63
tp9196
aasI1137
(lp9197
(lp9198
(Vslow
p9199
g11
tp9200
a(Vupdates
p9201
g47
tp9202
aa(lp9203
(Vstill
p9204
g4
tp9205
a(Vleft
p9206
g63
tp9207
aasI1138
(lp9208
sI1139
(lp9209
sI1140
(lp9210
(lp9211
(VConstantly
p9212
g4
tp9213
a(Vbeing
p9214
g128
tp9215
aa(lp9216
(Vgame
p9217
g14
tp9218
a(Vavailable
p9219
g11
tp9220
aa(lp9221
(Vmost
p9222
g191
tp9223
a(Vinnovative
p9224
g11
tp9225
aa(lp9226
(Vthen
p9227
g4
tp9228
a(Vbrake
p9229
g7
tp9230
aasI1141
(lp9231
(lp9232
(Vjust
p9233
g4
tp9234
a(Vhuge
p9235
g11
tp9236
aa(lp9237
g9236
a(Vjumps
p9238
g47
tp9239
aasI1142
(lp9240
(lp9241
(VIncredible
p9242
g11
tp9243
a(Vfun
p9244
g14
tp9245
aa(lp9246
(Vonly
p9247
g11
tp9248
a(Vproblem
p9249
g14
tp9250
aa(lp9251
(Vmusic/SFX
p9252
g11
tp9253
a(Vtoggle
p9254
g14
tp9255
aasI1143
(lp9256
(lp9257
(Veasy
p9258
g11
tp9259
a(Vcoins
p9260
g47
tp9261
aa(lp9262
(Vtoo
p9263
g4
tp9264
a(Vexpensive
p9265
g11
tp9266
aa(lp9267
(Vother
p9268
g11
tp9269
a(Vstages
p9270
g47
tp9271
aasI1144
(lp9272
(lp9273
(Vvery
p9274
g4
tp9275
a(Ventertaining
p9276
g128
tp9277
aa(lp9278
(Vonly
p9279
g4
tp9280
a(Vwish
p9281
g11
tp9282
aasI1145
(lp9283
(lp9284
(Vonly
p9285
g11
tp9286
a(Vthing
p9287
g14
tp9288
aa(lp9289
(Vupgrades
p9290
g47
tp9291
a(Vother
p9292
g11
tp9293
aasI1146
(lp9294
(lp9295
(Vother
p9296
g11
tp9297
a(Vcars
p9298
g47
tp9299
aa(lp9300
(Vchoosable
p9301
g11
tp9302
a(Vcolours
p9303
g47
tp9304
aa(lp9305
(Vcountry
p9306
g14
tp9307
a(Vhigh
p9308
g11
tp9309
aa(lp9310
g9309
a(Vscore
p9311
g14
tp9312
aasI1147
(lp9313
(lp9314
(Vjust
p9315
g4
tp9316
a(Vtotal
p9317
g11
tp9318
aasI1148
(lp9319
(lp9320
(Vstill
p9321
g4
tp9322
a(Vaddicting
p9323
g128
tp9324
aa(lp9325
(Vhard
p9326
g11
tp9327
a(Vwork
p9328
g14
tp9329
aasI1149
(lp9330
(lp9331
(Vjust
p9332
g4
tp9333
a(Vplain
p9334
g11
tp9335
aa(lp9336
(Vgreat
p9337
g11
tp9338
a(Ventertainment
p9339
g14
tp9340
aasI1150
(lp9341
sI1151
(lp9342
sI1152
(lp9343
(lp9344
(Vown
p9345
g11
tp9346
a(Vunique
p9347
g14
tp9348
aa(lp9349
(Vawsome
p9350
g14
tp9351
a(Vfree
p9352
g11
tp9353
aa(lp9354
g9353
a(Vgame
p9355
g14
tp9356
aasI1153
(lp9357
(lp9358
(VHighly
p9359
g4
tp9360
a(Vaddictive
p9361
g11
tp9362
aa(lp9363
(Vn't
p9364
g4
tp9365
a(Vput
p9366
g7
tp9367
aa(lp9368
(Vfunny
p9369
g11
tp9370
a(Vbouncing
p9371
g14
tp9372
aa(lp9373
(Vnext
p9374
g11
tp9375
a(Vbreak
p9376
g14
tp9377
aasI1154
(lp9378
(lp9379
(Vquite
p9380
g4
tp9381
a(Vgood
p9382
g11
tp9383
aa(lp9384
(Vvery
p9385
g4
tp9386
a(Vannoyed
p9387
g63
tp9388
aasI1155
(lp9389
(lp9390
(Vonly
p9391
g11
tp9392
a(Vthing
p9393
g14
tp9394
aasI1156
(lp9395
sI1157
(lp9396
(lp9397
(Vhighly
p9398
g4
tp9399
a(Vrecommended
p9400
g156
tp9401
aasI1158
(lp9402
(lp9403
(Vvery
p9404
g4
tp9405
a(Vgood
p9406
g11
tp9407
aa(lp9408
(Vdown
p9409
g4
tp9410
a(Vgrading
p9411
g128
tp9412
aa(lp9413
(Velse
p9414
g4
tp9415
a(Vhaving
p9416
g128
tp9417
aasI1159
(lp9418
(lp9419
(Vgreat
p9420
g11
tp9421
a(Vgame
p9422
g14
tp9423
aa(lp9424
(Vvery
p9425
g4
tp9426
a(Vaddictive
p9427
g11
tp9428
aa(lp9429
(Vdifferent
p9430
g11
tp9431
a(Vlevels
p9432
g47
tp9433
aa(lp9434
(Vonly
p9435
g11
tp9436
a(Vthing
p9437
g14
tp9438
aasI1160
(lp9439
(lp9440
(Vrather
p9441
g4
tp9442
a(Vannoying
p9443
g128
tp9444
aa(lp9445
(Vpretty
p9446
g4
tp9447
a(Vaddictive
p9448
g11
tp9449
aa(lp9450
g9449
a(Vlittle
p9451
g11
tp9452
aa(lp9453
g9452
a(Vgame
p9454
g14
tp9455
aasI1161
(lp9456
(lp9457
(Vnew
p9458
g11
tp9459
a(Vmotorcycle
p9460
g14
tp9461
aa(lp9462
(Vtoo
p9463
g4
tp9464
a(Vlarge
p9465
g11
tp9466
aa(lp9467
(Vabsolutely
p9468
g4
tp9469
a(Vfantastic
p9470
g11
tp9471
aa(lp9472
g9471
a(Vgame
p9473
g14
tp9474
aasI1162
(lp9475
sI1163
(lp9476
(lp9477
(Vjust
p9478
g4
tp9479
a(Vcollecting
p9480
g128
tp9481
aa(lp9482
(V7mil
p9483
g11
tp9484
a(Vcoins
p9485
g47
tp9486
aasI1164
(lp9487
(lp9488
(VAbsolutely
p9489
g4
tp9490
a(Vloving
p9491
g128
tp9492
aasI1165
(lp9493
(lp9494
(Vmore
p9495
g1310
tp9496
a(Vexpensive
p9497
g11
tp9498
aa(lp9499
(Vonly
p9500
g4
tp9501
a(Vrun
p9502
g7
tp9503
aasI1166
(lp9504
(lp9505
(Vnot
p9506
g4
tp9507
a(Vending
p9508
g128
tp9509
aa(lp9510
(Vminor
p9511
g11
tp9512
a(Vneck
p9513
g14
tp9514
aasI1167
(lp9515
(lp9516
(Vreally
p9517
g4
tp9518
a(Vfun
p9519
g63
tp9520
aa(lp9521
(Vgood
p9522
g11
tp9523
a(Vtime
p9524
g14
tp9525
aa(lp9526
(Vso
p9527
g4
tp9528
a(Vboring
p9529
g128
tp9530
aasI1168
(lp9531
sI1169
(lp9532
(lp9533
(Veasily
p9534
g4
tp9535
a(Vaddicted
p9536
g63
tp9537
aasI1170
(lp9538
sI1171
(lp9539
(lp9540
(Vthen
p9541
g4
tp9542
a(Vkind
p9543
g11
tp9544
aasI1172
(lp9545
(lp9546
(Vaccidentally
p9547
g4
tp9548
a(Vhit
p9549
g156
tp9550
aa(lp9551
(Vbuyable
p9552
g11
tp9553
a(g8002
g14
tp9554
aasI1173
(lp9555
(lp9556
(VOtherwise
p9557
g4
tp9558
a(Vstable
p9559
g11
tp9560
aasI1174
(lp9561
sI1175
(lp9562
(lp9563
(Vfavorite
p9564
g11
tp9565
a(Vgame
p9566
g14
tp9567
aa(lp9568
(Vnew
p9569
g11
tp9570
a(Vdirt
p9571
g14
tp9572
aasI1176
(lp9573
(lp9574
(Vnew
p9575
g11
tp9576
a(Vgame
p9577
g14
tp9578
aa(lp9579
(Vcertain
p9580
g11
tp9581
a(Vtime
p9582
g14
tp9583
aa(lp9584
(VAlso
p9585
g4
tp9586
a(Vadd
p9587
g156
tp9588
aa(lp9589
(Vjust
p9590
g4
tp9591
a(Vred
p9592
g63
tp9593
aa(lp9594
(Vdefiantly
p9595
g4
tp9596
a(Vgive
p9597
g7
tp9598
aasI1177
(lp9599
(lp9600
(Vcurrent
p9601
g11
tp9602
a(Vrider
p9603
g14
tp9604
aasI1178
(lp9605
(lp9606
(Vgreat
p9607
g11
tp9608
a(Vgame
p9609
g14
tp9610
aa(lp9611
(Vfew
p9612
g11
tp9613
a(Videas
p9614
g47
tp9615
aa(lp9616
g9615
a(V-be
p9617
g11
tp9618
aa(lp9619
g9618
a(Vable
p9620
g11
tp9621
aasI1179
(lp9622
(lp9623
(Vgreat
p9624
g11
tp9625
a(Vfun
p9626
g14
tp9627
aa(lp9628
(Vlong
p9629
g11
tp9630
a(Vtime
p9631
g14
tp9632
aa(lp9633
(Vfirst
p9634
g11
tp9635
a(Vlevels
p9636
g47
tp9637
aa(lp9638
(Vreally
p9639
g4
tp9640
a(Vgood
p9641
g11
tp9642
aa(lp9643
g9642
a(Vfun
p9644
g14
tp9645
aasI1180
(lp9646
(lp9647
(VPretty
p9648
g4
tp9649
a(Vswell
p9650
g156
tp9651
aa(lp9652
(Vfully
p9653
g4
tp9654
a(Vupgrade
p9655
g63
tp9656
aasI1181
(lp9657
(lp9658
(Vother
p9659
g11
tp9660
a(Vcars
p9661
g47
tp9662
aasI1182
(lp9663
sI1183
(lp9664
(lp9665
(Vmobile
p9666
g11
tp9667
a(Vgames
p9668
g47
tp9669
aa(lp9670
(Vever
p9671
g4
tp9672
a(Vplayed
p9673
g63
tp9674
aa(lp9675
(Vnever
p9676
g4
tp9677
a(Vget
p9678
g7
tp9679
aasI1184
(lp9680
(lp9681
(Vsometimes
p9682
g4
tp9683
a(Vfrustrating
p9684
g128
tp9685
aasI1185
(lp9686
(lp9687
(Vlittle
p9688
g4
tp9689
a(Vfrustrating
p9690
g128
tp9691
aa(lp9692
(Vdefinitely
p9693
g4
tp9694
a(Vworth
p9695
g11
tp9696
aasI1186
(lp9697
sI1187
(lp9698
(lp9699
(Vnew
p9700
g11
tp9701
a(Vcharacters
p9702
g47
tp9703
aasI1188
(lp9704
(lp9705
(Vnext
p9706
g11
tp9707
a(Vdistance
p9708
g14
tp9709
aasI1189
(lp9710
(lp9711
(Vn't
p9712
g4
tp9713
a(Vuse
p9714
g7
tp9715
aasI1190
(lp9716
(lp9717
(Vsimple
p9718
g11
tp9719
a(Vfun
p9720
g14
tp9721
aasI1191
(lp9722
(lp9723
(Vgood
p9724
g11
tp9725
a(Vtime
p9726
g14
tp9727
aa(lp9728
(Vsuper
p9729
g14
tp9730
a(Veasy
p9731
g11
tp9732
aa(lp9733
(Vonly
p9734
g11
tp9735
a(Vthing
p9736
g14
tp9737
aa(lp9738
(Vn't
p9739
g4
tp9740
a(Vquite
p9741
g7
tp9742
aasI1192
(lp9743
sI1193
(lp9744
(lp9745
(Vhighly
p9746
g4
tp9747
a(Vaddictive
p9748
g11
tp9749
aa(lp9750
(Vgreat
p9751
g11
tp9752
a(Vtime
p9753
g14
tp9754
aa(lp9755
(V22mil
p9756
g11
tp9757
a(Vcoins
p9758
g47
tp9759
aa(lp9760
(Vtoo
p9761
g4
tp9762
a(Vsee
p9763
g7
tp9764
aasI1194
(lp9765
(lp9766
(Vso
p9767
g4
tp9768
a(Vaddictive
p9769
g11
tp9770
aa(lp9771
(Vso
p9772
g4
tp9773
a(Vhard
p9774
g11
tp9775
aasI1195
(lp9776
sI1196
(lp9777
(lp9778
(Vmore
p9779
g1310
tp9780
a(Vadicting
p9781
g128
tp9782
aa(lp9783
(Vnow.well
p9784
g11
tp9785
a(Vdone
p9786
g14
tp9787
aasI1197
(lp9788
(lp9789
(Vvaried
p9790
g11
tp9791
a(Vversion
p9792
g14
tp9793
aa(lp9794
(Vcurrent
p9795
g11
tp9796
a(Vupgrades
p9797
g47
tp9798
aasI1198
(lp9799
sI1199
(lp9800
(lp9801
(Vvaried
p9802
g11
tp9803
a(Vversion
p9804
g14
tp9805
aa(lp9806
(Vcurrent
p9807
g11
tp9808
a(Vupgrades
p9809
g47
tp9810
aasI1200
(lp9811
(lp9812
(Vneck-crunching
p9813
g11
tp9814
a(Vfun
p9815
g14
tp9816
aa(lp9817
(Vn't
p9818
g4
tp9819
a(Vstop
p9820
g7
tp9821
aasI1201
(lp9822
(lp9823
(Vaddictive
p9824
g11
tp9825
a(Vgame
p9826
g14
tp9827
aasI1202
(lp9828
(lp9829
(Vsimple
p9830
g11
tp9831
a(Vfun
p9832
g14
tp9833
aasI1203
(lp9834
(lp9835
(Vgood
p9836
g11
tp9837
a(Vtime
p9838
g14
tp9839
aa(lp9840
(Vsuper
p9841
g14
tp9842
a(Veasy
p9843
g11
tp9844
aa(lp9845
(Vonly
p9846
g11
tp9847
a(Vthing
p9848
g14
tp9849
aa(lp9850
(Vn't
p9851
g4
tp9852
a(Vquite
p9853
g7
tp9854
aasI1204
(lp9855
(lp9856
(Vdifferent
p9857
g11
tp9858
a(Vvehicals
p9859
g47
tp9860
aasI1205
(lp9861
(lp9862
(Vever
p9863
g4
tp9864
a(Vplayed
p9865
g63
tp9866
aa(lp9867
(Vnot
p9868
g4
tp9869
a(Vhave
p9870
g7
tp9871
aa(lp9872
(Voverly
p9873
g4
tp9874
a(Vannoying
p9875
g128
tp9876
aa(lp9877
(Vextremely
p9878
g4
tp9879
a(Vaddictive
p9880
g11
tp9881
aa(lp9882
(Vmuch
p9883
g4
tp9884
a(Vtime
p9885
g7
tp9886
aasI1206
(lp9887
(lp9888
(Vn't
p9889
g4
tp9890
a(Vput
p9891
g7
tp9892
aa(lp9893
(Vtotally
p9894
g4
tp9895
a(Vaddictive
p9896
g11
tp9897
aa(lp9898
(Vsame
p9899
g11
tp9900
a(Vboring
p9901
g14
tp9902
aasI1207
(lp9903
(lp9904
(Vn't
p9905
g4
tp9906
a(Vuse
p9907
g7
tp9908
aasI1208
(lp9909
(lp9910
(Vconstructive
p9911
g11
tp9912
a(Vcriticism
p9913
g14
tp9914
aa(lp9915
(Vtutorial
p9916
g11
tp9917
a(Vintroduction
p9918
g14
tp9919
aa(lp9920
(Vown
p9921
g11
tp9922
a(Vthing
p9923
g14
tp9924
aasI1209
(lp9925
sI1210
(lp9926
sI1211
(lp9927
sI1212
(lp9928
sI1213
(lp9929
(lp9930
(Vaddictive
p9931
g11
tp9932
a(Vgame
p9933
g14
tp9934
aasI1214
(lp9935
(lp9936
(Vother
p9937
g11
tp9938
a(Vcar
p9939
g14
tp9940
aa(lp9941
(Vsimple
p9942
g11
tp9943
a(Vfast
p9944
g14
tp9945
aa(lp9946
(Vyet
p9947
g4
tp9948
a(Vengrossing
p9949
g128
tp9950
aasI1215
(lp9951
(lp9952
(Vdifferent
p9953
g11
tp9954
a(Vvehicals
p9955
g47
tp9956
aasI1216
(lp9957
(lp9958
(Vever
p9959
g4
tp9960
a(Vplayed
p9961
g63
tp9962
aa(lp9963
(Vnot
p9964
g4
tp9965
a(Vhave
p9966
g7
tp9967
aa(lp9968
(Voverly
p9969
g4
tp9970
a(Vannoying
p9971
g128
tp9972
aa(lp9973
(Vextremely
p9974
g4
tp9975
a(Vaddictive
p9976
g11
tp9977
aa(lp9978
(Vmuch
p9979
g4
tp9980
a(Vtime
p9981
g7
tp9982
aasI1217
(lp9983
(lp9984
(Vreally
p9985
g4
tp9986
a(Vaddicting
p9987
g128
tp9988
aasI1218
(lp9989
(lp9990
(Vn't
p9991
g4
tp9992
a(Vput
p9993
g7
tp9994
aa(lp9995
(Vtotally
p9996
g4
tp9997
a(Vaddictive
p9998
g11
tp9999
aa(lp10000
(Vsame
p10001
g11
tp10002
a(Vboring
p10003
g14
tp10004
aas.