(dp0
I0
(lp1
(lp2
(Vn't
p3
S'RB'
p4
tp5
a(Vcuz
p6
S'VB'
p7
tp8
aa(lp9
(Vvery
p10
S'JJ'
p11
tp12
a(Vannoying
p13
S'NN'
p14
tp15
aasI1
(lp16
(lp17
(V-step
p18
g11
tp19
a(Vrequirement
p20
g14
tp21
aa(lp22
(Vthen
p23
g4
tp24
a(Vexit
p25
g7
tp26
aa(lp27
(Vonly
p28
g4
tp29
a(Vtake
p30
g7
tp31
aa(lp32
(Vnot
p33
g4
tp34
a(Vlet
p35
g7
tp36
aasI2
(lp37
(lp38
(Vvery
p39
g4
tp40
a(Vgood
p41
g11
tp42
aa(lp43
(Vprevious
p44
g11
tp45
a(Vgames
p46
S'NNS'
p47
tp48
aa(lp49
(Va
p50
S'DT'
p51
tp52
a(Vdifferent
p53
g11
tp54
aa(lp55
g54
a(Vtwist
p56
g14
tp57
aa(lp58
(Vn't
p59
g4
tp60
a(Vbeat
p61
g7
tp62
aa(lp63
(Vvery
p64
g4
tp65
a(Vfun
p66
S'VBN'
p67
tp68
aasI3
(lp69
(lp70
(Vn't
p71
g4
tp72
a(Vcuz
p73
g7
tp74
aa(lp75
(Vvery
p76
g11
tp77
a(Vannoying
p78
g14
tp79
aasI4
(lp80
(lp81
(V-step
p82
g11
tp83
a(Vrequirement
p84
g14
tp85
aa(lp86
(Vthen
p87
g4
tp88
a(Vexit
p89
g7
tp90
aa(lp91
(Vonly
p92
g4
tp93
a(Vtake
p94
g7
tp95
aa(lp96
(Vnot
p97
g4
tp98
a(Vlet
p99
g7
tp100
aasI5
(lp101
(lp102
(Vvery
p103
g4
tp104
a(Vgood
p105
g11
tp106
aa(lp107
(Vprevious
p108
g11
tp109
a(Vgames
p110
g47
tp111
aa(lp112
(g50
g51
tp113
a(Vdifferent
p114
g11
tp115
aa(lp116
g115
a(Vtwist
p117
g14
tp118
aa(lp119
(Vn't
p120
g4
tp121
a(Vbeat
p122
g7
tp123
aa(lp124
(Vvery
p125
g4
tp126
a(Vfun
p127
g67
tp128
aasI6
(lp129
(lp130
(Vpretty
p131
g4
tp132
a(Vfreaking
p133
S'VBG'
p134
tp135
aa(lp136
(Vsomething
p137
g14
tp138
a(Vnew
p139
g11
tp140
aasI7
(lp141
(lp142
(VReally
p143
g4
tp144
a(Vloving
p145
g134
tp146
aa(lp147
(Vso
p148
g4
tp149
a(Vcool
p150
g11
tp151
aasI8
(lp152
(lp153
(Vangry
p154
g11
tp155
a(Vbirds
p156
g47
tp157
aa(lp158
(Veventually
p159
g4
tp160
a(Vgot
p161
S'VBD'
p162
tp163
aa(lp164
(Vthe
p165
g51
tp166
a(Vbest
p167
S'JJS'
p168
tp169
aa(lp170
(Vnext
p171
g11
tp172
a(Vupdate
p173
g14
tp174
aasI9
(lp175
(lp176
(g50
g51
tp177
a(Vgood
p178
g11
tp179
aa(lp180
g179
a(Vangry
p181
g14
tp182
aasI10
(lp183
(lp184
(Vlast
p185
g11
tp186
a(Vupdate
p187
g14
tp188
aa(lp189
(Vnot
p190
g4
tp191
a(Vopen
p192
g7
tp193
aasI11
(lp194
(lp195
(Vthe
p196
g51
tp197
a(Vsame
p198
g11
tp199
aa(lp200
g199
a(Vresult
p201
g14
tp202
aasI12
(lp203
sI13
(lp204
sI14
(lp205
(lp206
(Vmost
p207
S'RBS'
p208
tp209
a(Vinteresting
p210
g11
tp211
aasI15
(lp212
sI16
(lp213
sI17
(lp214
sI18
(lp215
sI19
(lp216
sI20
(lp217
(lp218
(Vstill
p219
g4
tp220
a(Vawful
p221
g11
tp222
aa(lp223
(g50
g51
tp224
a(Vlow
p225
g11
tp226
aa(lp227
g226
a(Vrate
p228
g14
tp229
aasI21
(lp230
(lp231
(VBrilliant
p232
g11
tp233
a(V!
p234
g14
tp235
aa(lp236
(VBrilliant
p237
g11
tp238
a(Vagain
p239
g14
tp240
aasI22
(lp241
(lp242
(Vn't
p243
g4
tp244
a(Vplay
p245
g7
tp246
aa(lp247
(Vthe
p248
g51
tp249
a(Vfirst
p250
g11
tp251
aasI23
(lp252
(lp253
(Vreluctantly
p254
g4
tp255
a(Vspent
p256
g162
tp257
aa(lp258
(Vnever
p259
g4
tp260
a(Vshowed
p261
g162
tp262
aa(lp263
(Vnever
p264
g4
tp265
a(Vgot
p266
g162
tp267
aasI24
(lp268
(lp269
(Vvery
p270
g4
tp271
a(Vaddictive
p272
g11
tp273
aa(lp274
(Vvery
p275
g4
tp276
a(Vfun
p277
g11
tp278
aasI25
(lp279
sI26
(lp280
sI27
(lp281
(lp282
(Vthe
p283
g51
tp284
a(Vclassic
p285
g11
tp286
aa(lp287
g286
a(Vcharacters
p288
g47
tp289
aasI28
(lp290
(lp291
(Vn't
p292
g4
tp293
a(Vhave
p294
g7
tp295
aasI29
(lp296
(lp297
(VReally
p298
g4
tp299
a(Vfun
p300
g67
tp301
aasI30
(lp302
sI31
(lp303
(lp304
(Vthe
p305
g51
tp306
a(Vbest
p307
g168
tp308
aasI32
(lp309
(lp310
(Van
p311
g51
tp312
a(Ventertaining
p313
g11
tp314
aa(lp315
g314
a(Vgame
p316
g14
tp317
aa(lp318
(VAnother
p319
g51
tp320
a(Vgreat
p321
g11
tp322
aasI33
(lp323
sI34
(lp324
(lp325
(Vn't
p326
g4
tp327
a(Vget
p328
g7
tp329
aa(lp330
(g50
g51
tp331
a(Vblack
p332
g11
tp333
aasI35
(lp334
(lp335
(Vangry
p336
g11
tp337
a(Vbirds
p338
g47
tp339
aa(lp340
(Vnot
p341
g4
tp342
a(Vusing
p343
g134
tp344
aasI36
(lp345
(lp346
(Vown
p347
g11
tp348
a(Vspin
p349
g14
tp350
aasI37
(lp351
(lp352
(Vnext
p353
g11
tp354
a(Vangry
p355
g14
tp356
aasI38
(lp357
(lp358
(Vangry
p359
g11
tp360
a(Vbirds
p361
g47
tp362
aa(lp363
(Vthe
p364
g51
tp365
a(Vbest
p366
g168
tp367
aasI39
(lp368
(lp369
(Vn't
p370
g4
tp371
a(Vdisappointed
p372
g67
tp373
aasI40
(lp374
(lp375
(VThe
p376
g51
tp377
a(Vbest
p378
g168
tp379
aasI41
(lp380
(lp381
(Vhard
p382
g4
tp383
a(Vmost
p384
g168
tp385
aa(lp386
(Vtoo
p387
g4
tp388
a(Vbig
p389
g11
tp390
aasI42
(lp391
(lp392
(Vvery
p393
g4
tp394
a(Vcute
p395
g11
tp396
aa(lp397
(Vvarious
p398
g11
tp399
a(Vfeatures
p400
g47
tp401
aa(lp402
(Vthe
p403
g51
tp404
a(Vprevious
p405
g11
tp406
aa(lp407
g406
a(Vgames
p408
g47
tp409
aasI43
(lp410
(lp411
(g50
g51
tp412
a(Vbig
p413
g11
tp414
aa(lp415
g414
a(Vboss
p416
g14
tp417
aa(lp418
(Vdarth
p419
g11
tp420
a(Vpig
p421
g14
tp422
aasI44
(lp423
(lp424
(Vfunny
p425
g11
tp426
a(Vstar
p427
g14
tp428
aasI45
(lp429
(lp430
(Vmany
p431
g11
tp432
a(Vfresh
p433
g11
tp434
aa(lp435
(Venjoyable
p436
g11
tp437
a(Videas
p438
g47
tp439
aa(lp440
(Vthe
p441
g51
tp442
a(Vbest
p443
g168
tp444
aasI46
(lp445
(lp446
(Vreally
p447
g4
tp448
a(Vexcited
p449
g67
tp450
aa(lp451
(Veven
p452
g4
tp453
a(Vload
p454
g7
tp455
aa(lp456
(Vn't
p457
g4
tp458
a(Vplay
p459
g7
tp460
aa(lp461
(Vthe
p462
g51
tp463
a(Vfull
p464
g11
tp465
aa(lp466
g465
a(Vgame
p467
g14
tp468
aa(lp469
(Vn't
p470
g4
tp471
a(Vshow
p472
g7
tp473
aasI47
(lp474
sI48
(lp475
(lp476
(Vaboslutly
p477
g4
tp478
a(Vamazing
p479
g134
tp480
aa(lp481
(Vlittle
p482
g4
tp483
a(Vanoying
p484
g134
tp485
aa(lp486
(Voverall
p487
g11
tp488
a(Vgreat
p489
g11
tp490
aasI49
(lp491
(lp492
(Vn't
p493
g4
tp494
a(Vgon
p495
g7
tp496
aa(lp497
(VNOT
p498
g4
tp499
a(Vdisappointed
p500
g67
tp501
aasI50
(lp502
(lp503
(g50
g51
tp504
a(Vhuge
p505
g11
tp506
aa(lp507
g506
a(Vhelp
p508
g14
tp509
aasI51
(lp510
(lp511
(Vads
p512
g47
tp513
a(Vfree
p514
g11
tp515
aa(lp516
(Vn't
p517
g4
tp518
a(Vunlock
p519
g7
tp520
aa(lp521
(Valso
p522
g4
tp523
a(Vhappened
p524
g162
tp525
aa(lp526
(g50
g51
tp527
a(Vgood
p528
g11
tp529
aa(lp530
g529
a(Vgame
p531
g14
tp532
aa(lp533
(VMore
p534
S'JJR'
p535
tp536
a(Vcontent
p537
g14
tp538
aasI52
(lp539
(lp540
(Vpretty
p541
g4
tp542
a(Vsweet
p543
g11
tp544
aasI53
(lp545
(lp546
(Vthe
p547
g51
tp548
a(Vnew
p549
g11
tp550
aasI54
(lp551
(lp552
(Vthe
p553
g51
tp554
a(V2nd
p555
g11
tp556
aa(lp557
g556
a(Vbest
p558
g168
tp559
aa(lp560
g559
a(Vgame
p561
g14
tp562
aa(lp563
(Vthe
p564
g51
tp565
a(Voriginal
p566
g11
tp567
aa(lp568
g567
a(Vangry
p569
g14
tp570
aa(lp571
(Vangry
p572
g11
tp573
a(Vbird
p574
g14
tp575
aa(lp576
(Vquite
p577
g4
tp578
a(Vgood
p579
g11
tp580
aasI55
(lp581
(lp582
(Vn't
p583
g4
tp584
a(Vwork
p585
g7
tp586
aa(lp587
(Vthe
p588
g51
tp589
a(Vsame
p590
g11
tp591
aa(lp592
g591
a(Vthing
p593
g14
tp594
aa(lp595
(Vnewest
p596
g168
tp597
a(Vupdate
p598
g14
tp599
aasI56
(lp600
(lp601
(Vnot
p602
g4
tp603
a(Vworking
p604
g134
tp605
aa(lp606
(Vblack
p607
g11
tp608
a(Vscreen
p609
g14
tp610
aa(lp611
(Vthe
p612
g51
tp613
a(Vsame
p614
g11
tp615
aa(lp616
(Vn't
p617
g4
tp618
a(Vexist
p619
g7
tp620
aasI57
(lp621
(lp622
(Vwhoever
p623
g535
tp624
a(Vowns
p625
g47
tp626
aasI58
(lp627
(lp628
(VAbsolutely
p629
g4
tp630
a(Vamazing
p631
g134
tp632
aasI59
(lp633
(lp634
(Vfirst
p635
g11
tp636
a(Vlevel
p637
g14
tp638
aasI60
(lp639
(lp640
(Vn't
p641
g4
tp642
a(Vopen
p643
g7
tp644
aa(lp645
(V.I
p646
g11
tp647
a(Vneeeeed
p648
g14
tp649
aasI61
(lp650
(lp651
(Vangry
p652
g11
tp653
a(Vbirds
p654
g47
tp655
aasI62
(lp656
(lp657
(Vnot
p658
g4
tp659
a(Vwork
p660
g7
tp661
aasI63
(lp662
(lp663
(Vnot
p664
g4
tp665
a(Vdownload
p666
g7
tp667
aa(lp668
(VNow
p669
g4
tp670
a(Vcompatible
p671
g11
tp672
aasI64
(lp673
sI65
(lp674
(lp675
(Vhardly
p676
g4
tp677
a(Vget
p678
g7
tp679
aasI66
(lp680
sI67
(lp681
(lp682
(Vthe
p683
g51
tp684
a(Vnew
p685
g11
tp686
aa(lp687
g686
a(Vupdate
p688
g14
tp689
aa(lp690
(Vblack
p691
g11
tp692
a(Vsquares
p693
g47
tp694
aa(lp695
(Vthe
p696
g51
tp697
a(Vactual
p698
g11
tp699
aa(lp700
g699
a(Vgraphics
p701
g47
tp702
aasI68
(lp703
(lp704
(Vn't
p705
g4
tp706
a(Vsay
p707
g7
tp708
aa(lp709
(Venough
p710
g11
tp711
a(Vgood
p712
g11
tp713
aa(lp714
g713
a(Vthings
p715
g47
tp716
aasI69
(lp717
(lp718
(Vn't
p719
g4
tp720
a(Vwant
p721
g7
tp722
aasI70
(lp723
sI71
(lp724
sI72
(lp725
sI73
(lp726
sI74
(lp727
(lp728
(VBest
p729
g168
tp730
a(Vangry
p731
g14
tp732
aasI75
(lp733
(lp734
(Vvery
p735
g4
tp736
a(Vstrategic
p737
g11
tp738
aa(lp739
g738
a(Vturn
p740
g14
tp741
aa(lp742
(Vonly
p743
g4
tp744
a(Vthrilled
p745
g67
tp746
aa(lp747
(Vthe
p748
g51
tp749
a(Vyoung
p750
g11
tp751
aa(lp752
g751
a(Vones
p753
g47
tp754
aa(lp755
(Vthe
p756
g51
tp757
a(Vold
p758
g11
tp759
aa(lp760
g759
a(Vdogs
p761
g47
tp762
aa(lp763
(Vvery
p764
g4
tp765
a(Vintuitive
p766
g11
tp767
aa(lp768
g767
a(Vgameplay
p769
g14
tp770
aasI76
(lp771
(lp772
(Vrandomly
p773
g4
tp774
a(Vhave
p775
g7
tp776
aa(lp777
(Vthe
p778
g51
tp779
a(Ventire
p780
g11
tp781
aa(lp782
g781
a(Vlevel
p783
g14
tp784
aa(lp785
(Vonly
p786
g4
tp787
a(Vshot
p788
g11
tp789
aasI77
(lp790
(lp791
(Vn't
p792
g4
tp793
a(Vthink
p794
g7
tp795
aa(lp796
(Vstill
p797
g4
tp798
a(Vbe
p799
g7
tp800
aa(lp801
(Vmuch
p802
g4
tp803
a(Vfun
p804
g67
tp805
aa(lp806
(Vthe
p807
g51
tp808
a(Vbest
p809
g168
tp810
aa(lp811
(Vgreat
p812
g11
tp813
a(Vfun
p814
g14
tp815
aasI78
(lp816
(lp817
(Vn't
p818
g4
tp819
a(Vgo
p820
g7
tp821
aa(lp822
(Vthe
p823
g51
tp824
a(Vbest
p825
g168
tp826
aasI79
(lp827
(lp828
(Vreally
p829
g4
tp830
a(Vdid
p831
g162
tp832
aa(lp833
(Vmost
p834
g208
tp835
a(Ventertaining
p836
g11
tp837
aasI80
(lp838
(lp839
(Vso
p840
g4
tp841
a(VAMAZING
p842
g134
tp843
aa(lp844
(Vso
p845
g4
tp846
a(Vinterested
p847
g11
tp848
aasI81
(lp849
(lp850
(Vn't
p851
g4
tp852
a(Vdownload
p853
g7
tp854
aa(lp855
(Vn't
p856
g4
tp857
a(Vwork
p858
g7
tp859
aa(lp860
(Vthe
p861
g51
tp862
a(Vadd
p863
g11
tp864
aasI82
(lp865
sI83
(lp866
(lp867
(Vthe
p868
g51
tp869
a(Vtop
p870
g11
tp871
aasI84
(lp872
(lp873
(Vangry
p874
g11
tp875
a(Vbirds
p876
g47
tp877
aa(lp878
(Vthe
p879
g51
tp880
a(Vcoolest
p881
g168
tp882
aa(lp883
g882
a(Vapp
p884
g14
tp885
aa(lp886
(Vjust
p887
g4
tp888
a(Vgot
p889
g162
tp890
aa(lp891
(Vmore
p892
g535
tp893
a(Vboards
p894
g47
tp895
aasI85
(lp896
sI86
(lp897
(lp898
(Vangry
p899
g11
tp900
a(Vbirds
p901
g47
tp902
aasI87
(lp903
(lp904
(Vfresh
p905
g11
tp906
a(V'another
p907
g11
tp908
aa(lp909
(g50
g51
tp910
a(Vfresh
p911
g11
tp912
aa(lp913
g912
a(Vtake
p914
g14
tp915
aasI88
(lp916
(lp917
(VReally
p918
g4
tp919
a(Vfun
p920
g67
tp921
aasI89
(lp922
(lp923
(Vnew
p924
g11
tp925
a(Vtheme
p926
g14
tp927
aa(lp928
(Vexciting
p929
g11
tp930
a(Vnew
p931
g11
tp932
aa(lp933
g932
a(Vabilities
p934
g47
tp935
aa(lp936
(Vn't
p937
g4
tp938
a(Vstop
p939
g7
tp940
aasI90
(lp941
(lp942
(VBrilliant
p943
g11
tp944
a(Vgameplay
p945
g14
tp946
aa(lp947
(Vwell
p948
g4
tp949
a(Vintergrated
p950
g67
tp951
aa(lp952
(Vtoo
p953
g4
tp954
a(Vcheesey
p955
g11
tp956
aasI91
(lp957
(lp958
(Vn't
p959
g4
tp960
a(Vknow
p961
g7
tp962
aa(lp963
(Vthe
p964
g51
tp965
a(Vlast
p966
g11
tp967
aa(lp968
g967
a(Vangry
p969
g14
tp970
aa(lp971
(Vever
p972
g4
tp973
a(Vbe
p974
g7
tp975
aasI92
(lp976
(lp977
(Vthe
p978
g51
tp979
a(Vbest
p980
g168
tp981
aa(lp982
g981
a(Vangry
p983
g14
tp984
aa(lp985
(Vthe
p986
g51
tp987
a(Vbest
p988
g168
tp989
aa(lp990
g989
a(Vmobile
p991
g11
tp992
aa(lp993
g992
a(Vgame
p994
g14
tp995
aa(lp996
(Vthe
p997
g51
tp998
a(Vwhole
p999
g11
tp1000
aa(lp1001
g1000
a(Vyear
p1002
g14
tp1003
aasI93
(lp1004
sI94
(lp1005
(lp1006
(Vthe
p1007
g51
tp1008
a(Vnew
p1009
g11
tp1010
aa(lp1011
g1010
a(Vlevels
p1012
g47
tp1013
aasI95
(lp1014
(lp1015
(Vinternal
p1016
g11
tp1017
a(Vmemory
p1018
g14
tp1019
aa(lp1020
(Vdownload
p1021
g11
tp1022
a(Vangry
p1023
g14
tp1024
aa(lp1025
(Vthe
p1026
g51
tp1027
a(Voriginal
p1028
g11
tp1029
aa(lp1030
g1029
a(Vangry
p1031
g14
tp1032
aasI96
(lp1033
(lp1034
(Vthe
p1035
g51
tp1036
a(Vunlockable
p1037
g11
tp1038
aa(lp1039
g1038
a(Varea
p1040
g14
tp1041
aa(lp1042
(Vnot
p1043
g4
tp1044
a(Vaccess
p1045
g7
tp1046
aasI97
(lp1047
(lp1048
(Vn't
p1049
g4
tp1050
a(Vknow
p1051
g7
tp1052
aasI98
(lp1053
(lp1054
(Vthe
p1055
g51
tp1056
a(Vextra
p1057
g11
tp1058
aa(lp1059
g1058
a(Vmissions
p1060
g47
tp1061
aa(lp1062
(Vnot
p1063
g4
tp1064
a(Vget
p1065
g7
tp1066
aa(lp1067
(Vextra
p1068
g11
tp1069
a(Vlevels
p1070
g47
tp1071
aa(lp1072
(VOtherwise
p1073
g4
tp1074
a(Vgreat
p1075
g11
tp1076
aa(lp1077
g1076
a(Vgame
p1078
g14
tp1079
aa(lp1080
(Vjust
p1081
g4
tp1082
a(Vrocking
p1083
g134
tp1084
aasI99
(lp1085
(lp1086
(Vfinally
p1087
g4
tp1088
a(Vchanged
p1089
g162
tp1090
aa(lp1091
(Vthe
p1092
g51
tp1093
a(Vsmallest
p1094
g168
tp1095
aa(lp1096
g1095
a(Vbuttons
p1097
g47
tp1098
aa(lp1099
(Vnormal
p1100
g11
tp1101
a(Vsized
p1102
g11
tp1103
aa(lp1104
g1103
a(Vbuttons
p1105
g47
tp1106
aasI100
(lp1107
(lp1108
(Vso
p1109
g4
tp1110
a(Vintrusive
p1111
g11
tp1112
aa(lp1113
(Vthe
p1114
g51
tp1115
a(Vbest
p1116
g168
tp1117
aa(lp1118
g1117
a(Vangry
p1119
g14
tp1120
aasI101
(lp1121
sI102
(lp1122
sI103
(lp1123
sI104
(lp1124
(lp1125
(Vn't
p1126
g4
tp1127
a(Vfinish
p1128
g7
tp1129
aasI105
(lp1130
sI106
(lp1131
(lp1132
(Vvisually
p1133
g4
tp1134
a(Vnoisy
p1135
g11
tp1136
aa(lp1137
g1136
a(Vad
p1138
g14
tp1139
aa(lp1140
(Vnot
p1141
g4
tp1142
a(Vbe
p1143
g7
tp1144
aasI107
(lp1145
(lp1146
(Vbad
p1147
g11
tp1148
a(Vpiggies
p1149
g47
tp1150
aasI108
(lp1151
sI109
(lp1152
(lp1153
(Vvery
p1154
g4
tp1155
a(Vaddictive
p1156
g11
tp1157
aasI110
(lp1158
(lp1159
(Vn't
p1160
g4
tp1161
a(Vstop
p1162
g7
tp1163
aasI111
(lp1164
sI112
(lp1165
(lp1166
(Vnot
p1167
g4
tp1168
a(Vallowing
p1169
g134
tp1170
aa(lp1171
(VOnce
p1172
g4
tp1173
a(Vcorrected
p1174
g162
tp1175
aa(lp1176
(Vdefinitely
p1177
g4
tp1178
a(Vbe
p1179
g7
tp1180
aasI113
(lp1181
(lp1182
(Vthe
p1183
g51
tp1184
a(Vmost
p1185
g168
tp1186
aasI114
(lp1187
(lp1188
(Vmany
p1189
g11
tp1190
a(Vothers
p1191
g47
tp1192
aa(lp1193
(Vthe
p1194
g51
tp1195
a(Vother
p1196
g11
tp1197
aa(lp1198
g1197
a(Vlevel
p1199
g14
tp1200
aa(lp1201
(Vnot
p1202
g4
tp1203
a(Vgain
p1204
g7
tp1205
aasI115
(lp1206
(lp1207
(VNot
p1208
g4
tp1209
a(Vmany
p1210
g11
tp1211
aa(lp1212
g1211
a(Vlevels
p1213
g47
tp1214
aa(lp1215
(Vreally
p1216
g4
tp1217
a(Vdifferent
p1218
g11
tp1219
aa(lp1220
(VNot
p1221
g4
tp1222
a(Vworth
p1223
g11
tp1224
aa(lp1225
(VReally
p1226
g4
tp1227
a(Vdisappointed
p1228
g67
tp1229
aa(lp1230
(VEven
p1231
g4
tp1232
a(Vpurchased
p1233
g67
tp1234
aasI116
(lp1235
(lp1236
(Vthe
p1237
g51
tp1238
a(Vgreen
p1239
g11
tp1240
aa(lp1241
g1240
a(Vlight
p1242
g14
tp1243
aa(lp1244
(Vnot
p1245
g4
tp1246
a(Vther
p1247
g535
tp1248
aasI117
(lp1249
(lp1250
(Vn't
p1251
g4
tp1252
a(Vever
p1253
g7
tp1254
aa(lp1255
(Vthe
p1256
g51
tp1257
a(Vbest
p1258
g168
tp1259
aa(lp1260
g1259
a(Vrepresentation
p1261
g14
tp1262
aa(lp1263
(Vtime
p1264
g14
tp1265
a(Vgreat
p1266
g11
tp1267
aasI118
(lp1268
(lp1269
(Vn't
p1270
g4
tp1271
a(Vhave
p1272
g7
tp1273
aa(lp1274
(Venough
p1275
g11
tp1276
a(Vspace
p1277
g14
tp1278
aasI119
(lp1279
(lp1280
(VThe
p1281
g51
tp1282
a(Vnew
p1283
g11
tp1284
aa(lp1285
g1284
a(Vangry
p1286
g14
tp1287
aa(lp1288
(Vthe
p1289
g51
tp1290
a(Vbest
p1291
g168
tp1292
aasI120
(lp1293
(lp1294
(Vnot
p1295
g4
tp1296
a(Vaccepted
p1297
g67
tp1298
aa(lp1299
(Vthen
p1300
g4
tp1301
a(Vreload
p1302
g7
tp1303
aa(lp1304
(Vthe
p1305
g51
tp1306
a(Vsame
p1307
g11
tp1308
aa(lp1309
(Vthe
p1310
g51
tp1311
a(Vlast
p1312
g11
tp1313
aa(lp1314
g1313
a(Vapp
p1315
g14
tp1316
aa(lp1317
(Valso
p1318
g4
tp1319
a(Vtask
p1320
g7
tp1321
aasI121
(lp1322
sI122
(lp1323
sI123
(lp1324
(lp1325
(Vtotally
p1326
g4
tp1327
a(Vmessed
p1328
g162
tp1329
aa(lp1330
(Vreally
p1331
g4
tp1332
a(Vupset
p1333
g67
tp1334
aasI124
(lp1335
(lp1336
(Van
p1337
g51
tp1338
a(Vinnovative
p1339
g11
tp1340
aa(lp1341
g1340
a(Vtheme
p1342
g14
tp1343
aa(lp1344
(Vthe
p1345
g51
tp1346
a(Voriginal
p1347
g11
tp1348
aa(lp1349
g1348
a(Vbird-slinging
p1350
g11
tp1351
aa(lp1352
g1351
a(Vgame
p1353
g14
tp1354
aa(lp1355
(Vnew
p1356
g11
tp1357
a(Vpowers
p1358
g47
tp1359
aa(lp1360
(g50
g51
tp1361
a(Vcriminal
p1362
g11
tp1363
aa(lp1364
g1363
a(Voffence
p1365
g14
tp1366
aa(lp1367
(Vthis
p1368
g51
tp1369
a(Vmust-have
p1370
g11
tp1371
aa(lp1372
g1371
a(Vgame
p1373
g14
tp1374
aasI125
(lp1375
(lp1376
(VC'mon
p1377
g11
tp1378
a(Vstar
p1379
g14
tp1380
aa(lp1381
(Vangry
p1382
g11
tp1383
a(Vbirds
p1384
g47
tp1385
aa(lp1386
(g50
g51
tp1387
a(Vwhole
p1388
g11
tp1389
aa(lp1390
g1389
a(Vnutha
p1391
g14
tp1392
aasI126
(lp1393
(lp1394
(VThe
p1395
g51
tp1396
a(Vbest
p1397
g168
tp1398
aa(lp1399
g1398
a(Vgame
p1400
g14
tp1401
aasI127
(lp1402
sI128
(lp1403
sI129
(lp1404
(lp1405
(Vso
p1406
g4
tp1407
a(Vstop
p1408
g7
tp1409
aa(lp1410
(Vnot
p1411
g4
tp1412
a(Vhave
p1413
g7
tp1414
aasI130
(lp1415
(lp1416
(g50
g51
tp1417
a(Vbig
p1418
g11
tp1419
aa(lp1420
g1419
a(Vfan
p1421
g14
tp1422
aa(lp1423
(Vquite
p1424
g4
tp1425
a(Vgood
p1426
g11
tp1427
aa(lp1428
(Vso
p1429
g4
tp1430
a(Vyeah
p1431
g11
tp1432
aa(lp1433
(Vdefinitely
p1434
g4
tp1435
a(Vworth
p1436
g11
tp1437
aasI131
(lp1438
(lp1439
(VDefinitely
p1440
g4
tp1441
a(Vworth
p1442
g11
tp1443
aa(lp1444
g1443
a(Vdownloading
p1445
g14
tp1446
aasI132
(lp1447
(lp1448
(Vthe
p1449
g51
tp1450
a(Vother
p1451
g11
tp1452
aa(lp1453
g1452
a(Vangry
p1454
g14
tp1455
aasI133
(lp1456
(lp1457
(Vyears
p1458
g47
tp1459
a(Vold
p1460
g11
tp1461
aasI134
(lp1462
(lp1463
(VBest
p1464
g168
tp1465
a(Vgame
p1466
g14
tp1467
aasI135
(lp1468
(lp1469
(Vjust
p1470
g4
tp1471
a(Vdosent
p1472
g11
tp1473
aa(lp1474
g1473
a(Vfeel
p1475
g14
tp1476
aa(lp1477
(Vthe
p1478
g51
tp1479
a(Vblack
p1480
g11
tp1481
aa(lp1482
g1481
a(Vbird
p1483
g14
tp1484
aasI136
(lp1485
sI137
(lp1486
(lp1487
(Vanother
p1488
g51
tp1489
a(Vgreat
p1490
g11
tp1491
aa(lp1492
g1491
a(Vgame
p1493
g14
tp1494
aasI138
(lp1495
sI139
(lp1496
(lp1497
(g50
g51
tp1498
a(Vgreat
p1499
g11
tp1500
aa(lp1501
(Vthe
p1502
g51
tp1503
a(Vbetter
p1504
g535
tp1505
aasI140
(lp1506
(lp1507
(Vangry
p1508
g11
tp1509
a(Vbirds
p1510
g47
tp1511
aa(lp1512
(VNOT
p1513
g4
tp1514
a(VBE
p1515
g7
tp1516
aa(lp1517
(Vn't
p1518
g4
tp1519
a(Vlike
p1520
g7
tp1521
aa(lp1522
(Vnow
p1523
g4
tp1524
a(Vplastering
p1525
g134
tp1526
aa(lp1527
(Vnew
p1528
g11
tp1529
a(Vgames
p1530
g47
tp1531
aa(lp1532
(Vother
p1533
g11
tp1534
a(Vversions
p1535
g47
tp1536
aa(lp1537
(Vangry
p1538
g11
tp1539
a(Vbirds
p1540
g47
tp1541
aa(lp1542
(Veven
p1543
g4
tp1544
a(Vupdating
p1545
g134
tp1546
aa(lp1547
(Vonly
p1548
g4
tp1549
a(Vintrusive
p1550
g11
tp1551
aa(lp1552
(Vrather
p1553
g4
tp1554
a(Vuse
p1555
g7
tp1556
aa(lp1557
(Vother
p1558
g11
tp1559
a(Vthings
p1560
g47
tp1561
aa(lp1562
(Vpretty
p1563
g4
tp1564
a(Vboring
p1565
g134
tp1566
aa(lp1567
(Vsimply
p1568
g4
tp1569
a(Vgoing
p1570
g134
tp1571
aa(lp1572
(Vn't
p1573
g4
tp1574
a(Vget
p1575
g7
tp1576
aa(lp1577
(Vnow
p1578
g4
tp1579
a(Vbeing
p1580
g134
tp1581
aasI141
(lp1582
sI142
(lp1583
(lp1584
(Vn't
p1585
g4
tp1586
a(Vclose
p1587
g11
tp1588
aasI143
(lp1589
sI144
(lp1590
(lp1591
(VBest
p1592
g168
tp1593
a(Vgame
p1594
g14
tp1595
aasI145
(lp1596
(lp1597
(Vthe
p1598
g51
tp1599
a(VBEST
p1600
g168
tp1601
aa(lp1602
g1601
a(Vangry
p1603
g14
tp1604
aa(lp1605
(Val
p1606
g11
tp1607
a(Vcomes
p1608
g47
tp1609
aa(lp1610
(g50
g51
tp1611
a(Vgreat
p1612
g11
tp1613
aa(lp1614
g1613
a(Vgame
p1615
g14
tp1616
aa(lp1617
(Vthe
p1618
g51
tp1619
a(Vother
p1620
g11
tp1621
aa(lp1622
g1621
a(Vlevels
p1623
g47
tp1624
aasI146
(lp1625
(lp1626
(Van
p1627
g51
tp1628
a(Vlovable
p1629
g11
tp1630
aa(lp1631
g1630
a(Vgame
p1632
g14
tp1633
aasI147
(lp1634
sI148
(lp1635
sI149
(lp1636
(lp1637
(Vmore
p1638
S'RBR'
p1639
tp1640
a(Vfun
p1641
g11
tp1642
aasI150
(lp1643
(lp1644
(Vthe
p1645
g51
tp1646
a(Vother
p1647
g11
tp1648
aa(lp1649
g1648
a(Vangry
p1650
g14
tp1651
aasI151
(lp1652
(lp1653
(Vnot
p1654
g4
tp1655
a(Vwork
p1656
g7
tp1657
aasI152
(lp1658
(lp1659
(VJust
p1660
g4
tp1661
a(Vupdated
p1662
g67
tp1663
aa(lp1664
(Vnew
p1665
g11
tp1666
a(Vlevels
p1667
g47
tp1668
aa(lp1669
(Vthe
p1670
g51
tp1671
a(Vnew
p1672
g11
tp1673
aa(lp1674
g1673
a(Vbirds
p1675
g47
tp1676
aasI153
(lp1677
(lp1678
(VJust
p1679
g4
tp1680
a(Vcurious
p1681
g11
tp1682
aasI154
(lp1683
(lp1684
(Vcant
p1685
g11
tp1686
a(Vinstall
p1687
g14
tp1688
aasI155
(lp1689
(lp1690
(Vthe
p1691
g51
tp1692
a(Vnewest
p1693
g168
tp1694
aa(lp1695
g1694
a(Vupdate
p1696
g14
tp1697
aa(lp1698
(Vnot
p1699
g4
tp1700
a(Vable
p1701
g11
tp1702
aa(lp1703
(Vn't
p1704
g4
tp1705
a(Vget
p1706
g7
tp1707
aasI156
(lp1708
(lp1709
(Valways
p1710
g4
tp1711
a(Vliked
p1712
g162
tp1713
aa(lp1714
(Vtotally
p1715
g4
tp1716
a(Vaddictive
p1717
g11
tp1718
aasI157
(lp1719
(lp1720
(Vnot
p1721
g4
tp1722
a(Vwork
p1723
g7
tp1724
aasI158
(lp1725
(lp1726
(Vmuch
p1727
g4
tp1728
a(Vfun
p1729
g67
tp1730
aasI159
(lp1731
sI160
(lp1732
sI161
(lp1733
sI162
(lp1734
(lp1735
(Vthe
p1736
g51
tp1737
a(Vorigonal
p1738
g11
tp1739
aa(lp1740
(Vangry
p1741
g11
tp1742
a(Vbirds
p1743
g47
tp1744
aasI163
(lp1745
sI164
(lp1746
(lp1747
(Vreally
p1748
g4
tp1749
a(Vgreat
p1750
g11
tp1751
aa(lp1752
g1751
a(Vgame
p1753
g14
tp1754
aasI165
(lp1755
(lp1756
(Vwell
p1757
g4
tp1758
a(Vworth
p1759
g11
tp1760
aa(lp1761
(VOnce
p1762
g4
tp1763
a(Vcomplete
p1764
g11
tp1765
aa(lp1766
(Vonly
p1767
g4
tp1768
a(Vwant
p1769
g7
tp1770
aa(lp1771
(Vthe
p1772
g51
tp1773
a(Voriginal
p1774
g11
tp1775
aa(lp1776
g1775
a(Vtrilogy
p1777
g14
tp1778
aasI166
(lp1779
(lp1780
(Vsuper-duper
p1781
g11
tp1782
a(Vlightsaber
p1783
g14
tp1784
aa(lp1785
(Vthe
p1786
g51
tp1787
a(Vbest
p1788
g168
tp1789
aasI167
(lp1790
sI168
(lp1791
(lp1792
(Vfavorite
p1793
g11
tp1794
a(Vangry
p1795
g14
tp1796
aasI169
(lp1797
(lp1798
(V.must
p1799
g11
tp1800
a(Vplay
p1801
g14
tp1802
aasI170
(lp1803
(lp1804
(Vthe
p1805
g51
tp1806
a(Vbest
p1807
g168
tp1808
aa(lp1809
g1808
a(Vangry
p1810
g14
tp1811
aasI171
(lp1812
(lp1813
(Vmost
p1814
g168
tp1815
a(Vstages
p1816
g47
tp1817
aasI172
(lp1818
(lp1819
(VThe
p1820
g51
tp1821
a(Vbest
p1822
g168
tp1823
aasI173
(lp1824
(lp1825
(Vjust
p1826
g4
tp1827
a(Vcompleted
p1828
g162
tp1829
aa(lp1830
(Vthe
p1831
g51
tp1832
a(Vfirst
p1833
g11
tp1834
aa(lp1835
(Vnot
p1836
g4
tp1837
a(Vopened
p1838
g67
tp1839
aasI174
(lp1840
(lp1841
(Vangry
p1842
g11
tp1843
a(Vbirds
p1844
g47
tp1845
aasI175
(lp1846
(lp1847
(Vthe
p1848
g51
tp1849
a(Vcoolest
p1850
g168
tp1851
aa(lp1852
g1851
a(Vmixture
p1853
g14
tp1854
aasI176
(lp1855
sI177
(lp1856
sI178
(lp1857
sI179
(lp1858
(lp1859
(Vthe
p1860
g51
tp1861
a(VBEST
p1862
g168
tp1863
aa(lp1864
(Vlight
p1865
g11
tp1866
a(Vsabers
p1867
g47
tp1868
aasI180
(lp1869
(lp1870
(Vthe
p1871
g51
tp1872
a(Vfirst
p1873
g11
tp1874
aasI181
(lp1875
(lp1876
(VThe
p1877
g51
tp1878
a(Vbest
p1879
g168
tp1880
aa(lp1881
g1880
a(Vversion
p1882
g14
tp1883
aasI182
(lp1884
(lp1885
(Vseveral
p1886
g11
tp1887
a(Vtimes
p1888
g47
tp1889
aa(lp1890
(Vnot
p1891
g4
tp1892
a(Vwork
p1893
g7
tp1894
aa(lp1895
(Vn't
p1896
g4
tp1897
a(Vload
p1898
g7
tp1899
aasI183
(lp1900
sI184
(lp1901
(lp1902
(Vgreat
p1903
g11
tp1904
a(Vfun
p1905
g14
tp1906
aa(lp1907
(Vn't
p1908
g4
tp1909
a(Vdowlond
p1910
g7
tp1911
aa(lp1912
(Vn't
p1913
g4
tp1914
a(Vdowlond
p1915
g7
tp1916
aa(lp1917
(Vjust
p1918
g4
tp1919
a(Vdid
p1920
g162
tp1921
aa(lp1922
(Vthe
p1923
g51
tp1924
a(Vfirst
p1925
g11
tp1926
aa(lp1927
g1926
a(Vbit
p1928
g14
tp1929
aa(lp1930
(g50
g51
tp1931
a(Vlong
p1932
g11
tp1933
aa(lp1934
g1933
a(Vtime
p1935
g14
tp1936
aa(lp1937
(Vso
p1938
g4
tp1939
a(Vgood
p1940
g11
tp1941
aa(lp1942
g1941
a(Vapp
p1943
g14
tp1944
aasI185
(lp1945
(lp1946
(Vn't
p1947
g4
tp1948
a(Vrate
p1949
g7
tp1950
aa(lp1951
(Vn't
p1952
g4
tp1953
a(Vplay
p1954
g7
tp1955
aa(lp1956
(Vangry
p1957
g11
tp1958
a(Vbirds
p1959
g47
tp1960
aa(lp1961
(Vnot
p1962
g4
tp1963
a(Vnecessary
p1964
g11
tp1965
aasI186
(lp1966
(lp1967
(Vvery
p1968
g4
tp1969
a(Vfun
p1970
g11
tp1971
aasI187
(lp1972
(lp1973
(Vnever
p1974
g4
tp1975
a(Vdid
p1976
g162
tp1977
aa(lp1978
(Vthere
p1979
g4
tp1980
a(Vwas
p1981
g162
tp1982
aa(lp1983
(Vimmediately
p1984
g4
tp1985
a(Vdownload
p1986
g162
tp1987
aa(lp1988
(Vnot
p1989
g4
tp1990
a(Vrefuse
p1991
g7
tp1992
aa(lp1993
(Vn't
p1994
g4
tp1995
a(Vwait
p1996
g7
tp1997
aa(lp1998
(Vmore
p1999
g535
tp2000
a(Vupdates
p2001
g47
tp2002
aa(lp2003
(Vthe
p2004
g51
tp2005
a(Vonly
p2006
g11
tp2007
aa(lp2008
(Vmore
p2009
g535
tp2010
a(Vstar
p2011
g14
tp2012
aasI188
(lp2013
(lp2014
(VShockingly
p2015
g4
tp2016
a(Vpoor
p2017
g11
tp2018
aasI189
(lp2019
(lp2020
(Vwonderful
p2021
g11
tp2022
a(Vabilities
p2023
g47
tp2024
aa(lp2025
(Vthe
p2026
g51
tp2027
a(Vonly
p2028
g11
tp2029
aa(lp2030
g2029
a(Vdisappointing
p2031
g11
tp2032
aa(lp2033
g2032
a(Vfactor
p2034
g14
tp2035
aa(lp2036
(g50
g51
tp2037
a(Vtrue
p2038
g11
tp2039
aa(lp2040
g2039
a(Vstart
p2041
g14
tp2042
aa(lp2043
(Vthe
p2044
g51
tp2045
a(Vbest
p2046
g168
tp2047
aa(lp2048
g2047
a(Vgame
p2049
g14
tp2050
aasI190
(lp2051
sI191
(lp2052
(lp2053
(Vreally
p2054
g4
tp2055
a(Vappreciate
p2056
g11
tp2057
aa(lp2058
(Vthe
p2059
g51
tp2060
a(Vwhole
p2061
g11
tp2062
aa(lp2063
g2062
a(Vfamily
p2064
g14
tp2065
aa(lp2066
(Vvery
p2067
g4
tp2068
a(Vfair
p2069
g11
tp2070
aa(lp2071
(Vn't
p2072
g4
tp2073
a(Vhave
p2074
g7
tp2075
aa(lp2076
(g50
g51
tp2077
a(Vgood
p2078
g11
tp2079
aa(lp2080
g2079
a(Vtime
p2081
g14
tp2082
aa(lp2083
(Vn't
p2084
g4
tp2085
a(Vmake
p2086
g7
tp2087
aa(lp2088
(Vthe
p2089
g51
tp2090
a(Voriginal
p2091
g11
tp2092
aa(lp2093
g2092
a(Vangry
p2094
g14
tp2095
aa(lp2096
(Vthis
p2097
g51
tp2098
a(Vincredible
p2099
g11
tp2100
aa(lp2101
g2100
a(Vlittle
p2102
g14
tp2103
aasI192
(lp2104
(lp2105
(Van
p2106
g51
tp2107
a(Vepic
p2108
g11
tp2109
aa(lp2110
g2109
a(Vintegalactic
p2111
g11
tp2112
aa(lp2113
(Vcomplete
p2114
g11
tp2115
a(Vepisode
p2116
g14
tp2117
aa(lp2118
(Vthe
p2119
g51
tp2120
a(Vbest
p2121
g168
tp2122
aa(lp2123
g2122
a(Vgame
p2124
g14
tp2125
aasI193
(lp2126
(lp2127
(Vvery
p2128
g4
tp2129
a(Vgood
p2130
g11
tp2131
aa(lp2132
(Vlast
p2133
g11
tp2134
a(Vupdate
p2135
g14
tp2136
aa(lp2137
(Vthe
p2138
g51
tp2139
a(Vbest
p2140
g168
tp2141
aa(lp2142
g2141
a(Vupdate
p2143
g14
tp2144
aasI194
(lp2145
(lp2146
(Vvery
p2147
g4
tp2148
a(Vmuch
p2149
g11
tp2150
aasI195
(lp2151
(lp2152
(Vnot
p2153
g4
tp2154
a(Vget
p2155
g7
tp2156
aasI196
(lp2157
(lp2158
(Vplay
p2159
g14
tp2160
a(Vother
p2161
g11
tp2162
aa(lp2163
g2162
a(Vlevels
p2164
g47
tp2165
aa(lp2166
(Vrich
p2167
g11
tp2168
a(Venough
p2169
g11
tp2170
aa(lp2171
g2170
a(Vcome
p2172
g14
tp2173
aasI197
(lp2174
(lp2175
(g50
g51
tp2176
a(Vblack
p2177
g11
tp2178
aasI198
(lp2179
(lp2180
(Vall
p2181
g51
tp2182
a(Vangry
p2183
g11
tp2184
aasI199
(lp2185
sI200
(lp2186
sI201
(lp2187
sI202
(lp2188
(lp2189
(Vperfect
p2190
g11
tp2191
a(Vstar
p2192
g14
tp2193
aa(lp2194
(Vangry
p2195
g11
tp2196
a(Vbirds
p2197
g47
tp2198
aasI203
(lp2199
(lp2200
(Vvery
p2201
g4
tp2202
a(Vgood
p2203
g11
tp2204
aa(lp2205
(Vlast
p2206
g11
tp2207
a(Vupdate
p2208
g14
tp2209
aa(lp2210
(Vthe
p2211
g51
tp2212
a(Vbest
p2213
g168
tp2214
aa(lp2215
g2214
a(Vupdate
p2216
g14
tp2217
aasI204
(lp2218
(lp2219
(Vplay
p2220
g14
tp2221
a(Vother
p2222
g11
tp2223
aa(lp2224
g2223
a(Vlevels
p2225
g47
tp2226
aa(lp2227
(Vrich
p2228
g11
tp2229
a(Venough
p2230
g11
tp2231
aa(lp2232
g2231
a(Vcome
p2233
g14
tp2234
aasI205
(lp2235
(lp2236
(Vnot
p2237
g4
tp2238
a(Vget
p2239
g7
tp2240
aasI206
(lp2241
(lp2242
(Vthe
p2243
g51
tp2244
a(Vbest
p2245
g168
tp2246
aa(lp2247
g2246
a(Vhandheld
p2248
g14
tp2249
aasI207
(lp2250
(lp2251
(Vnot
p2252
g4
tp2253
a(Vopen
p2254
g7
tp2255
aa(lp2256
(Vthe
p2257
g51
tp2258
a(Vsecond
p2259
g11
tp2260
aa(lp2261
g2260
a(Vtime
p2262
g14
tp2263
aasI208
(lp2264
sI209
(lp2265
sI210
(lp2266
(lp2267
(Valready
p2268
g4
tp2269
a(Vupdated
p2270
g67
tp2271
aasI211
(lp2272
(lp2273
(Vthe
p2274
g51
tp2275
a(Vnext
p2276
g11
tp2277
aa(lp2278
g2277
a(Vplanet
p2279
g14
tp2280
aasI212
(lp2281
(lp2282
(g50
g51
tp2283
a(Vnice
p2284
g11
tp2285
aa(lp2286
(Vactually
p2287
g4
tp2288
a(Vpay
p2289
g7
tp2290
aa(lp2291
(Vown
p2292
g11
tp2293
a(Vlevels
p2294
g47
tp2295
aa(lp2296
(g50
g51
tp2297
a(Vcertain
p2298
g11
tp2299
aa(lp2300
(Vown
p2301
g11
tp2302
a(Vfort
p2303
g14
tp2304
aasI213
(lp2305
sI214
(lp2306
(lp2307
(VBest
p2308
g168
tp2309
a(Vgame
p2310
g14
tp2311
aasI215
(lp2312
(lp2313
(Vthe
p2314
g51
tp2315
a(Vbest
p2316
g168
tp2317
aa(lp2318
g2317
a(Vhandheld
p2319
g14
tp2320
aasI216
(lp2321
sI217
(lp2322
(lp2323
(Vnot
p2324
g4
tp2325
a(Vopen
p2326
g7
tp2327
aa(lp2328
(Vthe
p2329
g51
tp2330
a(Vsecond
p2331
g11
tp2332
aa(lp2333
g2332
a(Vtime
p2334
g14
tp2335
aasI218
(lp2336
(lp2337
(Vthe
p2338
g51
tp2339
a(Vnext
p2340
g11
tp2341
aa(lp2342
g2341
a(Vlevel
p2343
g14
tp2344
aa(lp2345
(Vnot
p2346
g4
tp2347
a(Vunlock
p2348
g7
tp2349
aasI219
(lp2350
(lp2351
(Valready
p2352
g4
tp2353
a(Vupdated
p2354
g67
tp2355
aasI220
(lp2356
(lp2357
(Vthe
p2358
g51
tp2359
a(Vnext
p2360
g11
tp2361
aa(lp2362
g2361
a(Vplanet
p2363
g14
tp2364
aasI221
(lp2365
sI222
(lp2366
(lp2367
(g50
g51
tp2368
a(Vnice
p2369
g11
tp2370
aa(lp2371
(Vactually
p2372
g4
tp2373
a(Vpay
p2374
g7
tp2375
aa(lp2376
(Vown
p2377
g11
tp2378
a(Vlevels
p2379
g47
tp2380
aa(lp2381
(g50
g51
tp2382
a(Vcertain
p2383
g11
tp2384
aa(lp2385
(Vown
p2386
g11
tp2387
a(Vfort
p2388
g14
tp2389
aasI223
(lp2390
sI224
(lp2391
(lp2392
(Vawesome
p2393
g14
tp2394
a(Vunbelievable
p2395
g11
tp2396
aasI225
(lp2397
sI226
(lp2398
(lp2399
(Vthe
p2400
g51
tp2401
a(Vbest
p2402
g168
tp2403
aa(lp2404
g2403
a(Vangry
p2405
g14
tp2406
aasI227
(lp2407
(lp2408
(Veven
p2409
g4
tp2410
a(Vopen
p2411
g11
tp2412
aasI228
(lp2413
sI229
(lp2414
sI230
(lp2415
(lp2416
(Vnot
p2417
g4
tp2418
a(Vopen
p2419
g7
tp2420
aa(lp2421
(Vthe
p2422
g51
tp2423
a(Vsecond
p2424
g11
tp2425
aa(lp2426
g2425
a(Vtime
p2427
g14
tp2428
aasI231
(lp2429
(lp2430
(Vthe
p2431
g51
tp2432
a(Vnext
p2433
g11
tp2434
aa(lp2435
g2434
a(Vlevel
p2436
g14
tp2437
aa(lp2438
(Vnot
p2439
g4
tp2440
a(Vunlock
p2441
g7
tp2442
aasI232
(lp2443
(lp2444
(Vthe
p2445
g51
tp2446
a(Vnext
p2447
g11
tp2448
aa(lp2449
g2448
a(Vplanet
p2450
g14
tp2451
aasI233
(lp2452
sI234
(lp2453
sI235
(lp2454
(lp2455
(Vawesome
p2456
g14
tp2457
a(Vunbelievable
p2458
g11
tp2459
aasI236
(lp2460
sI237
(lp2461
(lp2462
(Vthe
p2463
g51
tp2464
a(Vbest
p2465
g168
tp2466
aa(lp2467
g2466
a(Vangry
p2468
g14
tp2469
aasI238
(lp2470
sI239
(lp2471
(lp2472
(Veven
p2473
g4
tp2474
a(Vopen
p2475
g11
tp2476
aasI240
(lp2477
sI241
(lp2478
sI242
(lp2479
sI243
(lp2480
sI244
(lp2481
sI245
(lp2482
(lp2483
(Veven
p2484
g4
tp2485
a(Vopen
p2486
g11
tp2487
aasI246
(lp2488
sI247
(lp2489
sI248
(lp2490
(lp2491
(Vnot
p2492
g4
tp2493
a(Vgood
p2494
g11
tp2495
aa(lp2496
g2495
a(Vfreezes
p2497
g47
tp2498
aasI249
(lp2499
sI250
(lp2500
sI251
(lp2501
sI252
(lp2502
(lp2503
(VThe
p2504
g51
tp2505
a(Vbest
p2506
g168
tp2507
aa(lp2508
g2507
a(Vangry
p2509
g14
tp2510
aasI253
(lp2511
sI254
(lp2512
sI255
(lp2513
sI256
(lp2514
(lp2515
(Vnot
p2516
g4
tp2517
a(Vgood
p2518
g11
tp2519
aa(lp2520
g2519
a(Vfreezes
p2521
g47
tp2522
aasI257
(lp2523
sI258
(lp2524
sI259
(lp2525
sI260
(lp2526
sI261
(lp2527
(lp2528
(VThe
p2529
g51
tp2530
a(Vbest
p2531
g168
tp2532
aa(lp2533
g2532
a(Vangry
p2534
g14
tp2535
aasI262
(lp2536
(lp2537
(Vthe
p2538
g51
tp2539
a(Vbest
p2540
g168
tp2541
aa(lp2542
g2541
a(Vangry
p2543
g14
tp2544
aasI263
(lp2545
(lp2546
(Vbird
p2547
g11
tp2548
a(Vpreview
p2549
g14
tp2550
aa(lp2551
(Vmany
p2552
g11
tp2553
a(Vnew
p2554
g11
tp2555
aa(lp2556
g2555
a(Vones
p2557
g47
tp2558
aasI264
(lp2559
sI265
(lp2560
sI266
(lp2561
sI267
(lp2562
sI268
(lp2563
(lp2564
(Vnot
p2565
g4
tp2566
a(Vgood
p2567
g11
tp2568
aa(lp2569
g2568
a(Vfreezes
p2570
g47
tp2571
aasI269
(lp2572
sI270
(lp2573
(lp2574
(VNot
p2575
g4
tp2576
a(Vhappy
p2577
g11
tp2578
aasI271
(lp2579
(lp2580
(Vnext
p2581
g11
tp2582
a(Vangry
p2583
g14
tp2584
aasI272
(lp2585
sI273
(lp2586
(lp2587
(VBest
p2588
g168
tp2589
a(Vseries
p2590
g14
tp2591
aasI274
(lp2592
sI275
(lp2593
sI276
(lp2594
sI277
(lp2595
sI278
(lp2596
(lp2597
(VNot
p2598
g4
tp2599
a(Vhappy
p2600
g11
tp2601
aasI279
(lp2602
(lp2603
(VMost
p2604
g168
tp2605
a(Veasiest
p2606
g11
tp2607
aa(lp2608
g2607
a(Vangry
p2609
g14
tp2610
aasI280
(lp2611
(lp2612
(Vnext
p2613
g11
tp2614
a(Vangry
p2615
g14
tp2616
aasI281
(lp2617
(lp2618
(VBest
p2619
g168
tp2620
a(Vangry
p2621
g14
tp2622
aasI282
(lp2623
sI283
(lp2624
(lp2625
(VBest
p2626
g168
tp2627
a(Vseries
p2628
g14
tp2629
aasI284
(lp2630
sI285
(lp2631
sI286
(lp2632
sI287
(lp2633
sI288
(lp2634
(lp2635
(VNot
p2636
g4
tp2637
a(Vhappy
p2638
g11
tp2639
aasI289
(lp2640
(lp2641
(VMost
p2642
g168
tp2643
a(Veasiest
p2644
g11
tp2645
aa(lp2646
g2645
a(Vangry
p2647
g14
tp2648
aasI290
(lp2649
(lp2650
(Vnext
p2651
g11
tp2652
a(Vangry
p2653
g14
tp2654
aasI291
(lp2655
(lp2656
(VBest
p2657
g168
tp2658
a(Vangry
p2659
g14
tp2660
aasI292
(lp2661
sI293
(lp2662
sI294
(lp2663
(lp2664
(VBest
p2665
g168
tp2666
a(Vgame
p2667
g14
tp2668
aasI295
(lp2669
(lp2670
(Vthe
p2671
g51
tp2672
a(Vbest
p2673
g168
tp2674
aa(lp2675
g2674
a(Vangry
p2676
g14
tp2677
aasI296
(lp2678
(lp2679
(VAbsolutely
p2680
g4
tp2681
a(Ventertaining
p2682
g134
tp2683
aa(lp2684
(Vcompletely
p2685
g4
tp2686
a(Vhappy
p2687
g11
tp2688
aasI297
(lp2689
sI298
(lp2690
(lp2691
(VMost
p2692
g168
tp2693
a(Veasiest
p2694
g11
tp2695
aa(lp2696
g2695
a(Vangry
p2697
g14
tp2698
aasI299
(lp2699
sI300
(lp2700
(lp2701
(Vnext
p2702
g11
tp2703
a(Vangry
p2704
g14
tp2705
aasI301
(lp2706
sI302
(lp2707
(lp2708
(VBest
p2709
g168
tp2710
a(Vangry
p2711
g14
tp2712
aasI303
(lp2713
sI304
(lp2714
sI305
(lp2715
sI306
(lp2716
sI307
(lp2717
(lp2718
(Vthe
p2719
g51
tp2720
a(Vbest
p2721
g168
tp2722
aa(lp2723
g2722
a(Vangry
p2724
g14
tp2725
aasI308
(lp2726
(lp2727
(VAbsolutely
p2728
g4
tp2729
a(Ventertaining
p2730
g134
tp2731
aa(lp2732
(Vcompletely
p2733
g4
tp2734
a(Vhappy
p2735
g11
tp2736
aasI309
(lp2737
(lp2738
(Vespecially
p2739
g4
tp2740
a(Vlove
p2741
g7
tp2742
aa(lp2743
(Vn't
p2744
g4
tp2745
a(Vlet
p2746
g7
tp2747
aa(lp2748
(VNot
p2749
g4
tp2750
a(Vhappy
p2751
g11
tp2752
aasI310
(lp2753
(lp2754
(VMost
p2755
g168
tp2756
a(Veasiest
p2757
g11
tp2758
aa(lp2759
g2758
a(Vangry
p2760
g14
tp2761
aasI311
(lp2762
(lp2763
(Veven
p2764
g4
tp2765
a(Vhave
p2766
g7
tp2767
aasI312
(lp2768
sI313
(lp2769
sI314
(lp2770
(lp2771
(Vn't
p2772
g4
tp2773
a(Vwork
p2774
g7
tp2775
aa(lp2776
(Vthe
p2777
g51
tp2778
a(Vfree
p2779
g11
tp2780
aa(lp2781
g2780
a(Vparts
p2782
g47
tp2783
aasI315
(lp2784
sI316
(lp2785
sI317
(lp2786
(lp2787
(VAbsolutely
p2788
g4
tp2789
a(Ventertaining
p2790
g134
tp2791
aa(lp2792
(Vcompletely
p2793
g4
tp2794
a(Vhappy
p2795
g11
tp2796
aasI318
(lp2797
sI319
(lp2798
(lp2799
(Vn't
p2800
g4
tp2801
a(Vlet
p2802
g7
tp2803
aa(lp2804
(Vthe
p2805
g51
tp2806
a(Vnew
p2807
g11
tp2808
aasI320
(lp2809
(lp2810
(Vespecially
p2811
g4
tp2812
a(Vlove
p2813
g7
tp2814
aa(lp2815
(Vn't
p2816
g4
tp2817
a(Vlet
p2818
g7
tp2819
aa(lp2820
(VNot
p2821
g4
tp2822
a(Vhappy
p2823
g11
tp2824
aasI321
(lp2825
(lp2826
(Veven
p2827
g4
tp2828
a(Vhave
p2829
g7
tp2830
aasI322
(lp2831
sI323
(lp2832
sI324
(lp2833
sI325
(lp2834
(lp2835
(Vn't
p2836
g4
tp2837
a(Vclose
p2838
g11
tp2839
aa(lp2840
g2839
a(Vads
p2841
g47
tp2842
aasI326
(lp2843
sI327
(lp2844
sI328
(lp2845
(lp2846
(Vn't
p2847
g4
tp2848
a(Vlet
p2849
g7
tp2850
aa(lp2851
(Vthe
p2852
g51
tp2853
a(Vnew
p2854
g11
tp2855
aasI329
(lp2856
(lp2857
(Vespecially
p2858
g4
tp2859
a(Vlove
p2860
g7
tp2861
aa(lp2862
(Vn't
p2863
g4
tp2864
a(Vlet
p2865
g7
tp2866
aa(lp2867
(VNot
p2868
g4
tp2869
a(Vhappy
p2870
g11
tp2871
aasI330
(lp2872
(lp2873
(Vall
p2874
g51
tp2875
a(Vother
p2876
g11
tp2877
aa(lp2878
g2877
a(Vangry
p2879
g14
tp2880
aasI331
(lp2881
sI332
(lp2882
sI333
(lp2883
sI334
(lp2884
(lp2885
(Vfun
p2886
g14
tp2887
a(Vnew
p2888
g11
tp2889
aa(lp2890
g2889
a(Vtrust
p2891
g14
tp2892
aasI335
(lp2893
(lp2894
(Vthe
p2895
g51
tp2896
a(Vother
p2897
g11
tp2898
aasI336
(lp2899
(lp2900
(Vn't
p2901
g4
tp2902
a(Vlet
p2903
g7
tp2904
aa(lp2905
(Vthe
p2906
g51
tp2907
a(Vnew
p2908
g11
tp2909
aasI337
(lp2910
sI338
(lp2911
sI339
(lp2912
(lp2913
(Vall
p2914
g51
tp2915
a(Vother
p2916
g11
tp2917
aa(lp2918
g2917
a(Vangry
p2919
g14
tp2920
aasI340
(lp2921
sI341
(lp2922
(lp2923
(VA
p2924
g51
tp2925
a(Vnice
p2926
g11
tp2927
aa(lp2928
g2927
a(Vtwist
p2929
g14
tp2930
aasI342
(lp2931
sI343
(lp2932
sI344
(lp2933
(lp2934
(Vnot
p2935
g4
tp2936
a(Vwork
p2937
g7
tp2938
aa(lp2939
(Vother
p2940
g11
tp2941
a(Vdevice
p2942
g14
tp2943
aa(lp2944
(Vnot
p2945
g4
tp2946
a(Vwork
p2947
g7
tp2948
aa(lp2949
(Vother
p2950
g11
tp2951
a(Vdevice
p2952
g14
tp2953
aasI345
(lp2954
sI346
(lp2955
(lp2956
(VBest
p2957
g168
tp2958
a(Vgame
p2959
g14
tp2960
aasI347
(lp2961
(lp2962
(Vall
p2963
g51
tp2964
a(Vother
p2965
g11
tp2966
aa(lp2967
g2966
a(Vangry
p2968
g14
tp2969
aasI348
(lp2970
sI349
(lp2971
sI350
(lp2972
(lp2973
(g2924
g51
tp2974
a(Vnice
p2975
g11
tp2976
aa(lp2977
g2976
a(Vtwist
p2978
g14
tp2979
aasI351
(lp2980
sI352
(lp2981
sI353
(lp2982
sI354
(lp2983
sI355
(lp2984
sI356
(lp2985
(lp2986
(g2924
g51
tp2987
a(Vnice
p2988
g11
tp2989
aa(lp2990
g2989
a(Vtwist
p2991
g14
tp2992
aasI357
(lp2993
sI358
(lp2994
(lp2995
(Vthe
p2996
g51
tp2997
a(Vfunnest
p2998
g168
tp2999
aa(lp3000
g2999
a(Vgame
p3001
g14
tp3002
aasI359
(lp3003
sI360
(lp3004
sI361
(lp3005
(lp3006
(Vepic
p3007
g11
tp3008
a(Vgame
p3009
g14
tp3010
aasI362
(lp3011
sI363
(lp3012
sI364
(lp3013
sI365
(lp3014
sI366
(lp3015
(lp3016
(g2924
g51
tp3017
a(Vnice
p3018
g11
tp3019
aa(lp3020
g3019
a(Vtwist
p3021
g14
tp3022
aasI367
(lp3023
sI368
(lp3024
(lp3025
(Vthe
p3026
g51
tp3027
a(Vfunnest
p3028
g168
tp3029
aa(lp3030
g3029
a(Vgame
p3031
g14
tp3032
aasI369
(lp3033
sI370
(lp3034
sI371
(lp3035
(lp3036
(Vepic
p3037
g11
tp3038
a(Vgame
p3039
g14
tp3040
aasI372
(lp3041
sI373
(lp3042
sI374
(lp3043
sI375
(lp3044
sI376
(lp3045
sI377
(lp3046
(lp3047
(Vthe
p3048
g51
tp3049
a(Vfunnest
p3050
g168
tp3051
aa(lp3052
g3051
a(Vgame
p3053
g14
tp3054
aasI378
(lp3055
sI379
(lp3056
sI380
(lp3057
(lp3058
(VTotally
p3059
g4
tp3060
a(Vdifferent
p3061
g11
tp3062
aa(lp3063
g3062
a(Vview
p3064
g14
tp3065
aasI381
(lp3066
sI382
(lp3067
sI383
(lp3068
sI384
(lp3069
sI385
(lp3070
sI386
(lp3071
sI387
(lp3072
(lp3073
(Vthe
p3074
g51
tp3075
a(Vfunnest
p3076
g168
tp3077
aa(lp3078
g3077
a(Vgame
p3079
g14
tp3080
aasI388
(lp3081
sI389
(lp3082
(lp3083
(VTotally
p3084
g4
tp3085
a(Vdifferent
p3086
g11
tp3087
aa(lp3088
g3087
a(Vview
p3089
g14
tp3090
aasI390
(lp3091
sI391
(lp3092
sI392
(lp3093
(lp3094
(VBest
p3095
g168
tp3096
a(Vapp
p3097
g14
tp3098
aasI393
(lp3099
(lp3100
(Vad
p3101
g14
tp3102
a(Vfree
p3103
g11
tp3104
aa(lp3105
(Vstill
p3106
g4
tp3107
a(Vgetting
p3108
g134
tp3109
aasI394
(lp3110
sI395
(lp3111
sI396
(lp3112
sI397
(lp3113
(lp3114
(VTotally
p3115
g4
tp3116
a(Vdifferent
p3117
g11
tp3118
aa(lp3119
g3118
a(Vview
p3120
g14
tp3121
aasI398
(lp3122
sI399
(lp3123
(lp3124
(VJust
p3125
g4
tp3126
a(Vgot
p3127
g162
tp3128
aasI400
(lp3129
sI401
(lp3130
sI402
(lp3131
(lp3132
(VBest
p3133
g168
tp3134
a(Vapp
p3135
g14
tp3136
aasI403
(lp3137
sI404
(lp3138
(lp3139
(Vangry
p3140
g11
tp3141
a(Vbirds
p3142
g47
tp3143
aa(lp3144
(Vangry
p3145
g11
tp3146
a(Vbirds
p3147
g47
tp3148
aasI405
(lp3149
sI406
(lp3150
(lp3151
(Vad
p3152
g14
tp3153
a(Vfree
p3154
g11
tp3155
aa(lp3156
(Vstill
p3157
g4
tp3158
a(Vgetting
p3159
g134
tp3160
aasI407
(lp3161
sI408
(lp3162
sI409
(lp3163
sI410
(lp3164
sI411
(lp3165
(lp3166
(Vmuch
p3167
g4
tp3168
a(Vfun
p3169
g67
tp3170
aasI412
(lp3171
(lp3172
(VJust
p3173
g4
tp3174
a(Vgot
p3175
g162
tp3176
aasI413
(lp3177
sI414
(lp3178
sI415
(lp3179
sI416
(lp3180
sI417
(lp3181
(lp3182
(Vangry
p3183
g11
tp3184
a(Vbirds
p3185
g47
tp3186
aa(lp3187
(Vangry
p3188
g11
tp3189
a(Vbirds
p3190
g47
tp3191
aasI418
(lp3192
sI419
(lp3193
sI420
(lp3194
sI421
(lp3195
sI422
(lp3196
(lp3197
(Vmuch
p3198
g4
tp3199
a(Vfun
p3200
g67
tp3201
aasI423
(lp3202
sI424
(lp3203
(lp3204
(VBest
p3205
g168
tp3206
a(Vangry
p3207
g14
tp3208
aasI425
(lp3209
sI426
(lp3210
sI427
(lp3211
(lp3212
(Vangry
p3213
g11
tp3214
a(Vbirds
p3215
g47
tp3216
aa(lp3217
(Vangry
p3218
g11
tp3219
a(Vbirds
p3220
g47
tp3221
aasI428
(lp3222
sI429
(lp3223
sI430
(lp3224
sI431
(lp3225
sI432
(lp3226
(lp3227
(Vmuch
p3228
g4
tp3229
a(Vfun
p3230
g67
tp3231
aasI433
(lp3232
sI434
(lp3233
sI435
(lp3234
(lp3235
(VThe
p3236
g51
tp3237
a(Vnew
p3238
g11
tp3239
aa(lp3240
g3239
a(Vpink
p3241
g14
tp3242
aa(lp3243
(Vpretty
p3244
g4
tp3245
a(Vcool
p3246
g11
tp3247
aa(lp3248
(Vnew
p3249
g11
tp3250
a(Vpower
p3251
g14
tp3252
aasI436
(lp3253
(lp3254
(V3yr
p3255
g11
tp3256
a(Vold
p3257
g11
tp3258
aa(lp3259
g3258
a(Vgson
p3260
g14
tp3261
aasI437
(lp3262
(lp3263
(Vvery
p3264
g4
tp3265
a(Vaddicting
p3266
g134
tp3267
aa(lp3268
(Vvery
p3269
g4
tp3270
a(Vnice
p3271
g11
tp3272
aasI438
(lp3273
sI439
(lp3274
sI440
(lp3275
sI441
(lp3276
sI442
(lp3277
sI443
(lp3278
sI444
(lp3279
(lp3280
(g50
g51
tp3281
a(Vnew
p3282
g11
tp3283
aa(lp3284
g3283
a(Vgame
p3285
g14
tp3286
aasI445
(lp3287
sI446
(lp3288
sI447
(lp3289
(lp3290
(VThe
p3291
g51
tp3292
a(Vnew
p3293
g11
tp3294
aa(lp3295
g3294
a(Vpink
p3296
g14
tp3297
aa(lp3298
(Vpretty
p3299
g4
tp3300
a(Vcool
p3301
g11
tp3302
aa(lp3303
(Vnew
p3304
g11
tp3305
a(Vpower
p3306
g14
tp3307
aasI448
(lp3308
(lp3309
(V3yr
p3310
g11
tp3311
a(Vold
p3312
g11
tp3313
aa(lp3314
g3313
a(Vgson
p3315
g14
tp3316
aasI449
(lp3317
(lp3318
(Vvery
p3319
g4
tp3320
a(Vaddicting
p3321
g134
tp3322
aa(lp3323
(Vvery
p3324
g4
tp3325
a(Vnice
p3326
g11
tp3327
aasI450
(lp3328
sI451
(lp3329
sI452
(lp3330
sI453
(lp3331
sI454
(lp3332
sI455
(lp3333
(lp3334
(g50
g51
tp3335
a(Vnew
p3336
g11
tp3337
aa(lp3338
g3337
a(Vgame
p3339
g14
tp3340
aasI456
(lp3341
sI457
(lp3342
(lp3343
(Van
p3344
g51
tp3345
a(Vupdate
p3346
g11
tp3347
aa(lp3348
(Vn't
p3349
g4
tp3350
a(Vmove
p3351
g7
tp3352
aa(lp3353
(Vthe
p3354
g51
tp3355
a(Vsecond
p3356
g11
tp3357
aa(lp3358
g3357
a(Vlevel
p3359
g14
tp3360
aa(lp3361
(Vgreatest
p3362
g168
tp3363
a(Vgame
p3364
g14
tp3365
aasI458
(lp3366
sI459
(lp3367
(lp3368
(VThe
p3369
g51
tp3370
a(Vnew
p3371
g11
tp3372
aa(lp3373
g3372
a(Vpink
p3374
g14
tp3375
aa(lp3376
(Vpretty
p3377
g4
tp3378
a(Vcool
p3379
g11
tp3380
aa(lp3381
(Vnew
p3382
g11
tp3383
a(Vpower
p3384
g14
tp3385
aasI460
(lp3386
sI461
(lp3387
(lp3388
(Vvery
p3389
g4
tp3390
a(Vaddicting
p3391
g134
tp3392
aa(lp3393
(Vvery
p3394
g4
tp3395
a(Vnice
p3396
g11
tp3397
aasI462
(lp3398
sI463
(lp3399
sI464
(lp3400
sI465
(lp3401
sI466
(lp3402
(lp3403
(Van
p3404
g51
tp3405
a(Vupdate
p3406
g11
tp3407
aa(lp3408
(Vn't
p3409
g4
tp3410
a(Vmove
p3411
g7
tp3412
aa(lp3413
(Vthe
p3414
g51
tp3415
a(Vsecond
p3416
g11
tp3417
aa(lp3418
g3417
a(Vlevel
p3419
g14
tp3420
aa(lp3421
(Vgreatest
p3422
g168
tp3423
a(Vgame
p3424
g14
tp3425
aasI467
(lp3426
(lp3427
(Vcharacters
p3428
g47
tp3429
a(Vnew
p3430
g11
tp3431
aasI468
(lp3432
sI469
(lp3433
sI470
(lp3434
sI471
(lp3435
sI472
(lp3436
sI473
(lp3437
sI474
(lp3438
(lp3439
(Van
p3440
g51
tp3441
a(Vupdate
p3442
g11
tp3443
aa(lp3444
(Vn't
p3445
g4
tp3446
a(Vmove
p3447
g7
tp3448
aa(lp3449
(Vthe
p3450
g51
tp3451
a(Vsecond
p3452
g11
tp3453
aa(lp3454
g3453
a(Vlevel
p3455
g14
tp3456
aa(lp3457
(Vgreatest
p3458
g168
tp3459
a(Vgame
p3460
g14
tp3461
aasI475
(lp3462
(lp3463
(Vcharacters
p3464
g47
tp3465
a(Vnew
p3466
g11
tp3467
aasI476
(lp3468
sI477
(lp3469
sI478
(lp3470
sI479
(lp3471
(lp3472
(VReally
p3473
g4
tp3474
a(Vwonder
p3475
g535
tp3476
aasI480
(lp3477
sI481
(lp3478
sI482
(lp3479
sI483
(lp3480
sI484
(lp3481
sI485
(lp3482
(lp3483
(Vvery
p3484
g4
tp3485
a(Vaddictive
p3486
g11
tp3487
aa(lp3488
g3487
a(Vgame
p3489
g14
tp3490
aasI486
(lp3491
sI487
(lp3492
(lp3493
(Vcharacters
p3494
g47
tp3495
a(Vnew
p3496
g11
tp3497
aasI488
(lp3498
sI489
(lp3499
(lp3500
(VReally
p3501
g4
tp3502
a(Vwonder
p3503
g535
tp3504
aasI490
(lp3505
sI491
(lp3506
sI492
(lp3507
sI493
(lp3508
sI494
(lp3509
sI495
(lp3510
sI496
(lp3511
(lp3512
(VThe
p3513
g51
tp3514
a(Vnew
p3515
g11
tp3516
aa(lp3517
g3516
a(Vpowers
p3518
g47
tp3519
aasI497
(lp3520
(lp3521
(Vvery
p3522
g4
tp3523
a(Vaddictive
p3524
g11
tp3525
aa(lp3526
g3525
a(Vgame
p3527
g14
tp3528
aasI498
(lp3529
sI499
(lp3530
sI500
(lp3531
sI501
(lp3532
sI502
(lp3533
sI503
(lp3534
(lp3535
(Vtotally
p3536
g4
tp3537
a(Vaddictive
p3538
g11
tp3539
aa(lp3540
(Vutterly
p3541
g4
tp3542
a(Vbrilliant
p3543
g11
tp3544
aasI504
(lp3545
(lp3546
(VBrilliant
p3547
g11
tp3548
a(Vgraphics
p3549
g47
tp3550
aa(lp3551
(Vautomatic
p3552
g11
tp3553
a(Vimo
p3554
g14
tp3555
aasI505
(lp3556
(lp3557
(Vso
p3558
g4
tp3559
a(Vaddicted
p3560
g67
tp3561
aa(lp3562
(VThe
p3563
g51
tp3564
a(Vonly
p3565
g11
tp3566
aa(lp3567
g3566
a(Vreason
p3568
g14
tp3569
aa(lp3570
(Vn't
p3571
g4
tp3572
a(Vget
p3573
g7
tp3574
aasI506
(lp3575
(lp3576
(Vtotally
p3577
g4
tp3578
a(Vaddictive
p3579
g11
tp3580
aa(lp3581
(Vutterly
p3582
g4
tp3583
a(Vbrilliant
p3584
g11
tp3585
aasI507
(lp3586
(lp3587
(VBrilliant
p3588
g11
tp3589
a(Vgraphics
p3590
g47
tp3591
aa(lp3592
(Vautomatic
p3593
g11
tp3594
a(Vimo
p3595
g14
tp3596
aasI508
(lp3597
(lp3598
(Vso
p3599
g4
tp3600
a(Vaddicted
p3601
g67
tp3602
aa(lp3603
(VThe
p3604
g51
tp3605
a(Vonly
p3606
g11
tp3607
aa(lp3608
g3607
a(Vreason
p3609
g14
tp3610
aa(lp3611
(Vn't
p3612
g4
tp3613
a(Vget
p3614
g7
tp3615
aasI509
(lp3616
(lp3617
(g50
g51
tp3618
a(Vgreat
p3619
g11
tp3620
aa(lp3621
g3620
a(Vgame
p3622
g14
tp3623
aa(lp3624
(g50
g51
tp3625
a(Vnew
p3626
g11
tp3627
aa(lp3628
g3627
a(Vtwist
p3629
g14
tp3630
aa(lp3631
(Vfavorite
p3632
g11
tp3633
a(Vgame
p3634
g14
tp3635
aasI510
(lp3636
(lp3637
(Vreally
p3638
g4
tp3639
a(Vetchy
p3640
g11
tp3641
aa(lp3642
(Vpretty
p3643
g4
tp3644
a(Vfun
p3645
g67
tp3646
aasI511
(lp3647
(lp3648
(Vpretty
p3649
g4
tp3650
a(Vgood
p3651
g11
tp3652
aa(lp3653
g3652
a(Vgame
p3654
g14
tp3655
aasI512
(lp3656
(lp3657
(Vn't
p3658
g4
tp3659
a(Vneed
p3660
g7
tp3661
aasI513
(lp3662
(lp3663
(Vlast
p3664
g11
tp3665
a(Vupdate
p3666
g14
tp3667
aa(lp3668
(VNever
p3669
g4
tp3670
a(Vhad
p3671
g162
tp3672
aasI514
(lp3673
(lp3674
(Vlower
p3675
g535
tp3676
a(Vstars
p3677
g47
tp3678
aa(lp3679
(Vthis
p3680
g51
tp3681
a(Vlast
p3682
g11
tp3683
aa(lp3684
g3683
a(Vupdate
p3685
g14
tp3686
aa(lp3687
(g50
g51
tp3688
a(Vsecond
p3689
g11
tp3690
aa(lp3691
(Valways
p3692
g4
tp3693
a(Vdie
p3694
g7
tp3695
aa(lp3696
(Vthe
p3697
g51
tp3698
a(Vfree
p3699
g11
tp3700
aa(lp3701
g3700
a(Vcoin
p3702
g14
tp3703
aasI515
(lp3704
(lp3705
(Vhigh
p3706
g11
tp3707
a(Vscore
p3708
g14
tp3709
aa(lp3710
(Veven
p3711
g4
tp3712
a(Vwent
p3713
g162
tp3714
aa(lp3715
(Vall
p3716
g51
tp3717
a(Vother
p3718
g11
tp3719
aa(lp3720
g3719
a(VApps
p3721
g47
tp3722
aa(lp3723
(g50
g51
tp3724
a(Vgreat
p3725
g11
tp3726
aasI516
(lp3727
(lp3728
(Vmindless
p3729
g11
tp3730
a(Vgames
p3731
g47
tp3732
aa(lp3733
g3732
a(Vsuch
p3734
g11
tp3735
aa(lp3736
(Vangry
p3737
g11
tp3738
a(Vbirds
p3739
g47
tp3740
aa(lp3741
(Vso
p3742
g4
tp3743
a(Vdifferent
p3744
g11
tp3745
aa(lp3746
(Vso
p3747
g4
tp3748
a(Vaddicted
p3749
g67
tp3750
aasI517
(lp3751
(lp3752
(Vtoo
p3753
g4
tp3754
a(Vmany
p3755
g11
tp3756
aa(lp3757
g3756
a(Vtimes
p3758
g47
tp3759
aa(lp3760
(VAlso
p3761
g4
tp3762
a(Vhome
p3763
g162
tp3764
aa(lp3765
(Vn't
p3766
g4
tp3767
a(Vfit
p3768
g7
tp3769
aa(lp3770
(Vactual
p3771
g11
tp3772
a(Vscreen
p3773
g14
tp3774
aasI518
(lp3775
(lp3776
(Vn't
p3777
g4
tp3778
a(Vrate
p3779
g7
tp3780
aasI519
(lp3781
(lp3782
(VBrilliant
p3783
g11
tp3784
a(Vgame
p3785
g14
tp3786
aa(lp3787
(Vvery
p3788
g4
tp3789
a(Vaddictive
p3790
g11
tp3791
aa(lp3792
(Vgame
p3793
g14
tp3794
a(Vflat
p3795
g11
tp3796
aa(lp3797
(Vthe
p3798
g51
tp3799
a(Vpast
p3800
g11
tp3801
aa(lp3802
g3801
a(Vhour
p3803
g14
tp3804
aasI520
(lp3805
(lp3806
(Vjust
p3807
g4
tp3808
a(Vmore
p3809
g535
tp3810
aa(lp3811
(Vthe
p3812
g51
tp3813
a(Vsame
p3814
g11
tp3815
aa(lp3816
(Vnot
p3817
g4
tp3818
a(Vok
p3819
g7
tp3820
aa(lp3821
(Vthe
p3822
g51
tp3823
a(Vconstant
p3824
g11
tp3825
aa(lp3826
g3825
a(Vgegging
p3827
g14
tp3828
aa(lp3829
(Vother
p3830
g11
tp3831
a(Vapps
p3832
g47
tp3833
aa(lp3834
(Vbuy
p3835
g14
tp3836
a(Vmore
p3837
g535
tp3838
aa(lp3839
g3838
a(Vcoins
p3840
g47
tp3841
aa(lp3842
(Vreally
p3843
g4
tp3844
a(Vannoying
p3845
g134
tp3846
aasI521
(lp3847
(lp3848
(Vbetween..after
p3849
g11
tp3850
a(Vrunning
p3851
g14
tp3852
aasI522
(lp3853
(lp3854
(Vjust
p3855
g4
tp3856
a(Vgot
p3857
g162
tp3858
aa(lp3859
(g50
g51
tp3860
a(Vnew
p3861
g11
tp3862
aa(lp3863
(Vn't
p3864
g4
tp3865
a(Vstop
p3866
g7
tp3867
aasI523
(lp3868
(lp3869
(Vthe
p3870
g51
tp3871
a(Vbest
p3872
g168
tp3873
aa(lp3874
g3873
a(Vgame
p3875
g14
tp3876
aa(lp3877
(Vginger
p3878
g535
tp3879
a(Vbread
p3880
g14
tp3881
aa(lp3882
(Vrecently
p3883
g4
tp3884
a(Vupdated
p3885
g67
tp3886
aa(lp3887
(Vnot
p3888
g4
tp3889
a(Vgoing
p3890
g134
tp3891
aasI524
(lp3892
(lp3893
(g50
g51
tp3894
a(Vsimple
p3895
g11
tp3896
aa(lp3897
g3896
a(Vgame
p3898
g14
tp3899
aa(lp3900
(Vso
p3901
g4
tp3902
a(Vrare
p3903
g11
tp3904
aa(lp3905
(Vfree
p3906
g11
tp3907
a(Vgame
p3908
g14
tp3909
aa(lp3910
(Vno
p3911
g51
tp3912
a(Vintrusive
p3913
g11
tp3914
aa(lp3915
g3914
a(Vads
p3916
g47
tp3917
aasI525
(lp3918
(lp3919
(VToo
p3920
g4
tp3921
a(Vbad
p3922
g11
tp3923
aa(lp3924
(g50
g51
tp3925
a(Vgreat
p3926
g11
tp3927
aa(lp3928
g3927
a(Vgame
p3929
g14
tp3930
aasI526
(lp3931
(lp3932
(Vso
p3933
g4
tp3934
a(VAddictive
p3935
g11
tp3936
aa(lp3937
(Vnot
p3938
g4
tp3939
a(Vget
p3940
g7
tp3941
aasI527
(lp3942
(lp3943
(Vn't
p3944
g4
tp3945
a(Vlose
p3946
g7
tp3947
aasI528
(lp3948
(lp3949
(Veven
p3950
g4
tp3951
a(Vcount
p3952
g7
tp3953
aa(lp3954
(Vnever
p3955
g4
tp3956
a(Vhappened
p3957
g67
tp3958
aa(lp3959
(Vn
p3960
g11
tp3961
a(Vu
p3962
g14
tp3963
aasI529
(lp3964
(lp3965
(g50
g51
tp3966
a(Vhard
p3967
g11
tp3968
aa(lp3969
g3968
a(Vreset
p3970
g14
tp3971
aa(lp3972
(Vsomething
p3973
g14
tp3974
a(Vother
p3975
g11
tp3976
aa(lp3977
(Vjungle
p3978
g11
tp3979
a(Vbridges
p3980
g47
tp3981
aasI530
(lp3982
(lp3983
(g50
g51
tp3984
a(Vcertain
p3985
g11
tp3986
aa(lp3987
g3986
a(Vstage
p3988
g14
tp3989
aa(lp3990
(Vsuch
p3991
g11
tp3992
a(Vspeeds
p3993
g47
tp3994
aa(lp3995
(Vspecial
p3996
g11
tp3997
a(Vpowers
p3998
g47
tp3999
aasI531
(lp4000
(lp4001
(Vstop
p4002
g11
tp4003
a(Vplaying
p4004
g14
tp4005
aa(lp4006
(Vthe
p4007
g51
tp4008
a(Vonly
p4009
g11
tp4010
aa(lp4011
g4010
a(Vproble
p4012
g11
tp4013
aa(lp4014
(Vown
p4015
g11
tp4016
a(Vplz
p4017
g14
tp4018
aasI532
(lp4019
(lp4020
(Vgraphically
p4021
g4
tp4022
a(Vamazing.but
p4023
g11
tp4024
aa(lp4025
(Vthe
p4026
g51
tp4027
a(Vbest
p4028
g168
tp4029
aa(lp4030
g4029
a(Vfree
p4031
g11
tp4032
aasI533
(lp4033
sI534
(lp4034
(lp4035
(g50
g51
tp4036
a(Vgreat
p4037
g11
tp4038
aa(lp4039
g4038
a(Vgame
p4040
g14
tp4041
aa(lp4042
(Vmore
p4043
g535
tp4044
a(Vinteresting
p4045
g11
tp4046
aa(lp4047
(Vgreat
p4048
g11
tp4049
a(Vjob
p4050
g14
tp4051
aasI535
(lp4052
sI536
(lp4053
(lp4054
(VMost
p4055
g168
tp4056
a(Vbrilliant
p4057
g11
tp4058
aa(lp4059
g4058
a(Vgame
p4060
g14
tp4061
aa(lp4062
(Vn't
p4063
g4
tp4064
a(Vplay
p4065
g7
tp4066
aasI537
(lp4067
(lp4068
(Vgreat
p4069
g11
tp4070
a(Vgreat
p4071
g11
tp4072
aa(lp4073
g4072
a(Vgreat
p4074
g11
tp4075
aa(lp4076
g4075
a(Vlil
p4077
g14
tp4078
aasI538
(lp4079
(lp4080
(Vn't
p4081
g4
tp4082
a(Vdiminish
p4083
g7
tp4084
aa(lp4085
(Vgood
p4086
g11
tp4087
a(Vfun
p4088
g14
tp4089
aasI539
(lp4090
(lp4091
(Vlittle
p4092
g4
tp4093
a(Vslow
p4094
g11
tp4095
aasI540
(lp4096
(lp4097
(VThe
p4098
g51
tp4099
a(Vbest
p4100
g168
tp4101
aa(lp4102
g4101
a(Vgame
p4103
g14
tp4104
aasI541
(lp4105
(lp4106
(Vmost
p4107
g208
tp4108
a(Vawesome
p4109
g11
tp4110
aa(lp4111
g4110
a(Vgames
p4112
g47
tp4113
aa(lp4114
(Vever
p4115
g4
tp4116
a(Vplayed
p4117
g67
tp4118
aasI542
(lp4119
(lp4120
(Vamusing
p4121
g11
tp4122
a(Vwaste
p4123
g14
tp4124
aa(lp4125
(g50
g51
tp4126
a(Vgood
p4127
g11
tp4128
aa(lp4129
g4128
a(Vway
p4130
g14
tp4131
aasI543
(lp4132
(lp4133
(g50
g51
tp4134
a(Vgood
p4135
g11
tp4136
aa(lp4137
g4136
a(Vquality
p4138
g14
tp4139
aa(lp4140
(g50
g51
tp4141
a(Vtime-wasting
p4142
g11
tp4143
aasI544
(lp4144
(lp4145
(Vreally
p4146
g4
tp4147
a(Vslow
p4148
g11
tp4149
aasI545
(lp4150
sI546
(lp4151
(lp4152
(VReally
p4153
g4
tp4154
a(Vgood
p4155
g11
tp4156
aa(lp4157
g4156
a(Vgame
p4158
g14
tp4159
aa(lp4160
(Vother
p4161
g11
tp4162
a(Vgames
p4163
g47
tp4164
aasI547
(lp4165
(lp4166
(Vjust
p4167
g4
tp4168
a(Vgot
p4169
g162
tp4170
aa(lp4171
(Vthe
p4172
g51
tp4173
a(Vnew
p4174
g11
tp4175
aa(lp4176
g4175
a(Vupdate
p4177
g14
tp4178
aa(lp4179
(Vnever
p4180
g4
tp4181
a(Vlagged
p4182
g67
tp4183
aa(lp4184
(Vnew
p4185
g11
tp4186
a(Vgames
p4187
g47
tp4188
aa(lp4189
(Vn't
p4190
g4
tp4191
a(Vwant
p4192
g7
tp4193
aasI548
(lp4194
(lp4195
(Vvery
p4196
g4
tp4197
a(Vnifty
p4198
g11
tp4199
aa(lp4200
g4199
a(Vlittle
p4201
g11
tp4202
aa(lp4203
g4202
a(Vtime
p4204
g14
tp4205
aa(lp4206
(g50
g51
tp4207
a(Vquick
p4208
g11
tp4209
aa(lp4210
g4209
a(Vgame
p4211
g14
tp4212
aasI549
(lp4213
(lp4214
(Vthe
p4215
g51
tp4216
a(Vsame
p4217
g11
tp4218
aasI550
(lp4219
sI551
(lp4220
sI552
(lp4221
sI553
(lp4222
sI554
(lp4223
(lp4224
(Vlive
p4225
g11
tp4226
a(Vwater
p4227
g14
tp4228
aasI555
(lp4229
sI556
(lp4230
(lp4231
(Vso
p4232
g4
tp4233
a(Veasy
p4234
g11
tp4235
aasI557
(lp4236
(lp4237
(Vvery
p4238
g4
tp4239
a(Vfun
p4240
g67
tp4241
aasI558
(lp4242
sI559
(lp4243
(lp4244
(Vn't
p4245
g4
tp4246
a(Vknow
p4247
g7
tp4248
aa(lp4249
(VThe
p4250
g51
tp4251
a(Vother
p4252
g11
tp4253
aa(lp4254
g4253
a(Vhalf
p4255
g14
tp4256
aasI560
(lp4257
sI561
(lp4258
(lp4259
(Vthe
p4260
g51
tp4261
a(Vnew
p4262
g11
tp4263
aa(lp4264
g4263
a(Vupdate
p4265
g14
tp4266
aa(lp4267
(Vaccidentally
p4268
g4
tp4269
a(Vbuying
p4270
g134
tp4271
aa(lp4272
(Vthe
p4273
g51
tp4274
a(Vworst
p4275
g168
tp4276
aasI562
(lp4277
(lp4278
(Vreally
p4279
g4
tp4280
a(Vfun
p4281
g67
tp4282
aasI563
(lp4283
(lp4284
(Vnot
p4285
g4
tp4286
a(Vwrong
p4287
g11
tp4288
aasI564
(lp4289
sI565
(lp4290
(lp4291
(Vslightly
p4292
g4
tp4293
a(Vunresponsive
p4294
g11
tp4295
aasI566
(lp4296
(lp4297
(VOverall
p4298
g11
tp4299
a(Venjoy
p4300
g14
tp4301
aa(lp4302
(Vmultiple
p4303
g11
tp4304
a(Vlevels
p4305
g47
tp4306
aa(lp4307
(Vsome
p4308
g51
tp4309
a(Vexcess
p4310
g11
tp4311
aa(lp4312
g4311
a(Vtime
p4313
g14
tp4314
aasI567
(lp4315
(lp4316
(Valso
p4317
g4
tp4318
a(Vloved
p4319
g67
tp4320
aa(lp4321
(Vnot
p4322
g4
tp4323
a(Vdisappointed
p4324
g67
tp4325
aa(lp4326
(Vstill
p4327
g4
tp4328
a(Vgreat
p4329
g11
tp4330
aasI568
(lp4331
(lp4332
(Vfun
p4333
g14
tp4334
a(Vaddictive
p4335
g11
tp4336
aa(lp4337
(Vthe
p4338
g51
tp4339
a(Vonly
p4340
g11
tp4341
aa(lp4342
g4341
a(Vdowner
p4343
g14
tp4344
aa(lp4345
(Vn't
p4346
g4
tp4347
a(Vwanted
p4348
g67
tp4349
aasI569
(lp4350
(lp4351
(Vvery
p4352
g4
tp4353
a(Vgood
p4354
g11
tp4355
aa(lp4356
(Vthe
p4357
g51
tp4358
a(Vfirst
p4359
g11
tp4360
aa(lp4361
g4360
a(Vtime
p4362
g14
tp4363
aa(lp4364
(Voften
p4365
g4
tp4366
a(Vcausing
p4367
g134
tp4368
aa(lp4369
(Vjust
p4370
g4
tp4371
a(Vbe
p4372
g7
tp4373
aa(lp4374
(Vnext
p4375
g11
tp4376
a(Vobjective
p4377
g14
tp4378
aasI570
(lp4379
(lp4380
(g50
g51
tp4381
a(Vgreat
p4382
g11
tp4383
aa(lp4384
g4383
a(Vgame
p4385
g14
tp4386
aasI571
(lp4387
(lp4388
(Vvery
p4389
g4
tp4390
a(Vchallenging
p4391
g134
tp4392
aa(lp4393
(VLast
p4394
g11
tp4395
a(Vfew
p4396
g11
tp4397
aa(lp4398
g4397
a(Vupdates
p4399
g47
tp4400
aa(lp4401
(Vn't
p4402
g4
tp4403
a(Vthink
p4404
g7
tp4405
aa(lp4406
(g50
g51
tp4407
a(Vless
p4408
g535
tp4409
aa(lp4410
g4409
a(Vgraphical
p4411
g11
tp4412
aa(lp4413
g4412
a(Vgame
p4414
g14
tp4415
aa(lp4416
(Volder
p4417
g535
tp4418
a(Vdevices
p4419
g47
tp4420
aasI572
(lp4421
(lp4422
(Vsmall
p4423
g11
tp4424
a(Vissue
p4425
g14
tp4426
aa(lp4427
(Vactually
p4428
g4
tp4429
a(Vwant
p4430
g7
tp4431
aa(lp4432
(Vthe
p4433
g51
tp4434
a(Vdouble
p4435
g11
tp4436
aa(lp4437
g4436
a(Vtap
p4438
g14
tp4439
aa(lp4440
(Voverly
p4441
g4
tp4442
a(Vsensitive
p4443
g11
tp4444
aa(lp4445
(g50
g51
tp4446
a(Vgreat
p4447
g11
tp4448
aa(lp4449
g4448
a(Vway
p4450
g14
tp4451
aasI573
(lp4452
(lp4453
(VAddictive
p4454
g11
tp4455
a(Vfun
p4456
g14
tp4457
aasI574
(lp4458
(lp4459
(Valways
p4460
g4
tp4461
a(Vloved
p4462
g162
tp4463
aa(lp4464
(Vthe
p4465
g51
tp4466
a(Vonly
p4467
g11
tp4468
aa(lp4469
g4468
a(Vreason
p4470
g14
tp4471
aa(lp4472
(g50
g51
tp4473
a(Vlittle
p4474
g11
tp4475
aa(lp4476
g4475
a(Vjumpy
p4477
g14
tp4478
aa(lp4479
(g50
g51
tp4480
a(Vsmaller
p4481
g535
tp4482
aa(lp4483
g4482
a(Vscreen
p4484
g14
tp4485
aasI575
(lp4486
(lp4487
(g50
g51
tp4488
a(Vpowerful
p4489
g11
tp4490
aa(lp4491
g4490
a(Vphone
p4492
g14
tp4493
aasI576
(lp4494
(lp4495
(V.i
p4496
g11
tp4497
a(Vcant
p4498
g14
tp4499
aa(lp4500
(Vvery
p4501
g4
tp4502
a(Vaddictive
p4503
g11
tp4504
aa(lp4505
g4504
a(Vgive
p4506
g11
tp4507
aasI577
(lp4508
(lp4509
(Vjust
p4510
g4
tp4511
a(Vrunning
p4512
g134
tp4513
aa(lp4514
(g50
g51
tp4515
a(Vlong
p4516
g11
tp4517
aa(lp4518
g4517
a(Vride
p4519
g14
tp4520
aa(lp4521
(Vjust
p4522
g4
tp4523
a(Vsitting
p4524
g134
tp4525
aa(lp4526
(Vtime
p4527
g14
tp4528
a(Vuseful
p4529
g11
tp4530
aa(lp4531
(g50
g51
tp4532
a(Vgreat
p4533
g11
tp4534
aa(lp4535
g4534
a(Vgame
p4536
g14
tp4537
aasI578
(lp4538
(lp4539
(Vthe
p4540
g51
tp4541
a(Vwhole
p4542
g11
tp4543
aa(lp4544
g4543
a(Vgame
p4545
g14
tp4546
aa(lp4547
(g50
g51
tp4548
a(Vbig
p4549
g11
tp4550
aa(lp4551
g4550
a(Vbother
p4552
g14
tp4553
aa(lp4554
(g50
g51
tp4555
a(Vgreat
p4556
g11
tp4557
aa(lp4558
g4557
a(Vgame
p4559
g14
tp4560
aasI579
(lp4561
sI580
(lp4562
(lp4563
(Vmost
p4564
g208
tp4565
a(Vfun
p4566
g11
tp4567
aa(lp4568
g4567
a(Vgame
p4569
g14
tp4570
aa(lp4571
(Vever
p4572
g4
tp4573
a(Vplayed
p4574
g67
tp4575
aasI581
(lp4576
(lp4577
(VAlways
p4578
g4
tp4579
a(Vtrying
p4580
g134
tp4581
aa(lp4582
(Vbest
p4583
g168
tp4584
a(Vscore
p4585
g14
tp4586
aasI582
(lp4587
(lp4588
(Vlittle
p4589
g11
tp4590
a(Vbug
p4591
g14
tp4592
aa(lp4593
(Vthe
p4594
g51
tp4595
a(Vrocky
p4596
g11
tp4597
aa(lp4598
g4597
a(Vpath
p4599
g14
tp4600
aa(lp4601
(Vnot
p4602
g4
tp4603
a(Vtake
p4604
g7
tp4605
aasI583
(lp4606
(lp4607
(g50
g51
tp4608
a(Vsecond
p4609
g11
tp4610
aa(lp4611
(Vmany
p4612
g11
tp4613
a(Vtimes
p4614
g47
tp4615
aa(lp4616
(g50
g51
tp4617
a(Vgood
p4618
g11
tp4619
aa(lp4620
g4619
a(Vgame
p4621
g14
tp4622
aasI584
(lp4623
(lp4624
(g50
g51
tp4625
a(Vgood
p4626
g11
tp4627
aa(lp4628
g4627
a(Vgame
p4629
g14
tp4630
aa(lp4631
(g50
g51
tp4632
a(Vgood
p4633
g11
tp4634
aasI585
(lp4635
sI586
(lp4636
(lp4637
(Vnot
p4638
g4
tp4639
a(Vreal
p4640
g11
tp4641
aa(lp4642
g4641
a(Veasy
p4643
g11
tp4644
aasI587
(lp4645
(lp4646
(Vjust
p4647
g4
tp4648
a(Vcant
p4649
g11
tp4650
aa(lp4651
g4650
a(Vstop
p4652
g14
tp4653
aasI588
(lp4654
(lp4655
(Vbrand
p4656
g14
tp4657
a(Vnew
p4658
g11
tp4659
aa(lp4660
(Vn't
p4661
g4
tp4662
a(Vfreeze
p4663
g7
tp4664
aa(lp4665
(Vcertainly
p4666
g4
tp4667
a(Vnecessary
p4668
g11
tp4669
aasI589
(lp4670
(lp4671
(Vreally
p4672
g4
tp4673
a(Vfun
p4674
g11
tp4675
aa(lp4676
(Vworks
p4677
g47
tp4678
a(Vgreat
p4679
g11
tp4680
aasI590
(lp4681
(lp4682
(g50
g51
tp4683
a(Vbasic
p4684
g11
tp4685
aa(lp4686
g4685
a(Vgame
p4687
g14
tp4688
aa(lp4689
(g2924
g51
tp4690
a(Vgreat
p4691
g11
tp4692
aa(lp4693
g4692
a(Vtime
p4694
g14
tp4695
aa(lp4696
(Vthose
p4697
g51
tp4698
a(Vlong
p4699
g11
tp4700
aa(lp4701
g4700
a(Vbus
p4702
g14
tp4703
aasI591
(lp4704
(lp4705
(Vthen
p4706
g4
tp4707
a(Vput
p4708
g67
tp4709
aasI592
(lp4710
(lp4711
(Vonly
p4712
g4
tp4713
a(Vcomplaint
p4714
g11
tp4715
aa(lp4716
(Vso
p4717
g4
tp4718
a(Vgood
p4719
g11
tp4720
aa(lp4721
g4720
a(Vother
p4722
g11
tp4723
aasI593
(lp4724
(lp4725
(VThe
p4726
g51
tp4727
a(Vonly
p4728
g11
tp4729
aa(lp4730
g4729
a(Vthing
p4731
g14
tp4732
aasI594
(lp4733
(lp4734
(V.also
p4735
g4
tp4736
a(Vhaving
p4737
g134
tp4738
aa(lp4739
(Vmore
p4740
g535
tp4741
a(Voptions
p4742
g47
tp4743
aasI595
(lp4744
(lp4745
(Vmotive
p4746
g11
tp4747
a(Vskill
p4748
g14
tp4749
aa(lp4750
(Vnot
p4751
g4
tp4752
a(Vforget
p4753
g7
tp4754
aa(lp4755
(Vbig
p4756
g11
tp4757
a(Vscreen
p4758
g14
tp4759
aasI596
(lp4760
(lp4761
(Vreally
p4762
g4
tp4763
a(Vgood
p4764
g11
tp4765
aa(lp4766
g4765
a(Vgfx
p4767
g14
tp4768
aasI597
(lp4769
(lp4770
(Vreally
p4771
g4
tp4772
a(Vlove
p4773
g7
tp4774
aa(lp4775
(Vsoo
p4776
g14
tp4777
a(Vaddictive
p4778
g11
tp4779
aa(lp4780
(Vn't
p4781
g4
tp4782
a(Vrespond
p4783
g7
tp4784
aasI598
(lp4785
(lp4786
(Vn't
p4787
g4
tp4788
a(Vlag
p4789
g7
tp4790
aa(lp4791
(Vn't
p4792
g4
tp4793
a(Vexperienced
p4794
g67
tp4795
aasI599
(lp4796
(lp4797
(Vn't
p4798
g4
tp4799
a(Vclose
p4800
g7
tp4801
aa(lp4802
(Vnever
p4803
g4
tp4804
a(Vcontacted
p4805
g67
tp4806
aa(lp4807
(VBad
p4808
g11
tp4809
a(Vcustomer
p4810
g14
tp4811
aa(lp4812
(Vn't
p4813
g4
tp4814
a(Vknow
p4815
g7
tp4816
aa(lp4817
(Vn't
p4818
g4
tp4819
a(Vdeserve
p4820
g7
tp4821
aasI600
(lp4822
(lp4823
(Vso
p4824
g4
tp4825
a(Vexcited
p4826
g67
tp4827
aa(lp4828
(Vso
p4829
g4
tp4830
a(Vbad
p4831
g11
tp4832
aa(lp4833
(Vhardly
p4834
g4
tp4835
a(Vplay
p4836
g7
tp4837
aasI601
(lp4838
(lp4839
(g50
g51
tp4840
a(Vbrilliant
p4841
g11
tp4842
aa(lp4843
g4842
a(Vtime
p4844
g14
tp4845
aasI602
(lp4846
sI603
(lp4847
(lp4848
(Voccasional
p4849
g11
tp4850
a(Vlag
p4851
g14
tp4852
aa(lp4853
(Vn't
p4854
g4
tp4855
a(Vcomplain
p4856
g7
tp4857
aasI604
(lp4858
sI605
(lp4859
(lp4860
(Vfew
p4861
g11
tp4862
a(Vlife
p4863
g14
tp4864
aa(lp4865
(Vnot
p4866
g4
tp4867
a(Vwork
p4868
g7
tp4869
aasI606
(lp4870
(lp4871
(Vvery
p4872
g4
tp4873
a(Vaddictive
p4874
g11
tp4875
aa(lp4876
g4875
a(Vgame
p4877
g14
tp4878
aa(lp4879
(Vn't
p4880
g4
tp4881
a(Vwait
p4882
g7
tp4883
aa(lp4884
(Vmore
p4885
g535
tp4886
a(Vgames
p4887
g47
tp4888
aasI607
(lp4889
(lp4890
(Vnot
p4891
g4
tp4892
a(Vable
p4893
g11
tp4894
aasI608
(lp4895
(lp4896
(Vmore
p4897
g535
tp4898
a(Vversions
p4899
g47
tp4900
aa(lp4901
(Vother
p4902
g11
tp4903
a(Vgood
p4904
g11
tp4905
aa(lp4906
g4905
a(Vstuff
p4907
g14
tp4908
aa(lp4909
(g50
g51
tp4910
a(Vfish
p4911
g11
tp4912
aa(lp4913
g4912
a(Vgets
p4914
g47
tp4915
aasI609
(lp4916
(lp4917
(VHighly
p4918
g4
tp4919
a(Vaddictive
p4920
g11
tp4921
aa(lp4922
g4921
a(Vgame
p4923
g14
tp4924
aa(lp4925
(Van
p4926
g51
tp4927
a(Ventire
p4928
g11
tp4929
aa(lp4930
g4929
a(Vfamily
p4931
g14
tp4932
aa(lp4933
(Vold
p4934
g11
tp4935
a(V)
p4936
g14
tp4937
aasI610
(lp4938
(lp4939
(Vpretty
p4940
g4
tp4941
a(Vgood
p4942
g11
tp4943
aa(lp4944
(VPretty
p4945
g4
tp4946
a(Vgood
p4947
g11
tp4948
aasI611
(lp4949
(lp4950
(g50
g51
tp4951
a(Vfull
p4952
g11
tp4953
aasI612
(lp4954
(lp4955
(Vso
p4956
g4
tp4957
a(Vfun
p4958
g67
tp4959
aasI613
(lp4960
(lp4961
(Vn't
p4962
g4
tp4963
a(Vregister
p4964
g7
tp4965
aasI614
(lp4966
(lp4967
(g50
g51
tp4968
a(Vgreat
p4969
g11
tp4970
aa(lp4971
g4970
a(Vapp
p4972
g14
tp4973
aa(lp4974
(g50
g51
tp4975
a(Vgreat
p4976
g11
tp4977
aa(lp4978
g4977
a(Vtime
p4979
g14
tp4980
aasI615
(lp4981
(lp4982
(Vjust
p4983
g4
tp4984
a(Vwish
p4985
g11
tp4986
aa(lp4987
(VPOINTS
p4988
g47
tp4989
a(V2Day
p4990
g11
tp4991
aasI616
(lp4992
(lp4993
(Vthen
p4994
g4
tp4995
a(Vplay
p4996
g7
tp4997
aa(lp4998
(Vfar
p4999
g11
tp5000
a(g3962
g14
tp5001
aasI617
(lp5002
(lp5003
(g50
g51
tp5004
a(Vgreat
p5005
g11
tp5006
aa(lp5007
g5006
a(Vgame
p5008
g14
tp5009
aa(lp5010
(Vseveral
p5011
g11
tp5012
a(Vupdates
p5013
g47
tp5014
aa(lp5015
(Vthe
p5016
g51
tp5017
a(Vonly
p5018
g11
tp5019
aa(lp5020
g5019
a(Vsolution
p5021
g14
tp5022
aasI618
(lp5023
(lp5024
(Vjust
p5025
g4
tp5026
a(Vget
p5027
g7
tp5028
aa(lp5029
(Veven
p5030
g4
tp5031
a(Vmade
p5032
g67
tp5033
aasI619
(lp5034
(lp5035
(Vnever
p5036
g4
tp5037
a(Vbeen
p5038
g67
tp5039
aa(lp5040
(Vthe
p5041
g51
tp5042
a(Vfree
p5043
g11
tp5044
aa(lp5045
g5044
a(Vcoin
p5046
g14
tp5047
aa(lp5048
(Vnever
p5049
g4
tp5050
a(Vworked
p5051
g67
tp5052
aasI620
(lp5053
(lp5054
(VNot
p5055
g4
tp5056
a(Vsure
p5057
g11
tp5058
aa(lp5059
(Vthe
p5060
g51
tp5061
a(Vreal
p5062
g11
tp5063
aa(lp5064
g5063
a(Vreason
p5065
g14
tp5066
aa(lp5067
(Veven
p5068
g4
tp5069
a(Vclosed
p5070
g67
tp5071
aa(lp5072
(Vagain
p5073
g4
tp5074
a(Vtested
p5075
g67
tp5076
aasI621
(lp5077
(lp5078
(Vn't
p5079
g4
tp5080
a(Vget
p5081
g7
tp5082
aa(lp5083
(Vmany
p5084
g11
tp5085
a(Vphone
p5086
g14
tp5087
aasI622
(lp5088
(lp5089
(Vthe
p5090
g51
tp5091
a(Vbest
p5092
g168
tp5093
aa(lp5094
g5093
a(Vhandheld
p5095
g14
tp5096
aa(lp5097
(Vmore
p5098
g535
tp5099
a(Vfun
p5100
g14
tp5101
aasI623
(lp5102
(lp5103
(Vso
p5104
g4
tp5105
a(Vaddicting
p5106
g134
tp5107
aa(lp5108
(Vthe
p5109
g51
tp5110
a(Vfunniest
p5111
g168
tp5112
aa(lp5113
g5112
a(Vgames
p5114
g47
tp5115
aa(lp5116
(Vever
p5117
g4
tp5118
a(Vplayed
p5119
g67
tp5120
aasI624
(lp5121
(lp5122
(Valways
p5123
g4
tp5124
a(Vsensitive
p5125
g11
tp5126
aasI625
(lp5127
sI626
(lp5128
(lp5129
(Vn't
p5130
g4
tp5131
a(Vlet
p5132
g7
tp5133
aasI627
(lp5134
sI628
(lp5135
(lp5136
(VThe
p5137
g51
tp5138
a(Vonly
p5139
g11
tp5140
aa(lp5141
g5140
a(Vproblem
p5142
g14
tp5143
aa(lp5144
(VAlso
p5145
g4
tp5146
a(Vforce
p5147
g7
tp5148
aa(lp5149
(Vn't
p5150
g4
tp5151
a(Vpick
p5152
g7
tp5153
aa(lp5154
(Vjust
p5155
g4
tp5156
a(Vbe
p5157
g7
tp5158
aasI629
(lp5159
(lp5160
(g50
g51
tp5161
a(Vsimple
p5162
g11
tp5163
aa(lp5164
g5163
a(Vgame
p5165
g14
tp5166
aasI630
(lp5167
(lp5168
(Venergetic
p5169
g11
tp5170
a(Vjumps
p5171
g47
tp5172
aa(lp5173
(Vthe
p5174
g51
tp5175
a(Vbest
p5176
g168
tp5177
aasI631
(lp5178
(lp5179
(Vfirst
p5180
g11
tp5181
a(Vdrove
p5182
g14
tp5183
aa(lp5184
(Vso
p5185
g4
tp5186
a(Vfun
p5187
g67
tp5188
aasI632
(lp5189
sI633
(lp5190
sI634
(lp5191
(lp5192
(Vfirst
p5193
g4
tp5194
a(Vinstalled
p5195
g162
tp5196
aa(lp5197
(Vmore
p5198
g535
tp5199
a(Vfun
p5200
g11
tp5201
aa(lp5202
(Vthe
p5203
g51
tp5204
a(Vbig
p5205
g11
tp5206
aa(lp5207
g5206
a(Vscreen
p5208
g14
tp5209
aasI635
(lp5210
sI636
(lp5211
(lp5212
(g50
g51
tp5213
a(Vlittle
p5214
g11
tp5215
aa(lp5216
g5215
a(Vglitchy
p5217
g14
tp5218
aasI637
(lp5219
(lp5220
(Vthe
p5221
g51
tp5222
a(Vbest
p5223
g168
tp5224
aa(lp5225
g5224
a(Vgame
p5226
g14
tp5227
aa(lp5228
(Vthe
p5229
g51
tp5230
a(Vhighest
p5231
g168
tp5232
aa(lp5233
g5232
a(Vscore
p5234
g14
tp5235
aasI638
(lp5236
(lp5237
(Veven
p5238
g4
tp5239
a(Vget
p5240
g7
tp5241
aa(lp5242
(Vnormally
p5243
g4
tp5244
a(Vget
p5245
g7
tp5246
aa(lp5247
(Vsingle
p5248
g11
tp5249
a(Vcore
p5250
g14
tp5251
aa(lp5252
(g50
g51
tp5253
a(Vsingle
p5254
g11
tp5255
aa(lp5256
g5255
a(Vcore
p5257
g14
tp5258
aa(lp5259
(Vlower
p5260
g535
tp5261
a(Vprocessor
p5262
g14
tp5263
aa(lp5264
(Vother
p5265
g11
tp5266
a(Vbugs
p5267
g47
tp5268
aasI639
(lp5269
(lp5270
(Vthe
p5271
g51
tp5272
a(Vlast
p5273
g11
tp5274
aa(lp5275
g5274
a(Vmultipler
p5276
g14
tp5277
aa(lp5278
(g50
g51
tp5279
a(Vsmall
p5280
g11
tp5281
aa(lp5282
g5281
a(Vnote
p5283
g14
tp5284
aa(lp5285
(Vthe
p5286
g51
tp5287
a(Vregular
p5288
g11
tp5289
aa(lp5290
g5289
a(Vboost
p5291
g14
tp5292
aa(lp5293
(Vless
p5294
g535
tp5295
a(Vlags
p5296
g47
tp5297
aa(lp5298
(Vgreat
p5299
g11
tp5300
a(Vjob
p5301
g14
tp5302
aa(lp5303
(Vso
p5304
g4
tp5305
a(Vaddicting
p5306
g134
tp5307
aa(lp5308
(Vthe
p5309
g51
tp5310
a(Vnext
p5311
g11
tp5312
aa(lp5313
g5312
a(Vupdate
p5314
g14
tp5315
aa(lp5316
(Vsome
p5317
g51
tp5318
a(Vnew
p5319
g11
tp5320
aa(lp5321
g5320
a(Vobjectives
p5322
g47
tp5323
aa(lp5324
(Vsome
p5325
g51
tp5326
a(Vnew
p5327
g11
tp5328
aa(lp5329
g5328
a(Vtools
p5330
g47
tp5331
aasI640
(lp5332
(lp5333
(Vvery
p5334
g4
tp5335
a(Vteasing
p5336
g134
tp5337
aasI641
(lp5338
(lp5339
(Vn't
p5340
g4
tp5341
a(Vdownload
p5342
g7
tp5343
aa(lp5344
(Vonly
p5345
g4
tp5346
a(Vbegan
p5347
g162
tp5348
aa(lp5349
(Vthe
p5350
g51
tp5351
a(Vnew
p5352
g11
tp5353
aa(lp5354
g5353
a(Vupdate
p5355
g14
tp5356
aasI642
(lp5357
(lp5358
(Vvery
p5359
g4
tp5360
a(Vsimple
p5361
g11
tp5362
aa(lp5363
g5362
a(Vgame
p5364
g14
tp5365
aa(lp5366
(Vnever
p5367
g4
tp5368
a(Vget
p5369
g7
tp5370
aa(lp5371
(Vconstant
p5372
g11
tp5373
a(Vconcentration
p5374
g14
tp5375
aa(lp5376
(Vwhilst
p5377
g11
tp5378
a(Vwatching
p5379
g14
tp5380
aa(lp5381
(VFantastic
p5382
g11
tp5383
a(Vfun
p5384
g14
tp5385
aasI643
(lp5386
(lp5387
(g2924
g51
tp5388
a(Vwonderful
p5389
g11
tp5390
aa(lp5391
(VEven
p5392
g4
tp5393
a(Vcoke
p5394
g162
tp5395
aa(lp5396
(Vthis
p5397
g51
tp5398
a(Vgood
p5399
g11
tp5400
aasI644
(lp5401
(lp5402
(Vmanually
p5403
g4
tp5404
a(Vreset
p5405
g7
tp5406
aasI645
(lp5407
(lp5408
(Vnot
p5409
g4
tp5410
a(Vfix
p5411
g7
tp5412
aa(lp5413
(Vwhole
p5414
g11
tp5415
a(Vscreen
p5416
g14
tp5417
aa(lp5418
(Vso
p5419
g4
tp5420
a(Virritating
p5421
g134
tp5422
aasI646
(lp5423
(lp5424
(Vvery
p5425
g4
tp5426
a(Vnice
p5427
g11
tp5428
aa(lp5429
(Vonly
p5430
g4
tp5431
a(Vgiving
p5432
g134
tp5433
aasI647
(lp5434
(lp5435
(Vnot
p5436
g4
tp5437
a(Vfind
p5438
g7
tp5439
aasI648
(lp5440
(lp5441
(Vlong
p5442
g11
tp5443
a(Vtraffic
p5444
g14
tp5445
aasI649
(lp5446
(lp5447
(Vawesome
p5448
g4
tp5449
a(Vgood
p5450
g11
tp5451
aa(lp5452
g5451
a(Vgame
p5453
g14
tp5454
aasI650
(lp5455
(lp5456
(Vreally
p5457
g4
tp5458
a(Vbad
p5459
g11
tp5460
aa(lp5461
(Vmost
p5462
g168
tp5463
a(Vimages
p5464
g47
tp5465
aa(lp5466
(Vcompletely
p5467
g4
tp5468
a(Vblack
p5469
g11
tp5470
aasI651
(lp5471
(lp5472
(g50
g51
tp5473
a(Vgreat
p5474
g11
tp5475
aa(lp5476
g5475
a(Vapplication~
p5477
g14
tp5478
aasI652
(lp5479
(lp5480
(Vlittle
p5481
g11
tp5482
a(Vsister
p5483
g14
tp5484
aa(lp5485
(Vyears
p5486
g47
tp5487
a(Vold
p5488
g11
tp5489
aa(lp5490
g5489
a(Vscored
p5491
g11
tp5492
aasI653
(lp5493
(lp5494
(VReally
p5495
g4
tp5496
a(Vaddictive
p5497
g11
tp5498
aa(lp5499
(Vonly
p5500
g4
tp5501
a(Vtap
p5502
g7
tp5503
aa(lp5504
(Veven
p5505
g4
tp5506
a(Vworse
p5507
g535
tp5508
aa(lp5509
(Veven
p5510
g4
tp5511
a(Vtouch
p5512
g11
tp5513
aasI654
(lp5514
(lp5515
(Vextremely
p5516
g4
tp5517
a(Vaddicting
p5518
g134
tp5519
aa(lp5520
(Vsome
p5521
g51
tp5522
a(Vother
p5523
g11
tp5524
aa(lp5525
g5524
a(Vcommand
p5526
g14
tp5527
aasI655
(lp5528
sI656
(lp5529
(lp5530
(Vaddictive
p5531
g11
tp5532
a(Vgame
p5533
g14
tp5534
aasI657
(lp5535
(lp5536
(Vgood
p5537
g11
tp5538
a(Vmanner
p5539
g14
tp5540
aasI658
(lp5541
(lp5542
(Vn't
p5543
g4
tp5544
a(Vknow
p5545
g7
tp5546
aasI659
(lp5547
sI660
(lp5548
(lp5549
(Vreal
p5550
g11
tp5551
a(Vglitchy
p5552
g14
tp5553
aa(lp5554
(Vn't
p5555
g4
tp5556
a(Vbe
p5557
g7
tp5558
aa(lp5559
(Vreal
p5560
g11
tp5561
a(Vfun
p5562
g14
tp5563
aasI661
(lp5564
(lp5565
(Vvery
p5566
g4
tp5567
a(Vfast
p5568
g11
tp5569
aasI662
(lp5570
(lp5571
(VThe
p5572
g51
tp5573
a(Vfirst
p5574
g11
tp5575
aa(lp5576
g5575
a(Vtime
p5577
g14
tp5578
aa(lp5579
(Vn't
p5580
g4
tp5581
a(Vstop
p5582
g7
tp5583
aa(lp5584
(Vso
p5585
g4
tp5586
a(Vadicting
p5587
g134
tp5588
aasI663
(lp5589
(lp5590
(Vtemple
p5591
g11
tp5592
a(Vrun
p5593
g14
tp5594
aasI664
(lp5595
(lp5596
(Vnot
p5597
g4
tp5598
a(Vunderstand
p5599
g7
tp5600
aasI665
(lp5601
(lp5602
(VSometimes
p5603
g4
tp5604
a(Vunresponsive
p5605
g11
tp5606
aa(lp5607
(Vmore
p5608
g535
tp5609
a(Vupgrades
p5610
g47
tp5611
aasI666
(lp5612
(lp5613
(V.it
p5614
g11
tp5615
a(Vslows
p5616
g47
tp5617
aasI667
(lp5618
(lp5619
(Vnumerous
p5620
g11
tp5621
a(Vboring
p5622
g14
tp5623
aasI668
(lp5624
(lp5625
(VThe
p5626
g51
tp5627
a(Vonly
p5628
g11
tp5629
aa(lp5630
g5629
a(Vproblem
p5631
g14
tp5632
aasI669
(lp5633
sI670
(lp5634
(lp5635
(Vreally
p5636
g4
tp5637
a(Vfun
p5638
g67
tp5639
aa(lp5640
(Vn't
p5641
g4
tp5642
a(Vstop
p5643
g7
tp5644
aasI671
(lp5645
(lp5646
(Vcompletely
p5647
g4
tp5648
a(Vfeet
p5649
g11
tp5650
aasI672
(lp5651
(lp5652
(Vfavorite
p5653
g11
tp5654
a(Vfeatures
p5655
g47
tp5656
aa(lp5657
(Vthe
p5658
g51
tp5659
a(Vdifferent
p5660
g11
tp5661
aa(lp5662
g5661
a(Vquotes
p5663
g47
tp5664
aa(lp5665
(Vsometimes
p5666
g4
tp5667
a(Vmiss
p5668
g7
tp5669
aa(lp5670
(g50
g51
tp5671
a(Vgreat
p5672
g11
tp5673
aa(lp5674
g5673
a(Vgame
p5675
g14
tp5676
aa(lp5677
g5676
a(Voverall
p5678
g11
tp5679
aasI673
(lp5680
sI674
(lp5681
(lp5682
(Vmajor
p5683
g11
tp5684
a(Vrevamp
p5685
g14
tp5686
aasI675
(lp5687
(lp5688
(Vreally
p5689
g4
tp5690
a(Vplay
p5691
g7
tp5692
aa(lp5693
(g50
g51
tp5694
a(Vgood
p5695
g11
tp5696
aa(lp5697
g5696
a(Vgame
p5698
g14
tp5699
aasI676
(lp5700
(lp5701
(Vso
p5702
g4
tp5703
a(Vsmooth
p5704
g11
tp5705
aa(lp5706
(Vtoo
p5707
g4
tp5708
a(Vlaggy
p5709
g11
tp5710
aa(lp5711
(Vthe
p5712
g51
tp5713
a(Vhigh
p5714
g11
tp5715
aa(lp5716
g5715
a(Vends
p5717
g47
tp5718
aasI677
(lp5719
(lp5720
(VFantastic
p5721
g11
tp5722
a(Vgame
p5723
g14
tp5724
aa(lp5725
(Vabsolutely
p5726
g4
tp5727
a(Vaddictive
p5728
g11
tp5729
aa(lp5730
(Vsimply
p5731
g4
tp5732
a(Vget
p5733
g7
tp5734
aa(lp5735
(VNever
p5736
g4
tp5737
a(Vloved
p5738
g162
tp5739
aa(lp5740
(Vgame
p5741
g14
tp5742
a(Vmore
p5743
g535
tp5744
aasI678
(lp5745
(lp5746
(Vlittle
p5747
g4
tp5748
a(Vslow
p5749
g11
tp5750
aasI679
(lp5751
(lp5752
(Vpretty
p5753
g4
tp5754
a(Vfun
p5755
g11
tp5756
aa(lp5757
(Vpretty
p5758
g4
tp5759
a(Vhuge
p5760
g11
tp5761
aa(lp5762
g5761
a(Vbummer
p5763
g14
tp5764
aa(lp5765
(Vn't
p5766
g4
tp5767
a(Vjump
p5768
g7
tp5769
aa(lp5770
(Vn't
p5771
g4
tp5772
a(Vhave
p5773
g7
tp5774
aa(lp5775
(Vvery
p5776
g4
tp5777
a(Vbeginning
p5778
g134
tp5779
aasI680
(lp5780
(lp5781
(Vthe
p5782
g51
tp5783
a(Vbest
p5784
g168
tp5785
aa(lp5786
g5785
a(Vgames
p5787
g47
tp5788
aa(lp5789
(Vever
p5790
g4
tp5791
a(Vplayed
p5792
g67
tp5793
aa(lp5794
(VThe
p5795
g51
tp5796
a(Vonly
p5797
g11
tp5798
aa(lp5799
g5798
a(Vproblem
p5800
g14
tp5801
aa(lp5802
(Vbig
p5803
g11
tp5804
a(Vpoints
p5805
g47
tp5806
aasI681
(lp5807
(lp5808
(Vn't
p5809
g4
tp5810
a(Vget
p5811
g7
tp5812
aa(lp5813
(VNever
p5814
g4
tp5815
a(Vending
p5816
g134
tp5817
aa(lp5818
(Vso
p5819
g4
tp5820
a(Vmany
p5821
g11
tp5822
aa(lp5823
g5822
a(Vlevels
p5824
g47
tp5825
aasI682
(lp5826
(lp5827
(g50
g51
tp5828
a(Vbite
p5829
g11
tp5830
aa(lp5831
(Vthe
p5832
g51
tp5833
a(Vandroid
p5834
g11
tp5835
aa(lp5836
g5835
a(Vphone
p5837
g14
tp5838
aasI683
(lp5839
(lp5840
(Vmany
p5841
g11
tp5842
a(Vtimes
p5843
g47
tp5844
aa(lp5845
(g50
g51
tp5846
a(Vfew
p5847
g11
tp5848
aa(lp5849
g5848
a(Vsteps
p5850
g47
tp5851
aa(lp5852
(Vn't
p5853
g4
tp5854
a(Vknow
p5855
g7
tp5856
aasI684
(lp5857
(lp5858
(Vmuch
p5859
g4
tp5860
a(Vfun
p5861
g67
tp5862
aa(lp5863
(Vnot
p5864
g4
tp5865
a(Vregister
p5866
g7
tp5867
aa(lp5868
(Vgreat
p5869
g11
tp5870
a(Vfun
p5871
g14
tp5872
aasI685
(lp5873
(lp5874
(Vthen
p5875
g4
tp5876
a(Vdeleted
p5877
g162
tp5878
aa(lp5879
(Vnow
p5880
g4
tp5881
a(Vgone
p5882
g67
tp5883
aasI686
(lp5884
(lp5885
(Vever
p5886
g4
tp5887
a(Vhad
p5888
g162
tp5889
aa(lp5890
(Vthe
p5891
g51
tp5892
a(Vpast
p5893
g11
tp5894
aa(lp5895
(Vnever
p5896
g4
tp5897
a(Vhave
p5898
g7
tp5899
aasI687
(lp5900
(lp5901
(Vsoooo
p5902
g4
tp5903
a(Vaddicted
p5904
g67
tp5905
aa(lp5906
(Vn't
p5907
g4
tp5908
a(Vstop
p5909
g7
tp5910
aasI688
(lp5911
(lp5912
(Vthe
p5913
g51
tp5914
a(Vworst
p5915
g168
tp5916
aasI689
(lp5917
(lp5918
(Vjust
p5919
g4
tp5920
a(Vclosed
p5921
g162
tp5922
aa(lp5923
(g50
g51
tp5924
a(Vgood
p5925
g11
tp5926
aa(lp5927
g5926
a(Vgame
p5928
g14
tp5929
aa(lp5930
(Vnot
p5931
g4
tp5932
a(Vplay
p5933
g7
tp5934
aasI690
(lp5935
(lp5936
(Vso
p5937
g4
tp5938
a(Vnxt
p5939
g11
tp5940
aa(lp5941
g5940
a(Vbest
p5942
g168
tp5943
aa(lp5944
g5943
a(Vthing
p5945
g14
tp5946
aasI691
(lp5947
(lp5948
(Vseveral
p5949
g11
tp5950
a(Vtimes
p5951
g47
tp5952
aa(lp5953
(Vwonderful
p5954
g11
tp5955
a(Votherwise
p5956
g14
tp5957
aasI692
(lp5958
(lp5959
(Vnewest
p5960
g168
tp5961
a(Vversion
p5962
g14
tp5963
aa(lp5964
(Vfuctionally
p5965
g4
tp5966
a(Vmuch
p5967
g11
tp5968
aa(lp5969
(V3rd
p5970
g11
tp5971
a(Vtime
p5972
g14
tp5973
aasI693
(lp5974
(lp5975
(Vthe
p5976
g51
tp5977
a(Vmain
p5978
g11
tp5979
aa(lp5980
g5979
a(Vscreen
p5981
g14
tp5982
aasI694
(lp5983
(lp5984
(Vhorrible
p5985
g11
tp5986
a(Vplz
p5987
g14
tp5988
aasI695
(lp5989
(lp5990
(Vhighly
p5991
g4
tp5992
a(Vaddictive
p5993
g11
tp5994
aa(lp5995
(Vso
p5996
g4
tp5997
a(Vanoying
p5998
g134
tp5999
aasI696
(lp6000
sI697
(lp6001
(lp6002
(g2924
g51
tp6003
a(Vtrue
p6004
g11
tp6005
aa(lp6006
g6005
a(Vmust
p6007
g14
tp6008
aasI698
(lp6009
(lp6010
(Vthe
p6011
g51
tp6012
a(Vwhole
p6013
g11
tp6014
aa(lp6015
g6014
a(Vfamily
p6016
g14
tp6017
aasI699
(lp6018
sI700
(lp6019
(lp6020
(Vn't
p6021
g4
tp6022
a(Vuse
p6023
g7
tp6024
aa(lp6025
(Vonly
p6026
g4
tp6027
a(Vmagnet
p6028
g11
tp6029
aasI701
(lp6030
(lp6031
(Vvery
p6032
g4
tp6033
a(Vexciting
p6034
g134
tp6035
aa(lp6036
(Vn't
p6037
g4
tp6038
a(Vstop
p6039
g7
tp6040
aa(lp6041
(Vonly
p6042
g4
tp6043
a(Vstop
p6044
g7
tp6045
aasI702
(lp6046
(lp6047
(Vyellowish
p6048
g11
tp6049
a(Vwalls
p6050
g47
tp6051
aasI703
(lp6052
(lp6053
(Vthe
p6054
g51
tp6055
a(Vmain
p6056
g11
tp6057
aa(lp6058
g6057
a(Vmenu
p6059
g14
tp6060
aa(lp6061
(Vnothing
p6062
g14
tp6063
a(Vbad
p6064
g11
tp6065
aasI704
(lp6066
sI705
(lp6067
(lp6068
(Vtotally
p6069
g4
tp6070
a(Vaddictive
p6071
g11
tp6072
aasI706
(lp6073
sI707
(lp6074
(lp6075
(g50
g51
tp6076
a(Vsecond
p6077
g11
tp6078
aa(lp6079
(Vgood
p6080
g11
tp6081
a(Vfun
p6082
g14
tp6083
aasI708
(lp6084
sI709
(lp6085
sI710
(lp6086
(lp6087
(g50
g51
tp6088
a(Vbrilliant
p6089
g11
tp6090
aa(lp6091
g6090
a(Vconcept
p6092
g14
tp6093
aa(lp6094
(Vlittle
p6095
g4
tp6096
a(Vslow
p6097
g11
tp6098
aa(lp6099
(Vn't
p6100
g4
tp6101
a(Vregister
p6102
g7
tp6103
aasI711
(lp6104
(lp6105
(Vtotally
p6106
g4
tp6107
a(Vaddictive
p6108
g11
tp6109
aasI712
(lp6110
sI713
(lp6111
(lp6112
(Vthe
p6113
g51
tp6114
a(Vwhole
p6115
g11
tp6116
aa(lp6117
g6116
a(Vfamily
p6118
g14
tp6119
aasI714
(lp6120
(lp6121
(Vthe
p6122
g51
tp6123
a(Vmain
p6124
g11
tp6125
aa(lp6126
g6125
a(Vmenu
p6127
g14
tp6128
aa(lp6129
(Vnothing
p6130
g14
tp6131
a(Vbad
p6132
g11
tp6133
aasI715
(lp6134
(lp6135
(g2924
g51
tp6136
a(Vtrue
p6137
g11
tp6138
aa(lp6139
g6138
a(Vmust
p6140
g14
tp6141
aasI716
(lp6142
(lp6143
(Veven
p6144
g4
tp6145
a(Vworth
p6146
g11
tp6147
aasI717
(lp6148
(lp6149
(Vtemple
p6150
g11
tp6151
a(Vrun
p6152
g14
tp6153
aa(lp6154
(Vreally
p6155
g4
tp6156
a(Vgood
p6157
g11
tp6158
aa(lp6159
g6158
a(Vgame
p6160
g14
tp6161
aa(lp6162
g6161
a(Vbig
p6163
g11
tp6164
aa(lp6165
g6164
a(Vtime
p6166
g14
tp6167
aa(lp6168
(Vseriously
p6169
g4
tp6170
a(Vrecommend
p6171
g7
tp6172
aasI718
(lp6173
(lp6174
(Vquite
p6175
g4
tp6176
a(Vaddicting
p6177
g134
tp6178
aa(lp6179
(VThe
p6180
g51
tp6181
a(Vonly
p6182
g11
tp6183
aa(lp6184
g6183
a(Vthing
p6185
g14
tp6186
aa(lp6187
(Valways
p6188
g4
tp6189
a(Vread
p6190
g7
tp6191
aasI719
(lp6192
(lp6193
(Vrid
p6194
g11
tp6195
a(Vgame
p6196
g14
tp6197
aasI720
(lp6198
(lp6199
(g50
g51
tp6200
a(Vsecond
p6201
g11
tp6202
aa(lp6203
(Vgood
p6204
g11
tp6205
a(Vfun
p6206
g14
tp6207
aasI721
(lp6208
(lp6209
(Vso
p6210
g4
tp6211
a(Vchoppy
p6212
g11
tp6213
aa(lp6214
(Valmost
p6215
g14
tp6216
a(Vunplayable
p6217
g11
tp6218
aasI722
(lp6219
sI723
(lp6220
(lp6221
(Vyear
p6222
g14
tp6223
a(Vold
p6224
g11
tp6225
aa(lp6226
g6225
a(Vputs
p6227
g47
tp6228
aasI724
(lp6229
(lp6230
(Vfirst
p6231
g11
tp6232
a(Veaverything
p6233
g14
tp6234
aasI725
(lp6235
(lp6236
(g50
g51
tp6237
a(Vbrilliant
p6238
g11
tp6239
aa(lp6240
g6239
a(Vconcept
p6241
g14
tp6242
aa(lp6243
(Vlittle
p6244
g4
tp6245
a(Vslow
p6246
g11
tp6247
aa(lp6248
(Vn't
p6249
g4
tp6250
a(Vregister
p6251
g7
tp6252
aasI726
(lp6253
(lp6254
(Vfree
p6255
g11
tp6256
a(Vgames
p6257
g47
tp6258
aa(lp6259
(Vmost
p6260
g208
tp6261
a(Vaddicting
p6262
g134
tp6263
aa(lp6264
(Vever
p6265
g4
tp6266
a(Vplayed
p6267
g67
tp6268
aa(lp6269
(g50
g51
tp6270
a(Vmobile
p6271
g11
tp6272
aa(lp6273
g6272
a(Vdevice
p6274
g14
tp6275
aa(lp6276
(Vthe
p6277
g51
tp6278
a(Vbest
p6279
g168
tp6280
aa(lp6281
g6280
a(Vfree
p6282
g11
tp6283
aa(lp6284
g6283
a(Vgames
p6285
g47
tp6286
aa(lp6287
(g50
g51
tp6288
a(Vmobile
p6289
g11
tp6290
aa(lp6291
g6290
a(Vdevice
p6292
g14
tp6293
aa(lp6294
(Vmost
p6295
g208
tp6296
a(Vfun
p6297
g11
tp6298
aa(lp6299
(g50
g51
tp6300
a(Vlong
p6301
g11
tp6302
aa(lp6303
g6302
a(Vtime
p6304
g14
tp6305
aasI727
(lp6306
(lp6307
(g50
g51
tp6308
a(Vbig
p6309
g11
tp6310
aa(lp6311
g6310
a(Vgamer
p6312
g14
tp6313
aa(lp6314
(Vthe
p6315
g51
tp6316
a(Vbest
p6317
g168
tp6318
aa(lp6319
g6318
a(Vgame
p6320
g14
tp6321
aa(lp6322
(g50
g51
tp6323
a(Vgreat
p6324
g11
tp6325
aa(lp6326
g6325
a(Vgame
p6327
g14
tp6328
aa(lp6329
(g50
g51
tp6330
a(Vgreat
p6331
g11
tp6332
aasI728
(lp6333
(lp6334
(Vn't
p6335
g4
tp6336
a(Vrecognize
p6337
g7
tp6338
aa(lp6339
(VNot
p6340
g4
tp6341
a(Vsure
p6342
g11
tp6343
aasI729
(lp6344
(lp6345
(Vso
p6346
g4
tp6347
a(Vchoppy
p6348
g11
tp6349
aa(lp6350
(Valmost
p6351
g14
tp6352
a(Vunplayable
p6353
g11
tp6354
aasI730
(lp6355
(lp6356
(Vko
p6357
g4
tp6358
a(Vlagatar
p6359
g11
tp6360
aa(lp6361
g6360
a(Vkhelna
p6362
g14
tp6363
aasI731
(lp6364
(lp6365
(Vtoo
p6366
g4
tp6367
a(Vslow
p6368
g11
tp6369
aasI732
(lp6370
(lp6371
(g50
g51
tp6372
a(Vgood
p6373
g11
tp6374
aa(lp6375
g6374
a(Vgame
p6376
g14
tp6377
aa(lp6378
(Vvery
p6379
g4
tp6380
a(Vglitchy
p6381
g11
tp6382
aasI733
(lp6383
sI734
(lp6384
(lp6385
(Vyear
p6386
g14
tp6387
a(Vold
p6388
g11
tp6389
aa(lp6390
g6389
a(Vputs
p6391
g47
tp6392
aasI735
(lp6393
(lp6394
(Vfirst
p6395
g11
tp6396
a(Veaverything
p6397
g14
tp6398
aasI736
(lp6399
(lp6400
(g50
g51
tp6401
a(Vbig
p6402
g11
tp6403
aa(lp6404
g6403
a(Vgamer
p6405
g14
tp6406
aa(lp6407
(Vthe
p6408
g51
tp6409
a(Vbest
p6410
g168
tp6411
aa(lp6412
g6411
a(Vgame
p6413
g14
tp6414
aa(lp6415
(g50
g51
tp6416
a(Vgreat
p6417
g11
tp6418
aa(lp6419
g6418
a(Vgame
p6420
g14
tp6421
aa(lp6422
(g50
g51
tp6423
a(Vgreat
p6424
g11
tp6425
aasI737
(lp6426
(lp6427
(Vn't
p6428
g4
tp6429
a(Vrecognize
p6430
g7
tp6431
aa(lp6432
(VNot
p6433
g4
tp6434
a(Vsure
p6435
g11
tp6436
aasI738
(lp6437
(lp6438
(Vso
p6439
g4
tp6440
a(Vchoppy
p6441
g11
tp6442
aa(lp6443
(Valmost
p6444
g14
tp6445
a(Vunplayable
p6446
g11
tp6447
aasI739
(lp6448
(lp6449
(Vko
p6450
g4
tp6451
a(Vlagatar
p6452
g11
tp6453
aa(lp6454
g6453
a(Vkhelna
p6455
g14
tp6456
aasI740
(lp6457
(lp6458
(Vtoo
p6459
g4
tp6460
a(Vslow
p6461
g11
tp6462
aasI741
(lp6463
(lp6464
(g50
g51
tp6465
a(Vgood
p6466
g11
tp6467
aa(lp6468
g6467
a(Vgame
p6469
g14
tp6470
aa(lp6471
(Vvery
p6472
g4
tp6473
a(Vglitchy
p6474
g11
tp6475
aasI742
(lp6476
sI743
(lp6477
(lp6478
(Vn't
p6479
g4
tp6480
a(Vstop
p6481
g7
tp6482
aasI744
(lp6483
(lp6484
(Vtemple
p6485
g11
tp6486
a(Vrun
p6487
g14
tp6488
aa(lp6489
(Vreally
p6490
g4
tp6491
a(Vplay
p6492
g7
tp6493
aasI745
(lp6494
(lp6495
(Vminor
p6496
g11
tp6497
a(Vbugs
p6498
g47
tp6499
aa(lp6500
(Vcompletely
p6501
g4
tp6502
a(Vremoved
p6503
g67
tp6504
aa(lp6505
(Vnew
p6506
g11
tp6507
a(Vupdate
p6508
g14
tp6509
aa(lp6510
(Vmore
p6511
g1639
tp6512
a(Vobjective
p6513
g11
tp6514
aa(lp6515
g6514
a(Vnd
p6516
g14
tp6517
aasI746
(lp6518
sI747
(lp6519
sI748
(lp6520
(lp6521
(Vreally
p6522
g4
tp6523
a(Vfun
p6524
g67
tp6525
aa(lp6526
(Vnot
p6527
g4
tp6528
a(Vrespond
p6529
g7
tp6530
aasI749
(lp6531
(lp6532
(Vnumerous
p6533
g11
tp6534
a(Vpurches
p6535
g47
tp6536
aa(lp6537
(Vexact
p6538
g11
tp6539
a(g4936
g14
tp6540
aa(lp6541
(Vive
p6542
g11
tp6543
a(Vtriple
p6544
g14
tp6545
aa(lp6546
(Visnt
p6547
g14
tp6548
a(Vbad
p6549
g11
tp6550
aa(lp6551
(Vreally
p6552
g4
tp6553
a(Vtired
p6554
g67
tp6555
aasI750
(lp6556
(lp6557
(g50
g51
tp6558
a(Vbig
p6559
g11
tp6560
aa(lp6561
g6560
a(Vgamer
p6562
g14
tp6563
aa(lp6564
(Vthe
p6565
g51
tp6566
a(Vbest
p6567
g168
tp6568
aa(lp6569
g6568
a(Vgame
p6570
g14
tp6571
aa(lp6572
(g50
g51
tp6573
a(Vgreat
p6574
g11
tp6575
aa(lp6576
g6575
a(Vgame
p6577
g14
tp6578
aa(lp6579
(g50
g51
tp6580
a(Vgreat
p6581
g11
tp6582
aasI751
(lp6583
(lp6584
(Vko
p6585
g4
tp6586
a(Vlagatar
p6587
g11
tp6588
aa(lp6589
g6588
a(Vkhelna
p6590
g14
tp6591
aasI752
(lp6592
(lp6593
(Vtoo
p6594
g4
tp6595
a(Vslow
p6596
g11
tp6597
aasI753
(lp6598
(lp6599
(Vn't
p6600
g4
tp6601
a(Vstop
p6602
g7
tp6603
aasI754
(lp6604
(lp6605
(Vtemple
p6606
g11
tp6607
a(Vrun
p6608
g14
tp6609
aa(lp6610
(Vreally
p6611
g4
tp6612
a(Vplay
p6613
g7
tp6614
aasI755
(lp6615
(lp6616
(Vminor
p6617
g11
tp6618
a(Vbugs
p6619
g47
tp6620
aa(lp6621
(Vcompletely
p6622
g4
tp6623
a(Vremoved
p6624
g67
tp6625
aa(lp6626
(Vnew
p6627
g11
tp6628
a(Vupdate
p6629
g14
tp6630
aa(lp6631
(Vmore
p6632
g1639
tp6633
a(Vobjective
p6634
g11
tp6635
aa(lp6636
g6635
a(Vnd
p6637
g14
tp6638
aasI756
(lp6639
(lp6640
(VTHE
p6641
g51
tp6642
a(VBEST
p6643
g168
tp6644
aa(lp6645
(Vtemple
p6646
g11
tp6647
a(Vrun
p6648
g14
tp6649
aa(lp6650
(Vdifferent
p6651
g11
tp6652
a(Vlevels
p6653
g47
tp6654
aasI757
(lp6655
(lp6656
(Vthe
p6657
g51
tp6658
a(Vbest
p6659
g168
tp6660
aa(lp6661
g6660
a(Vgame
p6662
g14
tp6663
aa(lp6664
(VSeriously
p6665
g4
tp6666
a(VLoved
p6667
g67
tp6668
aasI758
(lp6669
(lp6670
(Vthe
p6671
g51
tp6672
a(Vfunnest
p6673
g168
tp6674
aa(lp6675
g6674
a(Vgames
p6676
g47
tp6677
aa(lp6678
(Vever
p6679
g4
tp6680
a(Vplay
p6681
g11
tp6682
aa(lp6683
(g50
g51
tp6684
a(Vlong
p6685
g11
tp6686
aa(lp6687
g6686
a(Vtime
p6688
g14
tp6689
aa(lp6690
(Vstill
p6691
g4
tp6692
a(Vhavent
p6693
g11
tp6694
aa(lp6695
g6694
a(Vmade
p6696
g14
tp6697
aa(lp6698
(Vthe
p6699
g51
tp6700
a(Vblue
p6701
g11
tp6702
aa(lp6703
g6702
a(Vcoins
p6704
g47
tp6705
aa(lp6706
(Vn't
p6707
g4
tp6708
a(Vbe
p6709
g7
tp6710
aasI759
(lp6711
(lp6712
(Vpretty
p6713
g4
tp6714
a(Vgood
p6715
g11
tp6716
aa(lp6717
g6716
a(Vgame
p6718
g14
tp6719
aasI760
(lp6720
sI761
(lp6721
sI762
(lp6722
(lp6723
(Vlast
p6724
g11
tp6725
a(Vweek
p6726
g14
tp6727
aa(lp6728
(Vnot
p6729
g4
tp6730
a(Vworking
p6731
g134
tp6732
aa(lp6733
(Vnormally
p6734
g4
tp6735
a(Vhave
p6736
g7
tp6737
aasI763
(lp6738
(lp6739
(Vnumerous
p6740
g11
tp6741
a(Vpurches
p6742
g47
tp6743
aa(lp6744
(Vexact
p6745
g11
tp6746
a(g4936
g14
tp6747
aa(lp6748
(Vive
p6749
g11
tp6750
a(Vtriple
p6751
g14
tp6752
aa(lp6753
(Visnt
p6754
g14
tp6755
a(Vbad
p6756
g11
tp6757
aa(lp6758
(Vreally
p6759
g4
tp6760
a(Vtired
p6761
g67
tp6762
aasI764
(lp6763
sI765
(lp6764
(lp6765
(Vn't
p6766
g4
tp6767
a(Vstop
p6768
g7
tp6769
aa(lp6770
(Vhigh
p6771
g11
tp6772
a(Vscore
p6773
g14
tp6774
aasI766
(lp6775
(lp6776
(Vthe
p6777
g51
tp6778
a(Vbest
p6779
g168
tp6780
aa(lp6781
g6780
a(Vgame
p6782
g14
tp6783
aa(lp6784
(VSeriously
p6785
g4
tp6786
a(VLoved
p6787
g67
tp6788
aasI767
(lp6789
(lp6790
(g50
g51
tp6791
a(Vgood
p6792
g11
tp6793
aasI768
(lp6794
(lp6795
(Vall
p6796
g51
tp6797
a(Vglitchy
p6798
g11
tp6799
aa(lp6800
(Vn't
p6801
g4
tp6802
a(Vhave
p6803
g7
tp6804
aa(lp6805
(Vn't
p6806
g4
tp6807
a(Vget
p6808
g7
tp6809
aa(lp6810
(Vdoodle
p6811
g11
tp6812
a(Vjump
p6813
g14
tp6814
aa(lp6815
(Vn't
p6816
g4
tp6817
a(Vknow
p6818
g7
tp6819
aasI769
(lp6820
(lp6821
(Vthe
p6822
g51
tp6823
a(Vfunnest
p6824
g168
tp6825
aa(lp6826
g6825
a(Vgames
p6827
g47
tp6828
aa(lp6829
(Vever
p6830
g4
tp6831
a(Vplay
p6832
g11
tp6833
aa(lp6834
(g50
g51
tp6835
a(Vlong
p6836
g11
tp6837
aa(lp6838
g6837
a(Vtime
p6839
g14
tp6840
aa(lp6841
(Vstill
p6842
g4
tp6843
a(Vhavent
p6844
g11
tp6845
aa(lp6846
g6845
a(Vmade
p6847
g14
tp6848
aa(lp6849
(Vthe
p6850
g51
tp6851
a(Vblue
p6852
g11
tp6853
aa(lp6854
g6853
a(Vcoins
p6855
g47
tp6856
aa(lp6857
(Vn't
p6858
g4
tp6859
a(Vbe
p6860
g7
tp6861
aasI770
(lp6862
(lp6863
(Vnever
p6864
g4
tp6865
a(Vhad
p6866
g162
tp6867
aa(lp6868
(Vlast
p6869
g11
tp6870
a(Vscore
p6871
g14
tp6872
aa(lp6873
(Vjust
p6874
g4
tp6875
a(Vsad
p6876
g11
tp6877
aa(lp6878
(g50
g51
tp6879
a(Vnew
p6880
g11
tp6881
aa(lp6882
g6881
a(Vhobby
p6883
g14
tp6884
aasI771
(lp6885
sI772
(lp6886
(lp6887
(Vlast
p6888
g11
tp6889
a(Vweek
p6890
g14
tp6891
aa(lp6892
(Vnot
p6893
g4
tp6894
a(Vworking
p6895
g134
tp6896
aa(lp6897
(Vnormally
p6898
g4
tp6899
a(Vhave
p6900
g7
tp6901
aasI773
(lp6902
(lp6903
(Vlittle
p6904
g4
tp6905
a(Vsister
p6906
g535
tp6907
aa(lp6908
g6907
a(Vloves
p6909
g47
tp6910
aasI774
(lp6911
sI775
(lp6912
(lp6913
(Vn't
p6914
g4
tp6915
a(Vstop
p6916
g7
tp6917
aa(lp6918
(Vhigh
p6919
g11
tp6920
a(Vscore
p6921
g14
tp6922
aasI776
(lp6923
(lp6924
(Vthe
p6925
g51
tp6926
a(Vbest
p6927
g168
tp6928
aa(lp6929
g6928
a(Vgame
p6930
g14
tp6931
aa(lp6932
(VSeriously
p6933
g4
tp6934
a(VLoved
p6935
g67
tp6936
aasI777
(lp6937
(lp6938
(g50
g51
tp6939
a(Vgood
p6940
g11
tp6941
aasI778
(lp6942
(lp6943
(Vall
p6944
g51
tp6945
a(Vglitchy
p6946
g11
tp6947
aa(lp6948
(Vn't
p6949
g4
tp6950
a(Vhave
p6951
g7
tp6952
aa(lp6953
(Vn't
p6954
g4
tp6955
a(Vget
p6956
g7
tp6957
aa(lp6958
(Vdoodle
p6959
g11
tp6960
a(Vjump
p6961
g14
tp6962
aa(lp6963
(Vn't
p6964
g4
tp6965
a(Vknow
p6966
g7
tp6967
aasI779
(lp6968
(lp6969
(Vnever
p6970
g4
tp6971
a(Vhad
p6972
g162
tp6973
aa(lp6974
(Vlast
p6975
g11
tp6976
a(Vscore
p6977
g14
tp6978
aa(lp6979
(Vjust
p6980
g4
tp6981
a(Vsad
p6982
g11
tp6983
aa(lp6984
(g50
g51
tp6985
a(Vnew
p6986
g11
tp6987
aa(lp6988
g6987
a(Vhobby
p6989
g14
tp6990
aasI780
(lp6991
(lp6992
(VInnovative
p6993
g11
tp6994
a(Vconcept
p6995
g14
tp6996
aa(lp6997
(Vsimple
p6998
g11
tp6999
a(Vmechanism
p7000
g14
tp7001
aa(lp7002
(Vthe
p7003
g51
tp7004
a(Vfull
p7005
g11
tp7006
aa(lp7007
g7006
a(Vversion
p7008
g14
tp7009
aasI781
(lp7010
(lp7011
(Vlittle
p7012
g4
tp7013
a(Vsister
p7014
g535
tp7015
aa(lp7016
g7015
a(Vloves
p7017
g47
tp7018
aasI782
(lp7019
sI783
(lp7020
sI784
(lp7021
(lp7022
(Vthe
p7023
g51
tp7024
a(Vandroid
p7025
g11
tp7026
aa(lp7027
(g50
g51
tp7028
a(Vlow
p7029
g11
tp7030
aa(lp7031
g7030
a(Vscore
p7032
g14
tp7033
aasI785
(lp7034
(lp7035
(Vn't
p7036
g4
tp7037
a(Vstop
p7038
g7
tp7039
aa(lp7040
(Vhigh
p7041
g11
tp7042
a(Vscore
p7043
g14
tp7044
aasI786
(lp7045
(lp7046
(Vn't
p7047
g4
tp7048
a(Vstop
p7049
g7
tp7050
aa(lp7051
(VThe
p7052
g51
tp7053
a(Vonly
p7054
g11
tp7055
aa(lp7056
g7055
a(Vthing
p7057
g14
tp7058
aasI787
(lp7059
(lp7060
(Vall
p7061
g51
tp7062
a(Vglitchy
p7063
g11
tp7064
aa(lp7065
(Vn't
p7066
g4
tp7067
a(Vhave
p7068
g7
tp7069
aa(lp7070
(Vn't
p7071
g4
tp7072
a(Vget
p7073
g7
tp7074
aa(lp7075
(Vdoodle
p7076
g11
tp7077
a(Vjump
p7078
g14
tp7079
aa(lp7080
(Vn't
p7081
g4
tp7082
a(Vknow
p7083
g7
tp7084
aasI788
(lp7085
(lp7086
(VInnovative
p7087
g11
tp7088
a(Vconcept
p7089
g14
tp7090
aa(lp7091
(Vsimple
p7092
g11
tp7093
a(Vmechanism
p7094
g14
tp7095
aa(lp7096
(Vthe
p7097
g51
tp7098
a(Vfull
p7099
g11
tp7100
aa(lp7101
g7100
a(Vversion
p7102
g14
tp7103
aasI789
(lp7104
(lp7105
(Vtotally
p7106
g4
tp7107
a(Vaddictive
p7108
g11
tp7109
aasI790
(lp7110
(lp7111
(Vnot
p7112
g4
tp7113
a(Voptimized
p7114
g67
tp7115
aa(lp7116
(Vlow
p7117
g11
tp7118
a(Vend
p7119
g14
tp7120
aasI791
(lp7121
(lp7122
(Vquite
p7123
g4
tp7124
a(Vhard
p7125
g11
tp7126
aasI792
(lp7127
sI793
(lp7128
sI794
(lp7129
(lp7130
(Vthe
p7131
g51
tp7132
a(Vandroid
p7133
g11
tp7134
aa(lp7135
(g50
g51
tp7136
a(Vlow
p7137
g11
tp7138
aa(lp7139
g7138
a(Vscore
p7140
g14
tp7141
aasI795
(lp7142
(lp7143
(Veach
p7144
g51
tp7145
a(Vother
p7146
g11
tp7147
aa(lp7148
(Vdefinitely
p7149
g4
tp7150
a(Vfun
p7151
g67
tp7152
aa(lp7153
(Vthe
p7154
g51
tp7155
a(Ventire
p7156
g11
tp7157
aasI796
(lp7158
(lp7159
(Vn't
p7160
g4
tp7161
a(Vstop
p7162
g7
tp7163
aa(lp7164
(VThe
p7165
g51
tp7166
a(Vonly
p7167
g11
tp7168
aa(lp7169
g7168
a(Vthing
p7170
g14
tp7171
aasI797
(lp7172
(lp7173
(Vall
p7174
g51
tp7175
a(Vglitchy
p7176
g11
tp7177
aa(lp7178
(Vn't
p7179
g4
tp7180
a(Vhave
p7181
g7
tp7182
aa(lp7183
(Vn't
p7184
g4
tp7185
a(Vget
p7186
g7
tp7187
aa(lp7188
(Vdoodle
p7189
g11
tp7190
a(Vjump
p7191
g14
tp7192
aa(lp7193
(Vn't
p7194
g4
tp7195
a(Vknow
p7196
g7
tp7197
aasI798
(lp7198
(lp7199
(VInnovative
p7200
g11
tp7201
a(Vconcept
p7202
g14
tp7203
aa(lp7204
(Vsimple
p7205
g11
tp7206
a(Vmechanism
p7207
g14
tp7208
aa(lp7209
(Vthe
p7210
g51
tp7211
a(Vfull
p7212
g11
tp7213
aa(lp7214
g7213
a(Vversion
p7215
g14
tp7216
aasI799
(lp7217
(lp7218
(Vtotally
p7219
g4
tp7220
a(Vaddictive
p7221
g11
tp7222
aasI800
(lp7223
(lp7224
(Vnot
p7225
g4
tp7226
a(Voptimized
p7227
g67
tp7228
aa(lp7229
(Vlow
p7230
g11
tp7231
a(Vend
p7232
g14
tp7233
aasI801
(lp7234
(lp7235
(Vquite
p7236
g4
tp7237
a(Vhard
p7238
g11
tp7239
aasI802
(lp7240
sI803
(lp7241
sI804
(lp7242
(lp7243
(Vthe
p7244
g51
tp7245
a(Vandroid
p7246
g11
tp7247
aa(lp7248
(g50
g51
tp7249
a(Vlow
p7250
g11
tp7251
aa(lp7252
g7251
a(Vscore
p7253
g14
tp7254
aasI805
(lp7255
(lp7256
(Veach
p7257
g51
tp7258
a(Vother
p7259
g11
tp7260
aa(lp7261
(Vdefinitely
p7262
g4
tp7263
a(Vfun
p7264
g67
tp7265
aa(lp7266
(Vthe
p7267
g51
tp7268
a(Ventire
p7269
g11
tp7270
aasI806
(lp7271
(lp7272
(VInnovative
p7273
g11
tp7274
a(Vconcept
p7275
g14
tp7276
aa(lp7277
(Vsimple
p7278
g11
tp7279
a(Vmechanism
p7280
g14
tp7281
aa(lp7282
(Vthe
p7283
g51
tp7284
a(Vfull
p7285
g11
tp7286
aa(lp7287
g7286
a(Vversion
p7288
g14
tp7289
aasI807
(lp7290
(lp7291
(Vtotally
p7292
g4
tp7293
a(Vaddictive
p7294
g11
tp7295
aasI808
(lp7296
(lp7297
(Vnot
p7298
g4
tp7299
a(Voptimized
p7300
g67
tp7301
aa(lp7302
(Vlow
p7303
g11
tp7304
a(Vend
p7305
g14
tp7306
aasI809
(lp7307
(lp7308
(Vquite
p7309
g4
tp7310
a(Vhard
p7311
g11
tp7312
aasI810
(lp7313
sI811
(lp7314
(lp7315
(Vthe
p7316
g51
tp7317
a(Vandroid
p7318
g11
tp7319
aa(lp7320
(g50
g51
tp7321
a(Vlow
p7322
g11
tp7323
aa(lp7324
g7323
a(Vscore
p7325
g14
tp7326
aasI812
(lp7327
(lp7328
(Vvery
p7329
g4
tp7330
a(Vaddicting
p7331
g134
tp7332
aasI813
(lp7333
(lp7334
(Vnever
p7335
g4
tp7336
a(Vdownloaded
p7337
g67
tp7338
aa(lp7339
(Vgreat
p7340
g11
tp7341
a(Vfun
p7342
g14
tp7343
aasI814
(lp7344
(lp7345
(Vstill
p7346
g4
tp7347
a(Vloading
p7348
g134
tp7349
aa(lp7350
(Vn't
p7351
g4
tp7352
a(Vregister
p7353
g7
tp7354
aa(lp7355
(Vthe
p7356
g51
tp7357
a(Vso-called
p7358
g11
tp7359
aa(lp7360
(Vthe
p7361
g51
tp7362
a(Vfirst
p7363
g11
tp7364
aa(lp7365
g7364
a(Vuse
p7366
g14
tp7367
aasI815
(lp7368
(lp7369
(Vposso
p7370
g4
tp7371
a(Vpagare
p7372
g11
tp7373
aasI816
(lp7374
(lp7375
(Vtotally
p7376
g4
tp7377
a(Vaddictive
p7378
g11
tp7379
aasI817
(lp7380
(lp7381
(Vnot
p7382
g4
tp7383
a(Voptimized
p7384
g67
tp7385
aa(lp7386
(Vlow
p7387
g11
tp7388
a(Vend
p7389
g14
tp7390
aasI818
(lp7391
(lp7392
(Vvery
p7393
g4
tp7394
a(Vfun
p7395
g67
tp7396
aa(lp7397
(Vaddictive
p7398
g11
tp7399
a(Vgame
p7400
g14
tp7401
aa(lp7402
(Vany
p7403
g51
tp7404
a(Vpossible
p7405
g11
tp7406
aa(lp7407
g7406
a(Vway
p7408
g14
tp7409
aasI819
(lp7410
(lp7411
(Vbetter
p7412
g535
tp7413
a(Vgame
p7414
g14
tp7415
aasI820
(lp7416
(lp7417
(g50
g51
tp7418
a(V3D
p7419
g11
tp7420
aa(lp7421
g7420
a(Vgame
p7422
g14
tp7423
aasI821
(lp7424
(lp7425
(VPretty
p7426
g4
tp7427
a(Vgood
p7428
g11
tp7429
aa(lp7430
(Vreally
p7431
g4
tp7432
a(Vmaking
p7433
g134
tp7434
aa(lp7435
(Vrather
p7436
g4
tp7437
a(V'addictive
p7438
g11
tp7439
aasI822
(lp7440
(lp7441
(Vvery
p7442
g4
tp7443
a(Vaddicting
p7444
g134
tp7445
aasI823
(lp7446
sI824
(lp7447
(lp7448
(Vposso
p7449
g4
tp7450
a(Vpagare
p7451
g11
tp7452
aasI825
(lp7453
(lp7454
(Vall
p7455
g51
tp7456
a(Vglitchy
p7457
g11
tp7458
aasI826
(lp7459
(lp7460
(Vbetter
p7461
g535
tp7462
a(Vgame
p7463
g14
tp7464
aasI827
(lp7465
(lp7466
(Vso
p7467
g4
tp7468
a(Vaddicted
p7469
g67
tp7470
aa(lp7471
(Vthe
p7472
g51
tp7473
a(Vmagic
p7474
g11
tp7475
aa(lp7476
(Vn't
p7477
g4
tp7478
a(Vrun
p7479
g7
tp7480
aa(lp7481
(Vnot
p7482
g4
tp7483
a(Vresponding
p7484
g134
tp7485
aasI828
(lp7486
(lp7487
(g50
g51
tp7488
a(V3D
p7489
g11
tp7490
aa(lp7491
g7490
a(Vgame
p7492
g14
tp7493
aasI829
(lp7494
(lp7495
(VPretty
p7496
g4
tp7497
a(Vgood
p7498
g11
tp7499
aa(lp7500
(Vreally
p7501
g4
tp7502
a(Vmaking
p7503
g134
tp7504
aa(lp7505
(Vrather
p7506
g4
tp7507
a(V'addictive
p7508
g11
tp7509
aasI830
(lp7510
sI831
(lp7511
(lp7512
(Vposso
p7513
g4
tp7514
a(Vpagare
p7515
g11
tp7516
aasI832
(lp7517
sI833
(lp7518
(lp7519
(Vall
p7520
g51
tp7521
a(Vglitchy
p7522
g11
tp7523
aasI834
(lp7524
(lp7525
(Vvery
p7526
g4
tp7527
a(Vaddictive
p7528
g11
tp7529
aa(lp7530
(Vn't
p7531
g4
tp7532
a(Vstop
p7533
g7
tp7534
aasI835
(lp7535
sI836
(lp7536
(lp7537
(g50
g51
tp7538
a(Vgood
p7539
g11
tp7540
aa(lp7541
g7540
a(Vgame
p7542
g14
tp7543
aa(lp7544
(Veven
p7545
g4
tp7546
a(Vpick
p7547
g7
tp7548
aasI837
(lp7549
(lp7550
(VTotally
p7551
g4
tp7552
a(Vaddictive
p7553
g11
tp7554
aa(lp7555
(Vlittle
p7556
g4
tp7557
a(Vjerky
p7558
g11
tp7559
aa(lp7560
(Vyet
p7561
g4
tp7562
a(Vgive
p7563
g7
tp7564
aasI838
(lp7565
(lp7566
(Vfinish
p7567
g11
tp7568
a(Vline
p7569
g14
tp7570
aasI839
(lp7571
(lp7572
(Vtotally
p7573
g4
tp7574
a(Vaddictive
p7575
g11
tp7576
aasI840
(lp7577
(lp7578
(g50
g51
tp7579
a(Vbit..so
p7580
g11
tp7581
aa(lp7582
(Vnot
p7583
g4
tp7584
a(Vplay
p7585
g7
tp7586
aa(lp7587
(Veasily
p7588
g4
tp7589
a(V..n
p7590
g11
tp7591
aa(lp7592
(Vdies
p7593
g47
tp7594
a(Vmost
p7595
g168
tp7596
aasI841
(lp7597
(lp7598
(Vbetter
p7599
g535
tp7600
a(Vgame
p7601
g14
tp7602
aasI842
(lp7603
(lp7604
(Vn't
p7605
g4
tp7606
a(Vtilt
p7607
g7
tp7608
aasI843
(lp7609
(lp7610
(Vso
p7611
g4
tp7612
a(Vaddicted
p7613
g67
tp7614
aa(lp7615
(Vthe
p7616
g51
tp7617
a(Vmagic
p7618
g11
tp7619
aa(lp7620
(Vn't
p7621
g4
tp7622
a(Vrun
p7623
g7
tp7624
aa(lp7625
(Vnot
p7626
g4
tp7627
a(Vresponding
p7628
g134
tp7629
aasI844
(lp7630
(lp7631
(g50
g51
tp7632
a(V3D
p7633
g11
tp7634
aa(lp7635
g7634
a(Vgame
p7636
g14
tp7637
aasI845
(lp7638
(lp7639
(VPretty
p7640
g4
tp7641
a(Vgood
p7642
g11
tp7643
aa(lp7644
(Vreally
p7645
g4
tp7646
a(Vmaking
p7647
g134
tp7648
aa(lp7649
(Vrather
p7650
g4
tp7651
a(V'addictive
p7652
g11
tp7653
aasI846
(lp7654
(lp7655
(Vfinish
p7656
g11
tp7657
a(Vline
p7658
g14
tp7659
aasI847
(lp7660
(lp7661
(Vreally
p7662
g4
tp7663
a(Vdid
p7664
g162
tp7665
aa(lp7666
(Vn't
p7667
g4
tp7668
a(Vthink
p7669
g7
tp7670
aa(lp7671
(g50
g51
tp7672
a(Vsimple
p7673
g11
tp7674
aa(lp7675
g7674
a(Vconcept
p7676
g14
tp7677
aasI848
(lp7678
(lp7679
(Vtotally
p7680
g4
tp7681
a(Vaddictive
p7682
g11
tp7683
aasI849
(lp7684
(lp7685
(Vn't
p7686
g4
tp7687
a(Vtilt
p7688
g7
tp7689
aasI850
(lp7690
(lp7691
(Vso
p7692
g4
tp7693
a(Vaddicted
p7694
g67
tp7695
aa(lp7696
(Vthe
p7697
g51
tp7698
a(Vmagic
p7699
g11
tp7700
aa(lp7701
(Vn't
p7702
g4
tp7703
a(Vrun
p7704
g7
tp7705
aa(lp7706
(Vnot
p7707
g4
tp7708
a(Vresponding
p7709
g134
tp7710
aasI851
(lp7711
(lp7712
(Vn't
p7713
g4
tp7714
a(Vwaste
p7715
g7
tp7716
aa(lp7717
(Vdifferent
p7718
g11
tp7719
a(Vrunners
p7720
g47
tp7721
aa(lp7722
(Vn't
p7723
g4
tp7724
a(Vhave
p7725
g7
tp7726
aa(lp7727
(Vany
p7728
g51
tp7729
a(Vextra
p7730
g11
tp7731
aa(lp7732
g7731
a(Vfeature
p7733
g14
tp7734
aa(lp7735
(Vn't
p7736
g4
tp7737
a(Vspend
p7738
g7
tp7739
aa(lp7740
(Vnot
p7741
g4
tp7742
a(Vworth
p7743
g11
tp7744
aa(lp7745
(Vfirst
p7746
g11
tp7747
a(Vfew
p7748
g11
tp7749
aa(lp7750
g7749
a(Vdays
p7751
g47
tp7752
aa(lp7753
(Vn't
p7754
g4
tp7755
a(Vavoid
p7756
g7
tp7757
aasI852
(lp7758
(lp7759
(Vthe
p7760
g51
tp7761
a(Vlarger
p7762
g535
tp7763
aa(lp7764
g7763
a(Vscreen
p7765
g14
tp7766
aa(lp7767
(Vsmaller
p7768
g535
tp7769
a(Vphone
p7770
g14
tp7771
aasI853
(lp7772
(lp7773
(Vgood
p7774
g11
tp7775
a(Vgame
p7776
g14
tp7777
aa(lp7778
(Vdead
p7779
g11
tp7780
a(Vbcause
p7781
g14
tp7782
aa(lp7783
(Vtht..and
p7784
g11
tp7785
a(Vsometimes
p7786
g47
tp7787
aasI854
(lp7788
sI855
(lp7789
(lp7790
(Vquite
p7791
g4
tp7792
a(Virritating
p7793
g134
tp7794
aasI856
(lp7795
(lp7796
(Vvery
p7797
g4
tp7798
a(Vgooooood
p7799
g11
tp7800
aa(lp7801
g7800
a(Vandroid
p7802
g11
tp7803
aa(lp7804
g7803
a(Vapp
p7805
g14
tp7806
aa(lp7807
(Vgud
p7808
g11
tp7809
a(Vwork
p7810
g14
tp7811
aasI857
(lp7812
(lp7813
(Vn't
p7814
g4
tp7815
a(Vtilt
p7816
g7
tp7817
aasI858
(lp7818
(lp7819
(Vfinally
p7820
g4
tp7821
a(Vget
p7822
g7
tp7823
aa(lp7824
(Vcompletely
p7825
g4
tp7826
a(Vhooked
p7827
g67
tp7828
aa(lp7829
(Vn't
p7830
g4
tp7831
a(Vknow
p7832
g7
tp7833
aa(lp7834
(Vvery
p7835
g4
tp7836
a(Vfun
p7837
g67
tp7838
aa(lp7839
(Vpretty
p7840
g4
tp7841
a(Vsimple
p7842
g11
tp7843
aasI859
(lp7844
(lp7845
(Vn't
p7846
g4
tp7847
a(Vwaste
p7848
g7
tp7849
aa(lp7850
(Vdifferent
p7851
g11
tp7852
a(Vrunners
p7853
g47
tp7854
aa(lp7855
(Vn't
p7856
g4
tp7857
a(Vhave
p7858
g7
tp7859
aa(lp7860
(Vany
p7861
g51
tp7862
a(Vextra
p7863
g11
tp7864
aa(lp7865
g7864
a(Vfeature
p7866
g14
tp7867
aa(lp7868
(Vn't
p7869
g4
tp7870
a(Vspend
p7871
g7
tp7872
aa(lp7873
(Vnot
p7874
g4
tp7875
a(Vworth
p7876
g11
tp7877
aa(lp7878
(Vfirst
p7879
g11
tp7880
a(Vfew
p7881
g11
tp7882
aa(lp7883
g7882
a(Vdays
p7884
g47
tp7885
aa(lp7886
(Vn't
p7887
g4
tp7888
a(Vavoid
p7889
g7
tp7890
aasI860
(lp7891
(lp7892
(Vthe
p7893
g51
tp7894
a(Vlarger
p7895
g535
tp7896
aa(lp7897
g7896
a(Vscreen
p7898
g14
tp7899
aa(lp7900
(Vsmaller
p7901
g535
tp7902
a(Vphone
p7903
g14
tp7904
aasI861
(lp7905
(lp7906
(Vgood
p7907
g11
tp7908
a(Vgame
p7909
g14
tp7910
aa(lp7911
(Vdead
p7912
g11
tp7913
a(Vbcause
p7914
g14
tp7915
aa(lp7916
(Vtht..and
p7917
g11
tp7918
a(Vsometimes
p7919
g47
tp7920
aasI862
(lp7921
(lp7922
(Vreally
p7923
g4
tp7924
a(Vawesome
p7925
g11
tp7926
aa(lp7927
(Vmuch
p7928
g4
tp7929
a(Vfun.m
p7930
g11
tp7931
aa(lp7932
g7931
a(Vkinda
p7933
g14
tp7934
aa(lp7935
(Vds
p7936
g47
tp7937
a(Vgame.tnx
p7938
g11
tp7939
aasI863
(lp7940
sI864
(lp7941
(lp7942
(Vreally
p7943
g4
tp7944
a(Vnice
p7945
g11
tp7946
aa(lp7947
g7946
a(Vtouch
p7948
g14
tp7949
aa(lp7950
(Vlast
p7951
g11
tp7952
a(Vupdated
p7953
g11
tp7954
aa(lp7955
(Vreally
p7956
g4
tp7957
a(Vlaggy.But
p7958
g11
tp7959
aa(lp7960
g7959
a(Vother
p7961
g11
tp7962
aa(lp7963
(Vreally
p7964
g4
tp7965
a(Vgreat
p7966
g11
tp7967
aasI865
(lp7968
(lp7969
(Vperfect
p7970
g11
tp7971
a(Vwen
p7972
g14
tp7973
aasI866
(lp7974
(lp7975
(Vvery
p7976
g4
tp7977
a(Vdifferent
p7978
g11
tp7979
aa(lp7980
(Vn't
p7981
g4
tp7982
a(Vstop
p7983
g7
tp7984
aasI867
(lp7985
(lp7986
(Vreally
p7987
g4
tp7988
a(Vdid
p7989
g162
tp7990
aa(lp7991
(Vn't
p7992
g4
tp7993
a(Vthink
p7994
g7
tp7995
aa(lp7996
(g50
g51
tp7997
a(Vsimple
p7998
g11
tp7999
aa(lp8000
g7999
a(Vconcept
p8001
g14
tp8002
aasI868
(lp8003
(lp8004
(Vvery
p8005
g4
tp8006
a(Vgooooood
p8007
g11
tp8008
aa(lp8009
g8008
a(Vandroid
p8010
g11
tp8011
aa(lp8012
g8011
a(Vapp
p8013
g14
tp8014
aa(lp8015
(Vgud
p8016
g11
tp8017
a(Vwork
p8018
g14
tp8019
aasI869
(lp8020
(lp8021
(Vfinally
p8022
g4
tp8023
a(Vget
p8024
g7
tp8025
aa(lp8026
(Vcompletely
p8027
g4
tp8028
a(Vhooked
p8029
g67
tp8030
aa(lp8031
(Vn't
p8032
g4
tp8033
a(Vknow
p8034
g7
tp8035
aa(lp8036
(Vvery
p8037
g4
tp8038
a(Vfun
p8039
g67
tp8040
aa(lp8041
(Vpretty
p8042
g4
tp8043
a(Vsimple
p8044
g11
tp8045
aasI870
(lp8046
(lp8047
(Vn't
p8048
g4
tp8049
a(Vwaste
p8050
g7
tp8051
aa(lp8052
(Vdifferent
p8053
g11
tp8054
a(Vrunners
p8055
g47
tp8056
aa(lp8057
(Vn't
p8058
g4
tp8059
a(Vhave
p8060
g7
tp8061
aa(lp8062
(Vany
p8063
g51
tp8064
a(Vextra
p8065
g11
tp8066
aa(lp8067
g8066
a(Vfeature
p8068
g14
tp8069
aa(lp8070
(Vn't
p8071
g4
tp8072
a(Vspend
p8073
g7
tp8074
aa(lp8075
(Vnot
p8076
g4
tp8077
a(Vworth
p8078
g11
tp8079
aa(lp8080
(Vfirst
p8081
g11
tp8082
a(Vfew
p8083
g11
tp8084
aa(lp8085
g8084
a(Vdays
p8086
g47
tp8087
aa(lp8088
(Vn't
p8089
g4
tp8090
a(Vavoid
p8091
g7
tp8092
aasI871
(lp8093
(lp8094
(Vgood
p8095
g11
tp8096
a(Vgame
p8097
g14
tp8098
aa(lp8099
(Vdead
p8100
g11
tp8101
a(Vbcause
p8102
g14
tp8103
aa(lp8104
(Vtht..and
p8105
g11
tp8106
a(Vsometimes
p8107
g47
tp8108
aasI872
(lp8109
(lp8110
(Vreally
p8111
g4
tp8112
a(Vawesome
p8113
g11
tp8114
aa(lp8115
(Vmuch
p8116
g4
tp8117
a(Vfun.m
p8118
g11
tp8119
aa(lp8120
g8119
a(Vkinda
p8121
g14
tp8122
aa(lp8123
(Vds
p8124
g47
tp8125
a(Vgame.tnx
p8126
g11
tp8127
aasI873
(lp8128
sI874
(lp8129
(lp8130
(Vreally
p8131
g4
tp8132
a(Vnice
p8133
g11
tp8134
aa(lp8135
g8134
a(Vtouch
p8136
g14
tp8137
aa(lp8138
(Vlast
p8139
g11
tp8140
a(Vupdated
p8141
g11
tp8142
aa(lp8143
(Vreally
p8144
g4
tp8145
a(Vlaggy.But
p8146
g11
tp8147
aa(lp8148
g8147
a(Vother
p8149
g11
tp8150
aa(lp8151
(Vreally
p8152
g4
tp8153
a(Vgreat
p8154
g11
tp8155
aasI875
(lp8156
(lp8157
(Vperfect
p8158
g11
tp8159
a(Vwen
p8160
g14
tp8161
aasI876
(lp8162
sI877
(lp8163
(lp8164
(Vfinally
p8165
g4
tp8166
a(Vget
p8167
g7
tp8168
aa(lp8169
(Vcompletely
p8170
g4
tp8171
a(Vhooked
p8172
g67
tp8173
aa(lp8174
(Vn't
p8175
g4
tp8176
a(Vknow
p8177
g7
tp8178
aa(lp8179
(Vvery
p8180
g4
tp8181
a(Vfun
p8182
g67
tp8183
aa(lp8184
(Vpretty
p8185
g4
tp8186
a(Vsimple
p8187
g11
tp8188
aasI878
(lp8189
(lp8190
(Vthe
p8191
g51
tp8192
a(Vlast
p8193
g11
tp8194
aa(lp8195
(Van
p8196
g51
tp8197
a(Vupdate
p8198
g11
tp8199
aa(lp8200
g8199
a(Vsoon
p8201
g14
tp8202
aasI879
(lp8203
(lp8204
(Vreally
p8205
g4
tp8206
a(Vawesome
p8207
g11
tp8208
aa(lp8209
(Vmuch
p8210
g4
tp8211
a(Vfun.m
p8212
g11
tp8213
aa(lp8214
g8213
a(Vkinda
p8215
g14
tp8216
aa(lp8217
(Vds
p8218
g47
tp8219
a(Vgame.tnx
p8220
g11
tp8221
aasI880
(lp8222
(lp8223
(Vcritical
p8224
g11
tp8225
a(Vsituations
p8226
g47
tp8227
aasI881
(lp8228
(lp8229
(Vever
p8230
g4
tp8231
a(Vget
p8232
g7
tp8233
aasI882
(lp8234
(lp8235
(Vtemple
p8236
g11
tp8237
a(Vrun
p8238
g14
tp8239
aa(lp8240
(VReally
p8241
g4
tp8242
a(Vannoying
p8243
g134
tp8244
aa(lp8245
(Vn't
p8246
g4
tp8247
a(Vhave
p8248
g7
tp8249
aa(lp8250
(Vany
p8251
g51
tp8252
a(Vother
p8253
g11
tp8254
aa(lp8255
g8254
a(Vproblems
p8256
g47
tp8257
aasI883
(lp8258
(lp8259
(Vn't
p8260
g4
tp8261
a(Vrun
p8262
g7
tp8263
aa(lp8264
(Vnot
p8265
g4
tp8266
a(Vrespond
p8267
g7
tp8268
aasI884
(lp8269
(lp8270
(Vsome
p8271
g51
tp8272
a(Vstupid
p8273
g11
tp8274
aa(lp8275
g8274
a(Vglitch
p8276
g14
tp8277
aasI885
(lp8278
(lp8279
(g50
g51
tp8280
a(Vfew
p8281
g11
tp8282
aa(lp8283
g8282
a(Vdays
p8284
g47
tp8285
aa(lp8286
(Vthe
p8287
g51
tp8288
a(Vfirst
p8289
g11
tp8290
aa(lp8291
g8290
a(Vtime
p8292
g14
tp8293
aasI886
(lp8294
(lp8295
(Vevil
p8296
g11
tp8297
a(Vcreatures
p8298
g47
tp8299
aasI887
(lp8300
sI888
(lp8301
sI889
(lp8302
(lp8303
(Vthe
p8304
g51
tp8305
a(Vlast
p8306
g11
tp8307
aa(lp8308
(Van
p8309
g51
tp8310
a(Vupdate
p8311
g11
tp8312
aa(lp8313
g8312
a(Vsoon
p8314
g14
tp8315
aasI890
(lp8316
(lp8317
(Vcritical
p8318
g11
tp8319
a(Vsituations
p8320
g47
tp8321
aasI891
(lp8322
(lp8323
(Vever
p8324
g4
tp8325
a(Vget
p8326
g7
tp8327
aasI892
(lp8328
(lp8329
(Vtemple
p8330
g11
tp8331
a(Vrun
p8332
g14
tp8333
aa(lp8334
(VReally
p8335
g4
tp8336
a(Vannoying
p8337
g134
tp8338
aa(lp8339
(Vn't
p8340
g4
tp8341
a(Vhave
p8342
g7
tp8343
aa(lp8344
(Vany
p8345
g51
tp8346
a(Vother
p8347
g11
tp8348
aa(lp8349
g8348
a(Vproblems
p8350
g47
tp8351
aasI893
(lp8352
(lp8353
(Vthe
p8354
g51
tp8355
a(Vfree
p8356
g11
tp8357
aa(lp8358
g8357
a(Vversion
p8359
g14
tp8360
aa(lp8361
(Vnot
p8362
g4
tp8363
a(Vallow
p8364
g7
tp8365
aasI894
(lp8366
(lp8367
(Vsome
p8368
g51
tp8369
a(Vstupid
p8370
g11
tp8371
aa(lp8372
g8371
a(Vglitch
p8373
g14
tp8374
aasI895
(lp8375
(lp8376
(g50
g51
tp8377
a(Vfew
p8378
g11
tp8379
aa(lp8380
g8379
a(Vdays
p8381
g47
tp8382
aa(lp8383
(Vthe
p8384
g51
tp8385
a(Vfirst
p8386
g11
tp8387
aa(lp8388
g8387
a(Vtime
p8389
g14
tp8390
aasI896
(lp8391
(lp8392
(Vtruly
p8393
g4
tp8394
a(Vaddictive
p8395
g11
tp8396
aa(lp8397
(g50
g51
tp8398
a(Vfew
p8399
g11
tp8400
aa(lp8401
g8400
a(Vsmall
p8402
g11
tp8403
aa(lp8404
g8403
a(Vglitches
p8405
g47
tp8406
aasI897
(lp8407
(lp8408
(Vthe
p8409
g51
tp8410
a(Vrecent
p8411
g11
tp8412
aa(lp8413
g8412
a(Vupgrade
p8414
g14
tp8415
aasI898
(lp8416
(lp8417
(VNeeds
p8418
g47
tp8419
a(Vmore
p8420
g535
tp8421
aa(lp8422
g8421
a(Vobjectives
p8423
g47
tp8424
aasI899
(lp8425
(lp8426
(Vthe
p8427
g51
tp8428
a(Vlast
p8429
g11
tp8430
aa(lp8431
(Van
p8432
g51
tp8433
a(Vupdate
p8434
g11
tp8435
aa(lp8436
g8435
a(Vsoon
p8437
g14
tp8438
aasI900
(lp8439
(lp8440
(g50
g51
tp8441
a(Vgreat
p8442
g11
tp8443
aa(lp8444
g8443
a(Vgame
p8445
g14
tp8446
aa(lp8447
(Vconstantly
p8448
g4
tp8449
a(Vdying
p8450
g134
tp8451
aasI901
(lp8452
(lp8453
(VBest
p8454
g168
tp8455
a(Vgame
p8456
g14
tp8457
aa(lp8458
(g50
g51
tp8459
a(Vbig
p8460
g11
tp8461
aa(lp8462
g8461
a(Vrun
p8463
g14
tp8464
aa(lp8465
(g50
g51
tp8466
a(Vnew
p8467
g11
tp8468
aa(lp8469
g8468
a(Vmap
p8470
g14
tp8471
aasI902
(lp8472
(lp8473
(Vcritical
p8474
g11
tp8475
a(Vsituations
p8476
g47
tp8477
aasI903
(lp8478
(lp8479
(Vever
p8480
g4
tp8481
a(Vget
p8482
g7
tp8483
aasI904
(lp8484
(lp8485
(Vtemple
p8486
g11
tp8487
a(Vrun
p8488
g14
tp8489
aa(lp8490
(VReally
p8491
g4
tp8492
a(Vannoying
p8493
g134
tp8494
aa(lp8495
(Vn't
p8496
g4
tp8497
a(Vhave
p8498
g7
tp8499
aa(lp8500
(Vany
p8501
g51
tp8502
a(Vother
p8503
g11
tp8504
aa(lp8505
g8504
a(Vproblems
p8506
g47
tp8507
aasI905
(lp8508
(lp8509
(Vthe
p8510
g51
tp8511
a(Vfree
p8512
g11
tp8513
aa(lp8514
g8513
a(Vversion
p8515
g14
tp8516
aa(lp8517
(Vnot
p8518
g4
tp8519
a(Vallow
p8520
g7
tp8521
aasI906
(lp8522
(lp8523
(g50
g51
tp8524
a(Vgood
p8525
g11
tp8526
aa(lp8527
g8526
a(Vgame
p8528
g14
tp8529
aa(lp8530
(Vthe
p8531
g51
tp8532
a(Vonly
p8533
g11
tp8534
aa(lp8535
g8534
a(Vthing
p8536
g14
tp8537
aa(lp8538
(Veverytime
p8539
g11
tp8540
a(Vi
p8541
g14
tp8542
aa(lp8543
(Vn't
p8544
g4
tp8545
a(Vturn
p8546
g7
tp8547
aasI907
(lp8548
(lp8549
(Vtruly
p8550
g4
tp8551
a(Vaddictive
p8552
g11
tp8553
aa(lp8554
(g50
g51
tp8555
a(Vfew
p8556
g11
tp8557
aa(lp8558
g8557
a(Vsmall
p8559
g11
tp8560
aa(lp8561
g8560
a(Vglitches
p8562
g47
tp8563
aasI908
(lp8564
(lp8565
(Vthe
p8566
g51
tp8567
a(Vrecent
p8568
g11
tp8569
aa(lp8570
g8569
a(Vupgrade
p8571
g14
tp8572
aasI909
(lp8573
(lp8574
(Vnot
p8575
g4
tp8576
a(Vstop
p8577
g7
tp8578
aasI910
(lp8579
(lp8580
(VNeeds
p8581
g47
tp8582
a(Vmore
p8583
g535
tp8584
aa(lp8585
g8584
a(Vobjectives
p8586
g47
tp8587
aasI911
(lp8588
(lp8589
(g50
g51
tp8590
a(Vgreat
p8591
g11
tp8592
aa(lp8593
g8592
a(Vgame
p8594
g14
tp8595
aa(lp8596
(Vconstantly
p8597
g4
tp8598
a(Vdying
p8599
g134
tp8600
aasI912
(lp8601
(lp8602
(VBest
p8603
g168
tp8604
a(Vgame
p8605
g14
tp8606
aa(lp8607
(g50
g51
tp8608
a(Vbig
p8609
g11
tp8610
aa(lp8611
g8610
a(Vrun
p8612
g14
tp8613
aa(lp8614
(g50
g51
tp8615
a(Vnew
p8616
g11
tp8617
aa(lp8618
g8617
a(Vmap
p8619
g14
tp8620
aasI913
(lp8621
(lp8622
(Vthe
p8623
g51
tp8624
a(Vfree
p8625
g11
tp8626
aa(lp8627
g8626
a(Vversion
p8628
g14
tp8629
aa(lp8630
(Vnot
p8631
g4
tp8632
a(Vallow
p8633
g7
tp8634
aasI914
(lp8635
(lp8636
(Valways
p8637
g4
tp8638
a(Vregister
p8639
g7
tp8640
aa(lp8641
(Vhigh
p8642
g11
tp8643
a(Vspeed
p8644
g14
tp8645
aasI915
(lp8646
(lp8647
(g50
g51
tp8648
a(Vfew
p8649
g11
tp8650
aa(lp8651
g8650
a(Vminutes
p8652
g47
tp8653
aa(lp8654
(Vother
p8655
g11
tp8656
a(Vwise
p8657
g14
tp8658
aa(lp8659
g8658
a(Vgreat
p8660
g11
tp8661
aasI916
(lp8662
sI917
(lp8663
sI918
(lp8664
(lp8665
(Valways
p8666
g4
tp8667
a(Vfollow
p8668
g7
tp8669
aasI919
(lp8670
(lp8671
(g50
g51
tp8672
a(Vgood
p8673
g11
tp8674
aa(lp8675
g8674
a(Vgame
p8676
g14
tp8677
aa(lp8678
(Vthe
p8679
g51
tp8680
a(Vonly
p8681
g11
tp8682
aa(lp8683
g8682
a(Vthing
p8684
g14
tp8685
aa(lp8686
(Veverytime
p8687
g11
tp8688
a(g8541
g14
tp8689
aa(lp8690
(Vn't
p8691
g4
tp8692
a(Vturn
p8693
g7
tp8694
aasI920
(lp8695
(lp8696
(Vnot
p8697
g4
tp8698
a(Vstop
p8699
g7
tp8700
aasI921
(lp8701
(lp8702
(VNeeds
p8703
g47
tp8704
a(Vmore
p8705
g535
tp8706
aa(lp8707
g8706
a(Vobjectives
p8708
g47
tp8709
aasI922
(lp8710
(lp8711
(VBest
p8712
g168
tp8713
a(Vgame
p8714
g14
tp8715
aa(lp8716
(g50
g51
tp8717
a(Vbig
p8718
g11
tp8719
aa(lp8720
g8719
a(Vrun
p8721
g14
tp8722
aa(lp8723
(g50
g51
tp8724
a(Vnew
p8725
g11
tp8726
aa(lp8727
g8726
a(Vmap
p8728
g14
tp8729
aasI923
(lp8730
sI924
(lp8731
(lp8732
(Vjellybean
p8733
g11
tp8734
a(Vupdate
p8735
g14
tp8736
aasI925
(lp8737
sI926
(lp8738
(lp8739
(Vmuch
p8740
g4
tp8741
a(Vfun
p8742
g67
tp8743
aa(lp8744
(Vlittle
p8745
g11
tp8746
a(Vsisters
p8747
g47
tp8748
aa(lp8749
(Vmore
p8750
g1639
tp8751
a(Vthing
p8752
g11
tp8753
aa(lp8754
(Vlittle
p8755
g11
tp8756
a(Vsisters
p8757
g47
tp8758
aasI927
(lp8759
(lp8760
(Vn't
p8761
g4
tp8762
a(Vplay
p8763
g7
tp8764
aasI928
(lp8765
sI929
(lp8766
(lp8767
(Vnot
p8768
g4
tp8769
a(Vstop
p8770
g7
tp8771
aasI930
(lp8772
(lp8773
(Vgreat
p8774
g11
tp8775
a(Vgame
p8776
g14
tp8777
aa(lp8778
(Vpainful
p8779
g11
tp8780
a(Vlong
p8781
g11
tp8782
aa(lp8783
g8782
a(Vjourney..enjoy
p8784
g11
tp8785
aasI931
(lp8786
(lp8787
(Vreally
p8788
g4
tp8789
a(Virritating
p8790
g134
tp8791
aa(lp8792
(Vquickly
p8793
g4
tp8794
a(Vi'l
p8795
g11
tp8796
aa(lp8797
g8796
a(Vgive
p8798
g11
tp8799
aa(lp8800
g8799
a(g3962
g14
tp8801
aasI932
(lp8802
sI933
(lp8803
(lp8804
(Vjellybean
p8805
g11
tp8806
a(Vupdate
p8807
g14
tp8808
aasI934
(lp8809
sI935
(lp8810
(lp8811
(VSometimes
p8812
g4
tp8813
a(Vunresponsive
p8814
g11
tp8815
aasI936
(lp8816
(lp8817
(g50
g51
tp8818
a(Vbig
p8819
g11
tp8820
aa(lp8821
g8820
a(Vfan
p8822
g14
tp8823
aa(lp8824
(g50
g51
tp8825
a(Vhuge
p8826
g11
tp8827
aa(lp8828
g8827
a(Vproblem
p8829
g14
tp8830
aa(lp8831
(Vn't
p8832
g4
tp8833
a(Vwork
p8834
g7
tp8835
aa(lp8836
(Veven
p8837
g4
tp8838
a(Vuninstalled
p8839
g162
tp8840
aa(lp8841
(Vthen
p8842
g4
tp8843
a(Vreinstalled
p8844
g162
tp8845
aa(lp8846
(Vagain
p8847
g4
tp8848
a(Vhelp
p8849
g7
tp8850
aa(lp8851
(Vn't
p8852
g4
tp8853
a(Vstay
p8854
g7
tp8855
aasI937
(lp8856
sI938
(lp8857
(lp8858
(Vthe
p8859
g51
tp8860
a(Vbest
p8861
g168
tp8862
aa(lp8863
g8862
a(Vgame
p8864
g14
tp8865
aa(lp8866
(Vquite
p8867
g4
tp8868
a(Vhumorous
p8869
g11
tp8870
aa(lp8871
(g50
g51
tp8872
a(Vgreat
p8873
g11
tp8874
aa(lp8875
g8874
a(Vgame
p8876
g14
tp8877
aasI939
(lp8878
(lp8879
(VBEST
p8880
g168
tp8881
a(VGAME
p8882
g14
tp8883
aa(lp8884
(Vvery
p8885
g4
tp8886
a(Vwerid
p8887
g11
tp8888
aa(lp8889
g8888
a(Vperson
p8890
g14
tp8891
aasI940
(lp8892
(lp8893
(Vmillion
p8894
g14
tp8895
a(Vdue
p8896
g11
tp8897
aasI941
(lp8898
(lp8899
(g50
g51
tp8900
a(Vgreat
p8901
g11
tp8902
aa(lp8903
g8902
a(Vgame
p8904
g14
tp8905
aa(lp8906
(Vgame
p8907
g14
tp8908
a(Vmost
p8909
g168
tp8910
aa(lp8911
(Vn't
p8912
g4
tp8913
a(Vhave
p8914
g7
tp8915
aa(lp8916
(Vreally
p8917
g4
tp8918
a(Virritating
p8919
g134
tp8920
aasI942
(lp8921
(lp8922
(VThe
p8923
g51
tp8924
a(Vfirst
p8925
g11
tp8926
aa(lp8927
g8926
a(Vinstallation
p8928
g14
tp8929
aa(lp8930
(Vseveral
p8931
g11
tp8932
a(Vtimes
p8933
g47
tp8934
aa(lp8935
(Vnot
p8936
g4
tp8937
a(Vsave
p8938
g7
tp8939
aa(lp8940
(Vrecently
p8941
g4
tp8942
a(Vre
p8943
g7
tp8944
aasI943
(lp8945
(lp8946
(Vrecently
p8947
g4
tp8948
a(Vdownloaded
p8949
g162
tp8950
aa(lp8951
(Vreally
p8952
g4
tp8953
a(Vaddicting
p8954
g134
tp8955
aasI944
(lp8956
(lp8957
(Vgreat
p8958
g11
tp8959
a(Vgame
p8960
g14
tp8961
aa(lp8962
(Vpainful
p8963
g11
tp8964
a(Vlong
p8965
g11
tp8966
aa(lp8967
g8966
a(Vjourney..enjoy
p8968
g11
tp8969
aasI945
(lp8970
(lp8971
(Vsome
p8972
g51
tp8973
a(Vminor
p8974
g11
tp8975
aa(lp8976
g8975
a(Vglitches
p8977
g47
tp8978
aa(lp8979
(Vtoo
p8980
g4
tp8981
a(Vmuch
p8982
g11
tp8983
aa(lp8984
g8983
a(Vtilt
p8985
g14
tp8986
aasI946
(lp8987
sI947
(lp8988
(lp8989
(Vmillion
p8990
g14
tp8991
a(Vdue
p8992
g11
tp8993
aasI948
(lp8994
(lp8995
(g50
g51
tp8996
a(Vgreat
p8997
g11
tp8998
aa(lp8999
g8998
a(Vgame
p9000
g14
tp9001
aa(lp9002
(Vgame
p9003
g14
tp9004
a(Vmost
p9005
g168
tp9006
aa(lp9007
(Vn't
p9008
g4
tp9009
a(Vhave
p9010
g7
tp9011
aa(lp9012
(Vreally
p9013
g4
tp9014
a(Virritating
p9015
g134
tp9016
aasI949
(lp9017
(lp9018
(VThe
p9019
g51
tp9020
a(Vfirst
p9021
g11
tp9022
aa(lp9023
g9022
a(Vinstallation
p9024
g14
tp9025
aa(lp9026
(Vseveral
p9027
g11
tp9028
a(Vtimes
p9029
g47
tp9030
aa(lp9031
(Vnot
p9032
g4
tp9033
a(Vsave
p9034
g7
tp9035
aa(lp9036
(Vrecently
p9037
g4
tp9038
a(Vre
p9039
g7
tp9040
aasI950
(lp9041
(lp9042
(Vrecently
p9043
g4
tp9044
a(Vdownloaded
p9045
g162
tp9046
aa(lp9047
(Vreally
p9048
g4
tp9049
a(Vaddicting
p9050
g134
tp9051
aasI951
(lp9052
(lp9053
(VThe
p9054
g51
tp9055
a(Vonly
p9056
g11
tp9057
aa(lp9058
g9057
a(Vthing
p9059
g14
tp9060
aa(lp9061
(Vmean
p9062
g11
tp9063
a(Vlag
p9064
g14
tp9065
aa(lp9066
(VOverall
p9067
g11
tp9068
a(Vawesome
p9069
g14
tp9070
aasI952
(lp9071
(lp9072
(Vpreviously
p9073
g4
tp9074
a(Vgave
p9075
g162
tp9076
aasI953
(lp9077
(lp9078
(Vgreat
p9079
g11
tp9080
a(Vgame
p9081
g14
tp9082
aa(lp9083
(Vpainful
p9084
g11
tp9085
a(Vlong
p9086
g11
tp9087
aa(lp9088
g9087
a(Vjourney..enjoy
p9089
g11
tp9090
aasI954
(lp9091
(lp9092
(Vsome
p9093
g51
tp9094
a(Vminor
p9095
g11
tp9096
aa(lp9097
g9096
a(Vglitches
p9098
g47
tp9099
aa(lp9100
(Vtoo
p9101
g4
tp9102
a(Vmuch
p9103
g11
tp9104
aa(lp9105
g9104
a(Vtilt
p9106
g14
tp9107
aasI955
(lp9108
(lp9109
(Vreally
p9110
g4
tp9111
a(Virritating
p9112
g134
tp9113
aa(lp9114
(Vquickly
p9115
g4
tp9116
a(Vi'l
p9117
g11
tp9118
aa(lp9119
g9118
a(Vgive
p9120
g11
tp9121
aa(lp9122
g9121
a(g3962
g14
tp9123
aasI956
(lp9124
sI957
(lp9125
sI958
(lp9126
(lp9127
(g50
g51
tp9128
a(Vgood
p9129
g11
tp9130
aa(lp9131
g9130
a(Vgame
p9132
g14
tp9133
aasI959
(lp9134
sI960
(lp9135
(lp9136
(VThe
p9137
g51
tp9138
a(Vonly
p9139
g11
tp9140
aa(lp9141
g9140
a(Vthing
p9142
g14
tp9143
aa(lp9144
(Vmean
p9145
g11
tp9146
a(Vlag
p9147
g14
tp9148
aa(lp9149
(VOverall
p9150
g11
tp9151
a(Vawesome
p9152
g14
tp9153
aasI961
(lp9154
(lp9155
(Vpreviously
p9156
g4
tp9157
a(Vgave
p9158
g162
tp9159
aasI962
(lp9160
(lp9161
(Vsome
p9162
g51
tp9163
a(Vminor
p9164
g11
tp9165
aa(lp9166
g9165
a(Vglitches
p9167
g47
tp9168
aa(lp9169
(Vtoo
p9170
g4
tp9171
a(Vmuch
p9172
g11
tp9173
aa(lp9174
g9173
a(Vtilt
p9175
g14
tp9176
aasI963
(lp9177
sI964
(lp9178
(lp9179
(Vn't
p9180
g4
tp9181
a(Vgive
p9182
g7
tp9183
aasI965
(lp9184
sI966
(lp9185
sI967
(lp9186
(lp9187
(Vpreviously
p9188
g4
tp9189
a(Vgave
p9190
g162
tp9191
aasI968
(lp9192
(lp9193
(Valmost
p9194
g4
tp9195
a(Vexceptional
p9196
g11
tp9197
aa(lp9198
(Vnever
p9199
g4
tp9200
a(Vget
p9201
g7
tp9202
aa(lp9203
(Vthe
p9204
g51
tp9205
a(Vonly
p9206
g11
tp9207
aa(lp9208
g9207
a(Vgame
p9209
g14
tp9210
aa(lp9211
(VThe
p9212
g51
tp9213
a(Vonly
p9214
g11
tp9215
aa(lp9216
g9215
a(Vproblems
p9217
g47
tp9218
aa(lp9219
(Vn't
p9220
g4
tp9221
a(Vregister
p9222
g7
tp9223
aa(lp9224
(Vnot
p9225
g4
tp9226
a(Vregister
p9227
g7
tp9228
aasI969
(lp9229
(lp9230
(Vn't
p9231
g4
tp9232
a(Vrun
p9233
g7
tp9234
aasI970
(lp9235
sI971
(lp9236
(lp9237
(Vn't
p9238
g4
tp9239
a(Vgive
p9240
g7
tp9241
aasI972
(lp9242
sI973
(lp9243
sI974
(lp9244
sI975
(lp9245
sI976
(lp9246
(lp9247
(g50
g51
tp9248
a(Vsad
p9249
g11
tp9250
aa(lp9251
g9250
a(Vaffair
p9252
g14
tp9253
aa(lp9254
(Vvery
p9255
g4
tp9256
a(Vslow
p9257
g11
tp9258
aasI977
(lp9259
sI978
(lp9260
sI979
(lp9261
(lp9262
(Vnever
p9263
g4
tp9264
a(Vget
p9265
g7
tp9266
aasI980
(lp9267
sI981
(lp9268
(lp9269
(Valmost
p9270
g4
tp9271
a(Vexceptional
p9272
g11
tp9273
aa(lp9274
(Vnever
p9275
g4
tp9276
a(Vget
p9277
g7
tp9278
aa(lp9279
(Vthe
p9280
g51
tp9281
a(Vonly
p9282
g11
tp9283
aa(lp9284
g9283
a(Vgame
p9285
g14
tp9286
aa(lp9287
(VThe
p9288
g51
tp9289
a(Vonly
p9290
g11
tp9291
aa(lp9292
g9291
a(Vproblems
p9293
g47
tp9294
aa(lp9295
(Vn't
p9296
g4
tp9297
a(Vregister
p9298
g7
tp9299
aa(lp9300
(Vnot
p9301
g4
tp9302
a(Vregister
p9303
g7
tp9304
aasI982
(lp9305
(lp9306
(VEven
p9307
g4
tp9308
a(Vbetter
p9309
g535
tp9310
aasI983
(lp9311
(lp9312
(Vn't
p9313
g4
tp9314
a(Vrun
p9315
g7
tp9316
aasI984
(lp9317
(lp9318
(Valways
p9319
g4
tp9320
a(Vitspretty
p9321
g11
tp9322
aa(lp9323
g9322
a(Vbad
p9324
g11
tp9325
aasI985
(lp9326
sI986
(lp9327
sI987
(lp9328
sI988
(lp9329
(lp9330
(Vnever
p9331
g4
tp9332
a(Vget
p9333
g7
tp9334
aasI989
(lp9335
(lp9336
(Vreally
p9337
g4
tp9338
a(Vkool
p9339
g11
tp9340
aa(lp9341
g9340
a(Vgame
p9342
g14
tp9343
aa(lp9344
(Vcrash
p9345
g11
tp9346
a(g3962
g14
tp9347
aasI990
(lp9348
(lp9349
(Valmost
p9350
g4
tp9351
a(Vexceptional
p9352
g11
tp9353
aa(lp9354
(Vnever
p9355
g4
tp9356
a(Vget
p9357
g7
tp9358
aa(lp9359
(Vthe
p9360
g51
tp9361
a(Vonly
p9362
g11
tp9363
aa(lp9364
g9363
a(Vgame
p9365
g14
tp9366
aa(lp9367
(VThe
p9368
g51
tp9369
a(Vonly
p9370
g11
tp9371
aa(lp9372
g9371
a(Vproblems
p9373
g47
tp9374
aa(lp9375
(Vn't
p9376
g4
tp9377
a(Vregister
p9378
g7
tp9379
aa(lp9380
(Vnot
p9381
g4
tp9382
a(Vregister
p9383
g7
tp9384
aasI991
(lp9385
(lp9386
(VEven
p9387
g4
tp9388
a(Vbetter
p9389
g535
tp9390
aasI992
(lp9391
(lp9392
(Valways
p9393
g4
tp9394
a(Vitspretty
p9395
g11
tp9396
aa(lp9397
g9396
a(Vbad
p9398
g11
tp9399
aasI993
(lp9400
sI994
(lp9401
sI995
(lp9402
(lp9403
(Vso
p9404
g4
tp9405
a(Vhigh
p9406
g11
tp9407
aa(lp9408
(VSometimes
p9409
g4
tp9410
a(Vlet
p9411
g162
tp9412
aasI996
(lp9413
(lp9414
(Vthe
p9415
g51
tp9416
a(Vgreatest
p9417
g168
tp9418
aa(lp9419
g9418
a(Vgame
p9420
g14
tp9421
aa(lp9422
(Vever
p9423
g4
tp9424
a(Vplayed
p9425
g67
tp9426
aa(lp9427
(Vthe
p9428
g51
tp9429
a(Vfirst
p9430
g11
tp9431
aa(lp9432
g9431
a(Vweek
p9433
g14
tp9434
aa(lp9435
(Vkinda
p9436
g14
tp9437
a(Vslow
p9438
g11
tp9439
aa(lp9440
(g50
g51
tp9441
a(Vblast
p9442
g11
tp9443
aasI997
(lp9444
(lp9445
(VMOST
p9446
g208
tp9447
a(VENJOYABLE
p9448
g11
tp9449
aa(lp9450
(Van
p9451
g51
tp9452
a(Vold
p9453
g11
tp9454
aa(lp9455
g9454
a(Vbar
p9456
g14
tp9457
aa(lp9458
(g50
g51
tp9459
a(Vlong
p9460
g11
tp9461
aa(lp9462
g9461
a(Vline
p9463
g14
tp9464
aasI998
(lp9465
(lp9466
(Vmore
p9467
g1639
tp9468
a(Vincentive
p9469
g11
tp9470
aasI999
(lp9471
(lp9472
(Vthe
p9473
g51
tp9474
a(Vgreatest
p9475
g168
tp9476
aa(lp9477
g9476
a(Vgame
p9478
g14
tp9479
aa(lp9480
(Vever
p9481
g4
tp9482
a(Vplayed
p9483
g67
tp9484
aa(lp9485
(Vthe
p9486
g51
tp9487
a(Vfirst
p9488
g11
tp9489
aa(lp9490
g9489
a(Vweek
p9491
g14
tp9492
aa(lp9493
(Vkinda
p9494
g14
tp9495
a(Vslow
p9496
g11
tp9497
aa(lp9498
(g50
g51
tp9499
a(Vblast
p9500
g11
tp9501
aasI1000
(lp9502
(lp9503
(VMOST
p9504
g208
tp9505
a(VENJOYABLE
p9506
g11
tp9507
aa(lp9508
(Van
p9509
g51
tp9510
a(Vold
p9511
g11
tp9512
aa(lp9513
g9512
a(Vbar
p9514
g14
tp9515
aa(lp9516
(g50
g51
tp9517
a(Vlong
p9518
g11
tp9519
aa(lp9520
g9519
a(Vline
p9521
g14
tp9522
aasI1001
(lp9523
(lp9524
(Vmore
p9525
g1639
tp9526
a(Vincentive
p9527
g11
tp9528
aasI1002
(lp9529
(lp9530
(Vjust
p9531
g4
tp9532
a(Vput
p9533
g7
tp9534
aa(lp9535
(g50
g51
tp9536
a(Vnon-gamer
p9537
g11
tp9538
aa(lp9539
(Vthe
p9540
g51
tp9541
a(Vcontinuous
p9542
g11
tp9543
aasI1003
(lp9544
(lp9545
(Vtoo
p9546
g4
tp9547
a(Vfrustrating
p9548
g134
tp9549
aa(lp9550
(g50
g51
tp9551
a(Vfew
p9552
g11
tp9553
aa(lp9554
g9553
a(Vminutes
p9555
g47
tp9556
aa(lp9557
(g50
g51
tp9558
a(Vfew
p9559
g11
tp9560
aa(lp9561
g9560
a(Vhours
p9562
g47
tp9563
aasI1004
(lp9564
sI1005
(lp9565
(lp9566
(g50
g51
tp9567
a(Vstupid
p9568
g11
tp9569
aa(lp9570
g9569
a(Vcomplaint
p9571
g14
tp9572
aa(lp9573
(Vlittle
p9574
g11
tp9575
a(Vbit
p9576
g14
tp9577
aa(lp9578
(Vmore
p9579
g535
tp9580
a(Vstylish
p9581
g11
tp9582
aa(lp9583
(Vvery
p9584
g4
tp9585
a(Vgood
p9586
g11
tp9587
aa(lp9588
g9587
a(Vgame
p9589
g14
tp9590
aa(lp9591
(g50
g51
tp9592
a(Vtutorial
p9593
g11
tp9594
aasI1006
(lp9595
(lp9596
(Vvery
p9597
g4
tp9598
a(Vaddictive
p9599
g11
tp9600
aa(lp9601
(Vnew
p9602
g11
tp9603
a(Vtracks
p9604
g47
tp9605
aa(lp9606
(Vquick
p9607
g11
tp9608
a(Vcash
p9609
g14
tp9610
aasI1007
(lp9611
(lp9612
(Vn't
p9613
g4
tp9614
a(Vfreeze
p9615
g7
tp9616
aa(lp9617
(Vstill
p9618
g4
tp9619
a(Ventertaining
p9620
g134
tp9621
aa(lp9622
(VToo
p9623
g4
tp9624
a(Vmany
p9625
g11
tp9626
aa(lp9627
g9626
a(Vgames
p9628
g47
tp9629
aa(lp9630
(Vmany
p9631
g11
tp9632
a(Vbugs
p9633
g47
tp9634
aa(lp9635
(g50
g51
tp9636
a(Vcrash
p9637
g11
tp9638
aa(lp9639
(Vmore
p9640
g535
tp9641
a(Vvehicles
p9642
g47
tp9643
aasI1008
(lp9644
(lp9645
(Vthe
p9646
g51
tp9647
a(Vmusic
p9648
g11
tp9649
aasI1009
(lp9650
(lp9651
(Vvery
p9652
g4
tp9653
a(Vaddictive
p9654
g11
tp9655
aa(lp9656
(VThe
p9657
g51
tp9658
a(Vonly
p9659
g11
tp9660
aa(lp9661
g9660
a(Vthing
p9662
g14
tp9663
aa(lp9664
(Vthe
p9665
g51
tp9666
a(Vnew
p9667
g11
tp9668
aa(lp9669
g9668
a(Vmotorcycle
p9670
g14
tp9671
aasI1010
(lp9672
(lp9673
(VAddictive
p9674
g11
tp9675
a(Vfun
p9676
g14
tp9677
aa(lp9678
g9677
a(V..jump.flip.break
p9679
g11
tp9680
aa(lp9681
(Vthe
p9682
g51
tp9683
a(Vsame
p9684
g11
tp9685
aa(lp9686
g9685
a(Vlevel
p9687
g14
tp9688
aa(lp9689
(Vjust
p9690
g4
tp9691
a(Vtrying
p9692
g134
tp9693
aa(lp9694
(Vit..but
p9695
g11
tp9696
a(Vlooks
p9697
g47
tp9698
aasI1011
(lp9699
(lp9700
(Vvery
p9701
g4
tp9702
a(Vfun
p9703
g67
tp9704
aa(lp9705
(Vtechnical
p9706
g11
tp9707
a(Vdriving
p9708
g14
tp9709
aa(lp9710
(Voverly
p9711
g4
tp9712
a(Vdramatic
p9713
g11
tp9714
aasI1012
(lp9715
(lp9716
(Vcounter
p9717
g14
tp9718
a(Vproductive
p9719
g11
tp9720
aasI1013
(lp9721
(lp9722
(VReally
p9723
g4
tp9724
a(Vhelped
p9725
g162
tp9726
aasI1014
(lp9727
(lp9728
(Vpersonal
p9729
g11
tp9730
a(Vbest
p9731
g168
tp9732
aasI1015
(lp9733
(lp9734
(g50
g51
tp9735
a(Vgreat
p9736
g11
tp9737
aa(lp9738
g9737
a(Vway
p9739
g14
tp9740
aa(lp9741
(Vmore
p9742
g535
tp9743
a(Vthing
p9744
g14
tp9745
aa(lp9746
(Vpaint
p9747
g11
tp9748
a(Vjobs
p9749
g47
tp9750
aasI1016
(lp9751
(lp9752
(Vlite
p9753
g11
tp9754
a(Vblue
p9755
g11
tp9756
aa(lp9757
g9756
a(Vhard
p9758
g11
tp9759
aasI1017
(lp9760
(lp9761
(Vfirst
p9762
g4
tp9763
a(Vgot
p9764
g162
tp9765
aa(lp9766
(Vmonth
p9767
g14
tp9768
a(Vlater
p9769
g11
tp9770
aa(lp9771
g9770
a(Vwhick
p9772
g14
tp9773
aa(lp9774
(Vmore
p9775
g535
tp9776
a(Vmaps
p9777
g47
tp9778
aasI1018
(lp9779
(lp9780
(Vnot
p9781
g4
tp9782
a(Vtrying
p9783
g134
tp9784
aasI1019
(lp9785
(lp9786
(Veven
p9787
g4
tp9788
a(Vbetter
p9789
g535
tp9790
aa(lp9791
(Vmore
p9792
g535
tp9793
a(Vstages
p9794
g47
tp9795
aa(lp9796
(Vfree
p9797
g11
tp9798
a(Vthanks
p9799
g47
tp9800
aa(lp9801
(Vthe
p9802
g51
tp9803
a(Vbest
p9804
g168
tp9805
aasI1020
(lp9806
(lp9807
(Vwaster
p9808
g14
tp9809
a(Vcould.add
p9810
g11
tp9811
aa(lp9812
g9811
a(Vnas
p9813
g47
tp9814
aa(lp9815
g9814
a(Vother
p9816
g11
tp9817
aasI1021
(lp9818
(lp9819
(VExtremely
p9820
g4
tp9821
a(Vaddictive
p9822
g11
tp9823
aa(lp9824
g9823
a(Vgame
p9825
g14
tp9826
aa(lp9827
(Vother
p9828
g11
tp9829
a(Vposts
p9830
g47
tp9831
aa(lp9832
(g50
g51
tp9833
a(Vsimple
p9834
g11
tp9835
aa(lp9836
g9835
a(Vcolor
p9837
g14
tp9838
aa(lp9839
(Vdifferent
p9840
g11
tp9841
a(Vavatars
p9842
g47
tp9843
aa(lp9844
(Vhigh
p9845
g11
tp9846
a(Vscore
p9847
g14
tp9848
aa(lp9849
(Vn't
p9850
g4
tp9851
a(Vwait
p9852
g7
tp9853
aa(lp9854
(Vmore
p9855
g535
tp9856
a(Vgames
p9857
g47
tp9858
aa(lp9859
(Van
p9860
g51
tp9861
a(Vaddictive
p9862
g11
tp9863
aa(lp9864
g9863
a(Vgame
p9865
g14
tp9866
aa(lp9867
(Vvery
p9868
g4
tp9869
a(Vsimilar
p9870
g11
tp9871
aa(lp9872
(Vnot
p9873
g4
tp9874
a(Vbe
p9875
g7
tp9876
aa(lp9877
(Vmuch
p9878
g4
tp9879
a(Vdifferent
p9880
g11
tp9881
aa(lp9882
(g50
g51
tp9883
a(Vgreat
p9884
g11
tp9885
aa(lp9886
g9885
a(Vchallenge
p9887
g14
tp9888
aa(lp9889
(g50
g51
tp9890
a(Vglobal
p9891
g11
tp9892
aasI1022
(lp9893
(lp9894
(Vn't
p9895
g4
tp9896
a(Vstop
p9897
g7
tp9898
aa(lp9899
(Vown
p9900
g11
tp9901
a(Vcharacter
p9902
g14
tp9903
aa(lp9904
(Valso
p9905
g4
tp9906
a(Vbe
p9907
g7
tp9908
aa(lp9909
(Vn't
p9910
g4
tp9911
a(Vdowngrade
p9912
g7
tp9913
aa(lp9914
(Vfully
p9915
g4
tp9916
a(Vupgraded
p9917
g67
tp9918
aasI1023
(lp9919
(lp9920
(Vso
p9921
g4
tp9922
a(Vaddictive
p9923
g11
tp9924
aa(lp9925
(Vn't
p9926
g4
tp9927
a(Vstop
p9928
g7
tp9929
aa(lp9930
(Vperfectly
p9931
g4
tp9932
a(Vapplied
p9933
g67
tp9934
aa(lp9935
(VBest
p9936
g168
tp9937
a(Vgame
p9938
g14
tp9939
aasI1024
(lp9940
(lp9941
(Vaddictive
p9942
g11
tp9943
a(Vgame
p9944
g14
tp9945
aa(lp9946
(Vcage
p9947
g14
tp9948
a(Vavailable
p9949
g11
tp9950
aasI1025
(lp9951
(lp9952
(Vangry
p9953
g11
tp9954
a(Vbirds
p9955
g47
tp9956
aa(lp9957
(Vmuch
p9958
g4
tp9959
a(Vfun
p9960
g67
tp9961
aasI1026
(lp9962
(lp9963
(VNeeds
p9964
g47
tp9965
a(Vmore
p9966
g535
tp9967
aa(lp9968
g9967
a(Vcars
p9969
g47
tp9970
aa(lp9971
(Vso
p9972
g4
tp9973
a(Vplease
p9974
g7
tp9975
aa(lp9976
(Vso
p9977
g4
tp9978
a(Vplease
p9979
g7
tp9980
aasI1027
(lp9981
(lp9982
(VYep..at
p9983
g11
tp9984
a(Vleast
p9985
g14
tp9986
aa(lp9987
(Vrelatively
p9988
g4
tp9989
a(Veasy
p9990
g11
tp9991
aa(lp9992
g9991
a(V(
p9993
g14
tp9994
aa(lp9995
(Vtoo
p9996
g4
tp9997
a(Veasy
p9998
g11
tp9999
aa(lp10000
(Vhills/
p10001
g11
tp10002
a(Vrace
p10003
g14
tp10004
aa(lp10005
(Vcoins=power
p10006
g11
tp10007
a(Vups
p10008
g47
tp10009
aa(lp10010
(Vfast
p10011
g4
tp10012
a(g3960
g11
tp10013
aa(lp10014
g10013
a(Vflip
p10015
g14
tp10016
aa(lp10017
(Vthe
p10018
g51
tp10019
a(Vyrd-im
p10020
g11
tp10021
aasI1028
(lp10022
(lp10023
(Vthe
p10024
g51
tp10025
a(Vfirst
p10026
g11
tp10027
aa(lp10028
g10027
a(Vtime
p10029
g14
tp10030
aa(lp10031
(Vmore
p10032
g535
tp10033
a(Vvehicles
p10034
g47
tp10035
aa(lp10036
(g50
g51
tp10037
a(Vclassic
p10038
g11
tp10039
aa(lp10040
(Vprobably
p10041
g4
tp10042
a(Vlook
p10043
g7
tp10044
aasI1029
(lp10045
(lp10046
(Vbigger
p10047
g535
tp10048
a(Vfuel
p10049
g14
tp10050
aasI1030
(lp10051
(lp10052
(Vthe
p10053
g51
tp10054
a(Vbest
p10055
g168
tp10056
aa(lp10057
g10056
a(Vgame
p10058
g14
tp10059
aasI1031
(lp10060
(lp10061
(Vmuch
p10062
g4
tp10063
a(Vmore
p10064
g535
tp10065
aa(lp10066
(Vthe
p10067
g51
tp10068
a(Vlast
p10069
g11
tp10070
aa(lp10071
g10070
a(Vlevel
p10072
g14
tp10073
aasI1032
(lp10074
(lp10075
(VThe
p10076
g51
tp10077
a(Vonly
p10078
g11
tp10079
aa(lp10080
g10079
a(Vthing
p10081
g14
tp10082
aa(lp10083
(Valways
p10084
g4
tp10085
a(Vcrash
p10086
g11
tp10087
aasI1033
(lp10088
(lp10089
(Vnew
p10090
g11
tp10091
a(Vheights
p10092
g47
tp10093
aa(lp10094
(Vmore
p10095
g535
tp10096
a(Vways
p10097
g47
tp10098
aa(lp10099
(Vthis
p10100
g51
tp10101
a(Vpower-driven
p10102
g11
tp10103
aa(lp10104
g10103
a(Vphysics
p10105
g14
tp10106
aa(lp10107
(Vright
p10108
g4
tp10109
a(Valongside
p10110
g7
tp10111
aasI1034
(lp10112
(lp10113
(Vnothing
p10114
g14
tp10115
a(Vspecial
p10116
g11
tp10117
aa(lp10118
(Vnever
p10119
g4
tp10120
a(Vuninstall
p10121
g7
tp10122
aasI1035
(lp10123
(lp10124
(VRealy
p10125
g4
tp10126
a(Vloved
p10127
g162
tp10128
aa(lp10129
(Vreally
p10130
g4
tp10131
a(Vaddicted
p10132
g67
tp10133
aa(lp10134
(Vfree
p10135
g11
tp10136
a(Vgame
p10137
g14
tp10138
aasI1036
(lp10139
(lp10140
(Van
p10141
g51
tp10142
a(Vin-game
p10143
g11
tp10144
aa(lp10145
g10144
a(Vshop
p10146
g14
tp10147
aa(lp10148
(g50
g51
tp10149
a(Vlarge
p10150
g11
tp10151
aa(lp10152
g10151
a(Vfuel
p10153
g14
tp10154
aa(lp10155
(Vfully
p10156
g4
tp10157
a(Vdone
p10158
g67
tp10159
aa(lp10160
(Vmore
p10161
g1639
tp10162
a(Vfuel
p10163
g11
tp10164
aa(lp10165
g10164
a(Vspace
p10166
g14
tp10167
aasI1037
(lp10168
sI1038
(lp10169
(lp10170
(Vso
p10171
g4
tp10172
a(Vaddictive
p10173
g11
tp10174
aa(lp10175
(Vnew
p10176
g11
tp10177
a(Vstages
p10178
g47
tp10179
aa(lp10180
(Vn't
p10181
g4
tp10182
a(Vstop
p10183
g7
tp10184
aa(lp10185
(Vn't
p10186
g4
tp10187
a(Vsay
p10188
g7
tp10189
aa(lp10190
(Vanything
p10191
g14
tp10192
a(Vnegative
p10193
g11
tp10194
aasI1039
(lp10195
(lp10196
(Vmuch
p10197
g4
tp10198
a(Vtorque
p10199
g11
tp10200
aa(lp10201
(Vhills
p10202
g47
tp10203
a(Veasier
p10204
g535
tp10205
aa(lp10206
(g50
g51
tp10207
a(Vgood
p10208
g11
tp10209
aa(lp10210
g10209
a(Vgame
p10211
g14
tp10212
aa(lp10213
(Vn't
p10214
g4
tp10215
a(Vbullshit
p10216
g7
tp10217
aasI1040
(lp10218
(lp10219
(Vreally
p10220
g4
tp10221
a(Vfun
p10222
g67
tp10223
aa(lp10224
(Valways
p10225
g4
tp10226
a(Vflip
p10227
g7
tp10228
aasI1041
(lp10229
(lp10230
(Vn't
p10231
g4
tp10232
a(Vput
p10233
g7
tp10234
aa(lp10235
(Vvery
p10236
g4
tp10237
a(Vgood
p10238
g11
tp10239
aa(lp10240
g10239
a(Vgame
p10241
g14
tp10242
aasI1042
(lp10243
(lp10244
(Vfirst
p10245
g4
tp10246
a(Vdownloaded
p10247
g162
tp10248
aa(lp10249
(Vthe
p10250
g51
tp10251
a(Vsame
p10252
g11
tp10253
aa(lp10254
g10253
a(Vcontrols
p10255
g47
tp10256
aa(lp10257
(Vthe
p10258
g51
tp10259
a(Vfamous
p10260
g11
tp10261
aa(lp10262
g10261
a(Vmultiplayer
p10263
g14
tp10264
aa(lp10265
(Vthe
p10266
g51
tp10267
a(Veasy
p10268
g11
tp10269
aa(lp10270
g10269
a(Vpart
p10271
g14
tp10272
aa(lp10273
(Vactually
p10274
g4
tp10275
a(Vstarted
p10276
g162
tp10277
aa(lp10278
(Vquite
p10279
g4
tp10280
a(Vtough
p10281
g11
tp10282
aa(lp10283
(Vnot
p10284
g4
tp10285
a(Vappeal
p10286
g7
tp10287
aasI1043
(lp10288
(lp10289
(Vdifferent
p10290
g11
tp10291
a(Vvehicles
p10292
g47
tp10293
aasI1044
(lp10294
(lp10295
(Vreal
p10296
g11
tp10297
a(Vsmooth
p10298
g14
tp10299
aa(lp10300
(g2924
g51
tp10301
a(Vgreat
p10302
g11
tp10303
aa(lp10304
g10303
a(Vtime
p10305
g14
tp10306
aasI1045
(lp10307
(lp10308
(Vvery
p10309
g4
tp10310
a(Vaddicting
p10311
g134
tp10312
aasI1046
(lp10313
(lp10314
(Vmany
p10315
g11
tp10316
a(Vrewards
p10317
g47
tp10318
aasI1047
(lp10319
sI1048
(lp10320
(lp10321
(VNot
p10322
g4
tp10323
a(Vmany
p10324
g11
tp10325
aa(lp10326
(Vactually
p10327
g4
tp10328
a(Vplay
p10329
g7
tp10330
aa(lp10331
(Vnew
p10332
g11
tp10333
a(Vareas
p10334
g47
tp10335
aa(lp10336
(Valot
p10337
g14
tp10338
a(Vmore
p10339
g535
tp10340
aa(lp10341
(Vthe
p10342
g51
tp10343
a(Vlongest
p10344
g168
tp10345
aa(lp10346
g10345
a(Vgame
p10347
g14
tp10348
aa(lp10349
(Veven
p10350
g4
tp10351
a(Vhad
p10352
g162
tp10353
aa(lp10354
(Vother
p10355
g11
tp10356
a(Vgames
p10357
g47
tp10358
aa(lp10359
(VNOT
p10360
g4
tp10361
a(Vbe
p10362
g7
tp10363
aasI1049
(lp10364
(lp10365
(Vgood
p10366
g11
tp10367
a(Vtime-waster
p10368
g14
tp10369
aasI1050
(lp10370
(lp10371
(Vn't
p10372
g4
tp10373
a(Vhave
p10374
g7
tp10375
aa(lp10376
(Vcool
p10377
g11
tp10378
a(Vlevels
p10379
g47
tp10380
aa(lp10381
(Vmonster
p10382
g14
tp10383
a(Vtruck.Download
p10384
g11
tp10385
aa(lp10386
(Vn't
p10387
g4
tp10388
a(Vregret
p10389
g7
tp10390
aasI1051
(lp10391
(lp10392
(Vyet
p10393
g4
tp10394
a(Vchallenging
p10395
g134
tp10396
aa(lp10397
(g50
g51
tp10398
a(Vfew
p10399
g11
tp10400
aa(lp10401
g10400
a(Vthings
p10402
g47
tp10403
aa(lp10404
(Vown
p10405
g11
tp10406
a(Vrecord
p10407
g14
tp10408
aa(lp10409
(Vincrementally
p10410
g4
tp10411
a(Vmetered
p10412
g67
tp10413
aa(lp10414
(g50
g51
tp10415
a(Vfull
p10416
g11
tp10417
aa(lp10418
(Vcomplete
p10419
g11
tp10420
a(Vstop
p10421
g14
tp10422
aa(lp10423
(Vthe
p10424
g51
tp10425
a(Vnext
p10426
g11
tp10427
aa(lp10428
g10427
a(Vscreen
p10429
g14
tp10430
aasI1052
(lp10431
(lp10432
(Vthe
p10433
g51
tp10434
a(Vtop
p10435
g11
tp10436
aa(lp10437
g10436
a(Vcharts
p10438
g47
tp10439
aa(lp10440
(Vreally
p10441
g4
tp10442
a(Vcool
p10443
g11
tp10444
aa(lp10445
(Vwell
p10446
g4
tp10447
a(Vdeserved
p10448
g67
tp10449
aasI1053
(lp10450
(lp10451
(Vthe
p10452
g51
tp10453
a(Vsame
p10454
g11
tp10455
aa(lp10456
g10455
a(Vpoint
p10457
g14
tp10458
aasI1054
(lp10459
(lp10460
(Vjust
p10461
g4
tp10462
a(Vwish
p10463
g11
tp10464
aa(lp10465
(Vn't
p10466
g4
tp10467
a(Vend
p10468
g7
tp10469
aa(lp10470
(Vn't
p10471
g4
tp10472
a(Vtell
p10473
g7
tp10474
aa(lp10475
(Vmany
p10476
g11
tp10477
a(Vtimes
p10478
g47
tp10479
aasI1055
(lp10480
(lp10481
(Vle
p10482
g11
tp10483
a(Vguste
p10484
g14
tp10485
aasI1056
(lp10486
(lp10487
(Vreally
p10488
g4
tp10489
a(Vaddicting
p10490
g134
tp10491
aa(lp10492
(Vpretty
p10493
g4
tp10494
a(Vrealistic
p10495
g11
tp10496
aasI1057
(lp10497
sI1058
(lp10498
(lp10499
(Vn't
p10500
g4
tp10501
a(Vstop
p10502
g7
tp10503
aa(lp10504
(Vn't
p10505
g4
tp10506
a(Vregret
p10507
g7
tp10508
aasI1059
(lp10509
sI1060
(lp10510
(lp10511
(VThe
p10512
g51
tp10513
a(Vbest
p10514
g168
tp10515
aa(lp10516
(Vmost
p10517
g168
tp10518
a(Vaddictive
p10519
g11
tp10520
aa(lp10521
g10520
a(Vgame
p10522
g14
tp10523
aa(lp10524
(g50
g51
tp10525
a(Vlong
p10526
g11
tp10527
aa(lp10528
g10527
a(Vtime
p10529
g14
tp10530
aa(lp10531
(Vn't
p10532
g4
tp10533
a(Vwait
p10534
g7
tp10535
aa(lp10536
(VJust
p10537
g4
tp10538
a(Vwondering
p10539
g134
tp10540
aa(lp10541
(Vdifferent
p10542
g11
tp10543
a(Vbackground
p10544
g14
tp10545
aasI1061
(lp10546
sI1062
(lp10547
(lp10548
(g50
g51
tp10549
a(Vgreat
p10550
g11
tp10551
aa(lp10552
g10551
a(Vgame
p10553
g14
tp10554
aa(lp10555
(Vcant
p10556
g11
tp10557
a(Vstop
p10558
g14
tp10559
aasI1063
(lp10560
sI1064
(lp10561
(lp10562
(Vgreat
p10563
g11
tp10564
a(Vgame
p10565
g14
tp10566
aa(lp10567
(Vcave
p10568
g11
tp10569
a(Vlevels
p10570
g47
tp10571
aasI1065
(lp10572
sI1066
(lp10573
(lp10574
(Vnot
p10575
g4
tp10576
a(Vexcellent
p10577
g11
tp10578
aa(lp10579
(Vgood
p10580
g11
tp10581
a(Vall
p10582
g14
tp10583
aasI1067
(lp10584
(lp10585
(Vplay
p10586
g11
tp10587
a(Vfirst
p10588
g11
tp10589
aa(lp10590
g10589
a(Vversion
p10591
g14
tp10592
aa(lp10593
(VMore
p10594
g535
tp10595
a(Vstages
p10596
g47
tp10597
aa(lp10598
(Vmore
p10599
g535
tp10600
a(Vvehicles
p10601
g47
tp10602
aa(lp10603
(Vbad
p10604
g11
tp10605
a(Veng
p10606
g14
tp10607
aasI1068
(lp10608
(lp10609
(Vn't
p10610
g4
tp10611
a(Vget
p10612
g7
tp10613
aa(lp10614
(VIts
p10615
g47
tp10616
a(Vgreat
p10617
g11
tp10618
aasI1069
(lp10619
(lp10620
(Vbirds
p10621
g47
tp10622
a(Vanimal
p10623
g11
tp10624
aa(lp10625
g10624
a(Vefecs
p10626
g47
tp10627
aasI1070
(lp10628
(lp10629
(Vtoo
p10630
g4
tp10631
a(Vmuch
p10632
g11
tp10633
aa(lp10634
g10633
a(Vfun
p10635
g14
tp10636
aa(lp10637
(g2924
g51
tp10638
a(Vfew
p10639
g11
tp10640
aa(lp10641
(Vmore
p10642
g1639
tp10643
a(Vrealistic
p10644
g11
tp10645
aa(lp10646
g10645
a(Vsounds
p10647
g47
tp10648
aa(lp10649
(Vfully
p10650
g4
tp10651
a(Vmodified
p10652
g67
tp10653
aa(lp10654
(Vn't
p10655
g4
tp10656
a(Vsound
p10657
g7
tp10658
aasI1071
(lp10659
sI1072
(lp10660
(lp10661
(Vvery
p10662
g4
tp10663
a(Vannoying
p10664
g134
tp10665
aa(lp10666
(Vvery
p10667
g4
tp10668
a(Vangry
p10669
g11
tp10670
aa(lp10671
g10670
a(Vvhen
p10672
g47
tp10673
aasI1073
(lp10674
(lp10675
(VNeeds
p10676
g47
tp10677
a(Vnew
p10678
g11
tp10679
aa(lp10680
g10679
a(Vvehicles
p10681
g47
tp10682
aa(lp10683
(Vdirtbikes
p10684
g47
tp10685
a(Vgood
p10686
g11
tp10687
aasI1074
(lp10688
(lp10689
(Vthe
p10690
g51
tp10691
a(Vfastest
p10692
g168
tp10693
aa(lp10694
g10693
a(Vgame
p10695
g14
tp10696
aa(lp10697
(g50
g51
tp10698
a(Vlong
p10699
g11
tp10700
aa(lp10701
g10700
a(Vtime
p10702
g14
tp10703
aasI1075
(lp10704
(lp10705
(g50
g51
tp10706
a(Vgreat
p10707
g11
tp10708
aa(lp10709
g10708
a(Vgame
p10710
g14
tp10711
aa(lp10712
(g50
g51
tp10713
a(Vnew
p10714
g11
tp10715
aa(lp10716
g10715
a(Vcareer
p10717
g14
tp10718
aasI1076
(lp10719
(lp10720
(Vmore
p10721
g1639
tp10722
a(Vbetter
p10723
g535
tp10724
aa(lp10725
(Vmore
p10726
g535
tp10727
a(Vvehicles
p10728
g47
tp10729
aa(lp10730
(Vanyways
p10731
g47
tp10732
a(Vgood
p10733
g11
tp10734
aasI1077
(lp10735
(lp10736
(g50
g51
tp10737
a(Vgreat
p10738
g11
tp10739
aa(lp10740
g10739
a(Vgame
p10741
g14
tp10742
aa(lp10743
(VBest
p10744
g168
tp10745
a(Vgame
p10746
g14
tp10747
aa(lp10748
(Vever
p10749
g4
tp10750
a(Vplayed
p10751
g67
tp10752
aasI1078
(lp10753
(lp10754
(Vgreat
p10755
g11
tp10756
a(Vfun
p10757
g14
tp10758
aa(lp10759
(Vthe
p10760
g51
tp10761
a(Vsame
p10762
g11
tp10763
aa(lp10764
g10763
a(Vtime
p10765
g14
tp10766
aasI1079
(lp10767
sI1080
(lp10768
sI1081
(lp10769
(lp10770
(Vreally
p10771
g4
tp10772
a(Venjoyable
p10773
g11
tp10774
aa(lp10775
g10774
a(Vgame
p10776
g14
tp10777
aa(lp10778
(g50
g51
tp10779
a(Vfew
p10780
g11
tp10781
aa(lp10782
g10781
a(Vtimes
p10783
g47
tp10784
aasI1082
(lp10785
(lp10786
(Vyear
p10787
g14
tp10788
a(Vold
p10789
g11
tp10790
aa(lp10791
g10790
a(Vson
p10792
g14
tp10793
aa(lp10794
(g50
g51
tp10795
a(Vgood
p10796
g11
tp10797
aa(lp10798
g10797
a(Vgame
p10799
g14
tp10800
aasI1083
(lp10801
(lp10802
(Vmore
p10803
g535
tp10804
a(Vair
p10805
g11
tp10806
aa(lp10807
g10806
a(Vtime
p10808
g14
tp10809
aa(lp10810
(VN'T
p10811
g4
tp10812
a(Vlose
p10813
g7
tp10814
aa(lp10815
(Vnot
p10816
g4
tp10817
a(Vmoving
p10818
g134
tp10819
aa(lp10820
(Vjust
p10821
g4
tp10822
a(Vhaving
p10823
g134
tp10824
aasI1084
(lp10825
(lp10826
(Vgood
p10827
g11
tp10828
a(Vfun
p10829
g14
tp10830
aa(lp10831
(VHopefully
p10832
g4
tp10833
a(Vmore
p10834
g535
tp10835
aa(lp10836
g10835
a(Vvehicles/upgrades
p10837
g47
tp10838
aa(lp10839
(Voverall
p10840
g11
tp10841
a(Vgreat
p10842
g11
tp10843
aa(lp10844
g10843
a(Vgame
p10845
g14
tp10846
aasI1085
(lp10847
(lp10848
(Vnot
p10849
g4
tp10850
a(Vbusy
p10851
g11
tp10852
aa(lp10853
g10852
a(Vyea
p10854
g14
tp10855
aa(lp10856
(Vnot
p10857
g4
tp10858
a(Vbusy
p10859
g11
tp10860
aa(lp10861
(Veven
p10862
g4
tp10863
a(Vput
p10864
g67
tp10865
aasI1086
(lp10866
(lp10867
(Vdifficult
p10868
g11
tp10869
a(Venough
p10870
g11
tp10871
aa(lp10872
(Vwell
p10873
g4
tp10874
a(Vplaced
p10875
g67
tp10876
aa(lp10877
(Vn't
p10878
g4
tp10879
a(Vget
p10880
g7
tp10881
aa(lp10882
(g50
g51
tp10883
a(Vbig
p10884
g11
tp10885
aa(lp10886
g10885
a(Vplus
p10887
g14
tp10888
aa(lp10889
(Vactually
p10890
g4
tp10891
a(Vsit
p10892
g7
tp10893
aasI1087
(lp10894
sI1088
(lp10895
(lp10896
(Vmuch
p10897
g4
tp10898
a(Vfun
p10899
g67
tp10900
aa(lp10901
(Vn't
p10902
g4
tp10903
a(Vstop
p10904
g7
tp10905
aa(lp10906
(Vn't
p10907
g4
tp10908
a(Vtake
p10909
g7
tp10910
aa(lp10911
(Vmuch
p10912
g11
tp10913
a(Vspace
p10914
g14
tp10915
aasI1089
(lp10916
(lp10917
(Vstrategic
p10918
g11
tp10919
a(Vtimes
p10920
g47
tp10921
aasI1090
(lp10922
(lp10923
(Vlong
p10924
g4
tp10925
a(Vhad
p10926
g162
tp10927
aa(lp10928
(Vnumerous
p10929
g11
tp10930
a(Vhours
p10931
g47
tp10932
aa(lp10933
(Vreally
p10934
g4
tp10935
a(Vaddictive
p10936
g11
tp10937
aa(lp10938
(Vwell
p10939
g4
tp10940
a(Vdone
p10941
g67
tp10942
aasI1091
(lp10943
(lp10944
(Vthe
p10945
g51
tp10946
a(Vlast
p10947
g11
tp10948
aa(lp10949
g10948
a(Vweek
p10950
g14
tp10951
aa(lp10952
(Vvery
p10953
g4
tp10954
a(Vaddicting
p10955
g134
tp10956
aa(lp10957
(VNo
p10958
g51
tp10959
a(Vout-of-game
p10960
g11
tp10961
aa(lp10962
g10961
a(Vpurchases
p10963
g47
tp10964
aa(lp10965
(Vnot
p10966
g4
tp10967
a(Vimpossible
p10968
g11
tp10969
aa(lp10970
(Vincredibly
p10971
g4
tp10972
a(Veasy
p10973
g11
tp10974
aa(lp10975
g10974
a(Veither
p10976
g14
tp10977
aa(lp10978
(VThe
p10979
g51
tp10980
a(Vlast
p10981
g11
tp10982
aa(lp10983
g10982
a(Vthing
p10984
g14
tp10985
aa(lp10986
(Vvery
p10987
g4
tp10988
a(Vlight
p10989
g11
tp10990
aa(lp10991
(Vwheras
p10992
g47
tp10993
a(Vother
p10994
g11
tp10995
aa(lp10996
g10995
a(Vapps
p10997
g47
tp10998
aa(lp10999
(Vimpressive
p11000
g11
tp11001
a(Vgraphics
p11002
g47
tp11003
aasI1092
(lp11004
(lp11005
(Vgolden
p11006
g11
tp11007
a(Vrims
p11008
g47
tp11009
aasI1093
(lp11010
(lp11011
(Vthe
p11012
g51
tp11013
a(Vbest
p11014
g168
tp11015
aa(lp11016
g11015
a(Vgames
p11017
g47
tp11018
aa(lp11019
g11018
a(Vavailable
p11020
g11
tp11021
aa(lp11022
(Vmore
p11023
g535
tp11024
a(Vthings
p11025
g47
tp11026
aa(lp11027
(Vmore
p11028
g535
tp11029
a(Vtracks
p11030
g47
tp11031
aa(lp11032
(Vsome
p11033
g51
tp11034
a(Vunique
p11035
g11
tp11036
aa(lp11037
g11036
a(Vvehicles
p11038
g47
tp11039
aasI1094
(lp11040
sI1095
(lp11041
(lp11042
(Vmore
p11043
g535
tp11044
a(Vupdates
p11045
g47
tp11046
aa(lp11047
(Vmore
p11048
g535
tp11049
a(Vstuff
p11050
g14
tp11051
aasI1096
(lp11052
(lp11053
(Vn't
p11054
g4
tp11055
a(Vmake
p11056
g7
tp11057
aasI1097
(lp11058
(lp11059
(Vmore
p11060
g535
tp11061
a(Vcustomization
p11062
g14
tp11063
aa(lp11064
(VFully
p11065
g4
tp11066
a(Vupgraded
p11067
g162
tp11068
aa(lp11069
(VThen
p11070
g4
tp11071
a(Vunlocked
p11072
g162
tp11073
aa(lp11074
(VThen
p11075
g4
tp11076
a(Vgot
p11077
g162
tp11078
aasI1098
(lp11079
(lp11080
(Vreally
p11081
g4
tp11082
a(Vboring
p11083
g134
tp11084
aasI1099
(lp11085
(lp11086
(Vn't
p11087
g4
tp11088
a(Vexplored
p11089
g67
tp11090
aa(lp11091
(Vwell
p11092
g4
tp11093
a(Vdesigned
p11094
g67
tp11095
aa(lp11096
(Vreally
p11097
g4
tp11098
a(Vexcellent
p11099
g11
tp11100
aa(lp11101
g11100
a(Vfeel
p11102
g14
tp11103
aasI1100
(lp11104
(lp11105
(Vn't
p11106
g4
tp11107
a(Vstopped
p11108
g67
tp11109
aa(lp11110
(Vthe
p11111
g51
tp11112
a(Vsecond
p11113
g11
tp11114
aa(lp11115
g11114
a(Vmap
p11116
g14
tp11117
aasI1101
(lp11118
(lp11119
(Vvery
p11120
g4
tp11121
a(Vlong
p11122
g11
tp11123
aasI1102
(lp11124
(lp11125
(Vmore
p11126
g535
tp11127
a(Vupgrades
p11128
g47
tp11129
aasI1103
(lp11130
(lp11131
(Vn't
p11132
g4
tp11133
a(Vstop
p11134
g7
tp11135
aasI1104
(lp11136
(lp11137
(Vtotally
p11138
g4
tp11139
a(Vaddictive
p11140
g11
tp11141
aa(lp11142
(Vn't
p11143
g4
tp11144
a(Vwork
p11145
g7
tp11146
aasI1105
(lp11147
(lp11148
(g50
g51
tp11149
a(Vgreat
p11150
g11
tp11151
aa(lp11152
(Vjust
p11153
g4
tp11154
a(Vwent
p11155
g162
tp11156
aa(lp11157
(Vnot
p11158
g4
tp11159
a(Vopen
p11160
g7
tp11161
aasI1106
(lp11162
(lp11163
(Vmany
p11164
g11
tp11165
a(Vgames
p11166
g47
tp11167
aa(lp11168
(Vmore
p11169
g535
tp11170
a(Vcar
p11171
g14
tp11172
aasI1107
(lp11173
(lp11174
(g50
g51
tp11175
a(Vsocial
p11176
g11
tp11177
aa(lp11178
g11177
a(Vmisfit
p11179
g14
tp11180
aasI1108
(lp11181
(lp11182
(Vn't
p11183
g4
tp11184
a(Vwork
p11185
g7
tp11186
aa(lp11187
(Vnot
p11188
g4
tp11189
a(Vgood
p11190
g11
tp11191
aa(lp11192
g11191
a(Veither
p11193
g14
tp11194
aa(lp11195
(Vnot
p11196
g4
tp11197
a(Vtime
p11198
g7
tp11199
aa(lp11200
(Vmore
p11201
g535
tp11202
a(Vtracks
p11203
g47
tp11204
aa(lp11205
(VThe
p11206
g51
tp11207
a(Vonly
p11208
g11
tp11209
aa(lp11210
g11209
a(Vthing
p11211
g14
tp11212
aasI1109
(lp11213
(lp11214
(Vless
p11215
g535
tp11216
a(Vexpensive
p11217
g11
tp11218
aasI1110
(lp11219
sI1111
(lp11220
(lp11221
(Vpretty
p11222
g4
tp11223
a(Vcheap
p11224
g7
tp11225
aa(lp11226
(Vvery
p11227
g4
tp11228
a(Vfun
p11229
g67
tp11230
aasI1112
(lp11231
(lp11232
(Vcurrently
p11233
g4
tp11234
a(Vsaved
p11235
g67
tp11236
aa(lp11237
(Vnew
p11238
g11
tp11239
a(Vcars
p11240
g47
tp11241
aa(lp11242
(Vpossibly
p11243
g4
tp11244
a(Vadd
p11245
g11
tp11246
aa(lp11247
g11246
a(Vaddons
p11248
g47
tp11249
aa(lp11250
(Vbigger
p11251
g535
tp11252
a(Vwheels
p11253
g47
tp11254
aa(lp11255
(Vposaibly
p11256
g4
tp11257
a(Vadd
p11258
g11
tp11259
aa(lp11260
g11259
a(Vcountries
p11261
g47
tp11262
aa(lp11263
(Vmore
p11264
g535
tp11265
a(Vterrains
p11266
g47
tp11267
aasI1113
(lp11268
(lp11269
(Vjust
p11270
g4
tp11271
a(Ventertaining
p11272
g134
tp11273
aa(lp11274
(g50
g51
tp11275
a(Vgreat
p11276
g11
tp11277
aa(lp11278
g11277
a(Vway
p11279
g14
tp11280
aasI1114
(lp11281
(lp11282
(Vgreat
p11283
g11
tp11284
a(Vgame
p11285
g14
tp11286
aa(lp11287
(Veven
p11288
g4
tp11289
a(Vgot
p11290
g162
tp11291
aasI1115
(lp11292
(lp11293
(Vwell
p11294
g4
tp11295
a(Vdeveloped
p11296
g67
tp11297
aasI1116
(lp11298
sI1117
(lp11299
(lp11300
(Vever
p11301
g4
tp11302
a(Vseen
p11303
g67
tp11304
aasI1118
(lp11305
(lp11306
(Vmaybe
p11307
g4
tp11308
a(Vfifteen
p11309
g67
tp11310
aa(lp11311
(Vn't
p11312
g4
tp11313
a(Vanalog
p11314
g11
tp11315
aa(lp11316
(Vnot
p11317
g4
tp11318
a(Vfun
p11319
g7
tp11320
aa(lp11321
(g50
g51
tp11322
a(Vbetter
p11323
g535
tp11324
aa(lp11325
g11324
a(Vbalance
p11326
g14
tp11327
aa(lp11328
(Vnoticeable
p11329
g11
tp11330
a(Vdifferences
p11331
g47
tp11332
aa(lp11333
(g50
g51
tp11334
a(Vgreat
p11335
g11
tp11336
aa(lp11337
g11336
a(Vtime
p11338
g14
tp11339
aasI1119
(lp11340
sI1120
(lp11341
sI1121
(lp11342
sI1122
(lp11343
(lp11344
(Vn't
p11345
g4
tp11346
a(Vdownload
p11347
g7
tp11348
aa(lp11349
(VMost
p11350
g168
tp11351
a(Vgames
p11352
g47
tp11353
aasI1123
(lp11354
sI1124
(lp11355
(lp11356
(Vmaybe
p11357
g4
tp11358
a(Vadd
p11359
g11
tp11360
aasI1125
(lp11361
(lp11362
(Vmuch
p11363
g4
tp11364
a(Vtime
p11365
g7
tp11366
aasI1126
(lp11367
(lp11368
(Vnot
p11369
g4
tp11370
a(Vexplain
p11371
g7
tp11372
aasI1127
(lp11373
(lp11374
(Vn't
p11375
g4
tp11376
a(Vstop
p11377
g7
tp11378
aasI1128
(lp11379
(lp11380
(Vn't
p11381
g4
tp11382
a(Vput
p11383
g7
tp11384
aa(lp11385
(V.my
p11386
g11
tp11387
a(Vkids
p11388
g47
tp11389
aa(lp11390
(V.my
p11391
g11
tp11392
a(Vfriends
p11393
g47
tp11394
aa(lp11395
(V..my
p11396
g11
tp11397
a(Vdog
p11398
g14
tp11399
aa(lp11400
(Vn't
p11401
g4
tp11402
a(Vlove
p11403
g7
tp11404
aa(lp11405
(Vthe
p11406
g51
tp11407
a(Vnext
p11408
g11
tp11409
aa(lp11410
g11409
a(Vupdste
p11411
g14
tp11412
aasI1129
(lp11413
sI1130
(lp11414
(lp11415
(g50
g51
tp11416
a(Vsimple
p11417
g11
tp11418
aa(lp11419
(Vtricky
p11420
g11
tp11421
a(Vgame
p11422
g14
tp11423
aa(lp11424
(Vany
p11425
g51
tp11426
a(Vbetter
p11427
g535
tp11428
aasI1131
(lp11429
sI1132
(lp11430
(lp11431
(Vlittle
p11432
g11
tp11433
a(Vgame
p11434
g14
tp11435
aa(lp11436
(Vreal
p11437
g11
tp11438
a(Vmoney
p11439
g14
tp11440
aa(lp11441
(VHighly
p11442
g4
tp11443
a(Vrecommended
p11444
g162
tp11445
aasI1133
(lp11446
sI1134
(lp11447
(lp11448
(g50
g51
tp11449
a(Vsimple
p11450
g11
tp11451
aa(lp11452
g11451
a(Vconcept
p11453
g14
tp11454
aa(lp11455
(Vmore
p11456
g535
tp11457
a(Vvehicles
p11458
g47
tp11459
aa(lp11460
g11459
a(Vand/or
p11461
g11
tp11462
aa(lp11463
g11462
a(Vmaps
p11464
g47
tp11465
aasI1135
(lp11466
(lp11467
(Vthe
p11468
g51
tp11469
a(Veasiest
p11470
g168
tp11471
aa(lp11472
(Vthe
p11473
g51
tp11474
a(Vbest
p11475
g168
tp11476
aa(lp11477
g11476
a(Vdue
p11478
g11
tp11479
aa(lp11480
(Vreally
p11481
g4
tp11482
a(Vgood
p11483
g11
tp11484
aasI1136
(lp11485
(lp11486
(Vmore
p11487
g1639
tp11488
a(Vupgrade
p11489
g11
tp11490
aa(lp11491
(Vever
p11492
g4
tp11493
a(Vseen
p11494
g67
tp11495
aasI1137
(lp11496
(lp11497
(Vthe
p11498
g51
tp11499
a(Vslow
p11500
g11
tp11501
aa(lp11502
g11501
a(Vupdates
p11503
g47
tp11504
aa(lp11505
(Vstill
p11506
g4
tp11507
a(Vleft
p11508
g67
tp11509
aa(lp11510
(Vmore
p11511
g535
tp11512
a(Vupdates
p11513
g47
tp11514
aasI1138
(lp11515
(lp11516
(Vsuper
p11517
g535
tp11518
a(Vfun
p11519
g14
tp11520
aasI1139
(lp11521
(lp11522
(Vmore
p11523
g535
tp11524
a(Vupdates
p11525
g47
tp11526
aasI1140
(lp11527
(lp11528
(VConstantly
p11529
g4
tp11530
a(Vbeing
p11531
g134
tp11532
aa(lp11533
(VThe
p11534
g51
tp11535
a(Vbest
p11536
g168
tp11537
aa(lp11538
g11537
a(Vhill
p11539
g14
tp11540
aa(lp11541
(Vgame
p11542
g14
tp11543
a(Vavailable
p11544
g11
tp11545
aa(lp11546
(Vmost
p11547
g208
tp11548
a(Vinnovative
p11549
g11
tp11550
aa(lp11551
(Vthen
p11552
g4
tp11553
a(Vbrake
p11554
g7
tp11555
aa(lp11556
(Vthe
p11557
g51
tp11558
a(Vonly
p11559
g11
tp11560
aasI1141
(lp11561
(lp11562
(Vjust
p11563
g4
tp11564
a(Vhuge
p11565
g11
tp11566
aa(lp11567
g11566
a(Vjumps
p11568
g47
tp11569
aasI1142
(lp11570
(lp11571
(VIncredible
p11572
g11
tp11573
a(Vfun
p11574
g14
tp11575
aa(lp11576
(VThe
p11577
g51
tp11578
a(Vonly
p11579
g11
tp11580
aa(lp11581
g11580
a(Vproblem
p11582
g14
tp11583
aa(lp11584
(g50
g51
tp11585
a(Vmusic/SFX
p11586
g11
tp11587
aa(lp11588
g11587
a(Vtoggle
p11589
g14
tp11590
aasI1143
(lp11591
(lp11592
(Veasy
p11593
g11
tp11594
a(Vcoins
p11595
g47
tp11596
aa(lp11597
(Vtoo
p11598
g4
tp11599
a(Vexpensive
p11600
g11
tp11601
aa(lp11602
(Vthe
p11603
g51
tp11604
a(Vother
p11605
g11
tp11606
aa(lp11607
g11606
a(Vstages
p11608
g47
tp11609
aasI1144
(lp11610
(lp11611
(Vvery
p11612
g4
tp11613
a(Ventertaining
p11614
g134
tp11615
aa(lp11616
(Vonly
p11617
g4
tp11618
a(Vwish
p11619
g11
tp11620
aasI1145
(lp11621
(lp11622
(VThe
p11623
g51
tp11624
a(Vonly
p11625
g11
tp11626
aa(lp11627
g11626
a(Vthing
p11628
g14
tp11629
aa(lp11630
(Vcheaper
p11631
g535
tp11632
a(Vupgrades
p11633
g47
tp11634
aa(lp11635
g11634
a(Vother
p11636
g11
tp11637
aasI1146
(lp11638
(lp11639
(Vthe
p11640
g51
tp11641
a(Vother
p11642
g11
tp11643
aa(lp11644
g11643
a(Vcars
p11645
g47
tp11646
aa(lp11647
(Vthe
p11648
g51
tp11649
a(Vbest
p11650
g168
tp11651
aa(lp11652
g11651
a(Vplace
p11653
g14
tp11654
aa(lp11655
(Vchoosable
p11656
g11
tp11657
a(Vcolours
p11658
g47
tp11659
aa(lp11660
(Vcountry
p11661
g14
tp11662
a(Vhigh
p11663
g11
tp11664
aa(lp11665
g11664
a(Vscore
p11666
g14
tp11667
aasI1147
(lp11668
(lp11669
(VMore
p11670
g535
tp11671
a(Vlevels
p11672
g47
tp11673
aa(lp11674
(Vjust
p11675
g4
tp11676
a(Vtotal
p11677
g11
tp11678
aasI1148
(lp11679
(lp11680
(Vstill
p11681
g4
tp11682
a(Vaddicting
p11683
g134
tp11684
aa(lp11685
(Vhard
p11686
g11
tp11687
a(Vwork
p11688
g14
tp11689
aasI1149
(lp11690
(lp11691
(Vjust
p11692
g4
tp11693
a(Vplain
p11694
g11
tp11695
aa(lp11696
(Vsome
p11697
g51
tp11698
a(Vgreat
p11699
g11
tp11700
aa(lp11701
g11700
a(Ventertainment
p11702
g14
tp11703
aasI1150
(lp11704
sI1151
(lp11705
sI1152
(lp11706
(lp11707
(Vown
p11708
g11
tp11709
a(Vunique
p11710
g14
tp11711
aa(lp11712
(Vawsome
p11713
g14
tp11714
a(Vfree
p11715
g11
tp11716
aa(lp11717
g11716
a(Vgame
p11718
g14
tp11719
aasI1153
(lp11720
(lp11721
(VHighly
p11722
g4
tp11723
a(Vaddictive
p11724
g11
tp11725
aa(lp11726
(Vn't
p11727
g4
tp11728
a(Vput
p11729
g7
tp11730
aa(lp11731
(Vfunny
p11732
g11
tp11733
a(Vbouncing
p11734
g14
tp11735
aa(lp11736
(Vthe
p11737
g51
tp11738
a(Vnext
p11739
g11
tp11740
aa(lp11741
g11740
a(Vbreak
p11742
g14
tp11743
aasI1154
(lp11744
(lp11745
(Vquite
p11746
g4
tp11747
a(Vgood
p11748
g11
tp11749
aa(lp11750
(Vvery
p11751
g4
tp11752
a(Vannoyed
p11753
g67
tp11754
aasI1155
(lp11755
(lp11756
(VThe
p11757
g51
tp11758
a(Vonly
p11759
g11
tp11760
aa(lp11761
g11760
a(Vthing
p11762
g14
tp11763
aa(lp11764
(Vmore
p11765
g535
tp11766
a(Vpetrol
p11767
g14
tp11768
aa(lp11769
(Vmore
p11770
g535
tp11771
a(Vstuff
p11772
g14
tp11773
aasI1156
(lp11774
sI1157
(lp11775
(lp11776
(Vhighly
p11777
g4
tp11778
a(Vrecommended
p11779
g162
tp11780
aa(lp11781
(Vthe
p11782
g51
tp11783
a(Vbest
p11784
g168
tp11785
aa(lp11786
g11785
a(Vandroid
p11787
g14
tp11788
aasI1158
(lp11789
(lp11790
(Vvery
p11791
g4
tp11792
a(Vgood
p11793
g11
tp11794
aa(lp11795
(Vdown
p11796
g4
tp11797
a(Vgrading
p11798
g134
tp11799
aa(lp11800
(Velse
p11801
g4
tp11802
a(Vhaving
p11803
g134
tp11804
aasI1159
(lp11805
(lp11806
(g50
g51
tp11807
a(Vgreat
p11808
g11
tp11809
aa(lp11810
g11809
a(Vgame
p11811
g14
tp11812
aa(lp11813
(Vvery
p11814
g4
tp11815
a(Vaddictive
p11816
g11
tp11817
aa(lp11818
(Vdifferent
p11819
g11
tp11820
a(Vlevels
p11821
g47
tp11822
aa(lp11823
(Vthe
p11824
g51
tp11825
a(Vonly
p11826
g11
tp11827
aa(lp11828
g11827
a(Vthing
p11829
g14
tp11830
aasI1160
(lp11831
(lp11832
(Vrather
p11833
g4
tp11834
a(Vannoying
p11835
g134
tp11836
aa(lp11837
(Vpretty
p11838
g4
tp11839
a(Vaddictive
p11840
g11
tp11841
aa(lp11842
g11841
a(Vlittle
p11843
g11
tp11844
aa(lp11845
g11844
a(Vgame
p11846
g14
tp11847
aasI1161
(lp11848
(lp11849
(VThe
p11850
g51
tp11851
a(Vnew
p11852
g11
tp11853
aa(lp11854
g11853
a(Vmotorcycle
p11855
g14
tp11856
aa(lp11857
(Vtoo
p11858
g4
tp11859
a(Vlarge
p11860
g11
tp11861
aa(lp11862
(Valot
p11863
g14
tp11864
a(Vmore
p11865
g535
tp11866
aa(lp11867
(Vabsolutely
p11868
g4
tp11869
a(Vfantastic
p11870
g11
tp11871
aa(lp11872
g11871
a(Vgame
p11873
g14
tp11874
aasI1162
(lp11875
sI1163
(lp11876
(lp11877
(Vjust
p11878
g4
tp11879
a(Vcollecting
p11880
g134
tp11881
aa(lp11882
(V7mil
p11883
g11
tp11884
a(Vcoins
p11885
g47
tp11886
aasI1164
(lp11887
(lp11888
(VAbsolutely
p11889
g4
tp11890
a(Vloving
p11891
g134
tp11892
aasI1165
(lp11893
(lp11894
(Vmore
p11895
g1639
tp11896
a(Vexpensive
p11897
g11
tp11898
aa(lp11899
(Vthe
p11900
g51
tp11901
a(Veasier
p11902
g535
tp11903
aa(lp11904
(Vonly
p11905
g4
tp11906
a(Vrun
p11907
g7
tp11908
aasI1166
(lp11909
(lp11910
(Vnot
p11911
g4
tp11912
a(Vending
p11913
g134
tp11914
aa(lp11915
(Vminor
p11916
g11
tp11917
a(Vneck
p11918
g14
tp11919
aasI1167
(lp11920
(lp11921
(Vreally
p11922
g4
tp11923
a(Vfun
p11924
g67
tp11925
aa(lp11926
(g50
g51
tp11927
a(Vgood
p11928
g11
tp11929
aa(lp11930
g11929
a(Vtime
p11931
g14
tp11932
aa(lp11933
(g50
g51
tp11934
a(Vfew
p11935
g11
tp11936
aa(lp11937
(Vso
p11938
g4
tp11939
a(Vboring
p11940
g134
tp11941
aasI1168
(lp11942
sI1169
(lp11943
(lp11944
(Vgets
p11945
g47
tp11946
a(Vmore
p11947
g535
tp11948
aa(lp11949
(Vhigher
p11950
g535
tp11951
a(Vlevels
p11952
g47
tp11953
aa(lp11954
(Veasily
p11955
g4
tp11956
a(Vaddicted
p11957
g67
tp11958
aasI1170
(lp11959
sI1171
(lp11960
(lp11961
(Vthen
p11962
g4
tp11963
a(Vkind
p11964
g11
tp11965
aasI1172
(lp11966
(lp11967
(Vaccidentally
p11968
g4
tp11969
a(Vhit
p11970
g162
tp11971
aa(lp11972
(g50
g51
tp11973
a(Vbuyable
p11974
g11
tp11975
aa(lp11976
g11975
a(g9993
g14
tp11977
aasI1173
(lp11978
(lp11979
(VOtherwise
p11980
g4
tp11981
a(Vstable
p11982
g11
tp11983
aasI1174
(lp11984
(lp11985
(Vmore
p11986
g535
tp11987
a(Vupdates
p11988
g47
tp11989
aasI1175
(lp11990
(lp11991
(Vfavorite
p11992
g11
tp11993
a(Vgame
p11994
g14
tp11995
aa(lp11996
(Vthe
p11997
g51
tp11998
a(Vnew
p11999
g11
tp12000
aa(lp12001
g12000
a(Vdirt
p12002
g14
tp12003
aasI1176
(lp12004
(lp12005
(Vnew
p12006
g11
tp12007
a(Vgame
p12008
g14
tp12009
aa(lp12010
(g50
g51
tp12011
a(Vcertain
p12012
g11
tp12013
aa(lp12014
g12013
a(Vtime
p12015
g14
tp12016
aa(lp12017
(Vgame
p12018
g14
tp12019
a(Vmore
p12020
g535
tp12021
aa(lp12022
(VAlso
p12023
g4
tp12024
a(Vadd
p12025
g162
tp12026
aa(lp12027
(Vjust
p12028
g4
tp12029
a(Vred
p12030
g67
tp12031
aa(lp12032
(Vdefiantly
p12033
g4
tp12034
a(Vgive
p12035
g7
tp12036
aasI1177
(lp12037
(lp12038
(VThe
p12039
g51
tp12040
a(Vcurrent
p12041
g11
tp12042
aa(lp12043
g12042
a(Vrider
p12044
g14
tp12045
aasI1178
(lp12046
(lp12047
(g50
g51
tp12048
a(Vgreat
p12049
g11
tp12050
aa(lp12051
g12050
a(Vgame
p12052
g14
tp12053
aa(lp12054
(g50
g51
tp12055
a(Vfew
p12056
g11
tp12057
aa(lp12058
g12057
a(Videas
p12059
g47
tp12060
aa(lp12061
g12060
a(V-be
p12062
g11
tp12063
aa(lp12064
g12063
a(Vable
p12065
g11
tp12066
aasI1179
(lp12067
(lp12068
(Vgreat
p12069
g11
tp12070
a(Vfun
p12071
g14
tp12072
aa(lp12073
(g50
g51
tp12074
a(Vlong
p12075
g11
tp12076
aa(lp12077
g12076
a(Vtime
p12078
g14
tp12079
aa(lp12080
(Vfirst
p12081
g11
tp12082
a(Vlevels
p12083
g47
tp12084
aa(lp12085
(Vreally
p12086
g4
tp12087
a(Vgood
p12088
g11
tp12089
aa(lp12090
g12089
a(Vfun
p12091
g14
tp12092
aasI1180
(lp12093
(lp12094
(VPretty
p12095
g4
tp12096
a(Vswell
p12097
g162
tp12098
aa(lp12099
(Vfully
p12100
g4
tp12101
a(Vupgrade
p12102
g67
tp12103
aasI1181
(lp12104
(lp12105
(Vthe
p12106
g51
tp12107
a(Vother
p12108
g11
tp12109
aa(lp12110
g12109
a(Vcars
p12111
g47
tp12112
aasI1182
(lp12113
sI1183
(lp12114
(lp12115
(Vthe
p12116
g51
tp12117
a(Vbest
p12118
g168
tp12119
aa(lp12120
g12119
a(Vmobile
p12121
g11
tp12122
aa(lp12123
g12122
a(Vgames
p12124
g47
tp12125
aa(lp12126
(Vever
p12127
g4
tp12128
a(Vplayed
p12129
g67
tp12130
aa(lp12131
(Vnever
p12132
g4
tp12133
a(Vget
p12134
g7
tp12135
aasI1184
(lp12136
(lp12137
(Vsometimes
p12138
g4
tp12139
a(Vfrustrating
p12140
g134
tp12141
aasI1185
(lp12142
(lp12143
(Vlittle
p12144
g4
tp12145
a(Vfrustrating
p12146
g134
tp12147
aa(lp12148
(Vdefinitely
p12149
g4
tp12150
a(Vworth
p12151
g11
tp12152
aa(lp12153
(g50
g51
tp12154
a(Vblast
p12155
g11
tp12156
aasI1186
(lp12157
(lp12158
(Vmore
p12159
g535
tp12160
a(Vlevels
p12161
g47
tp12162
aa(lp12163
(g50
g51
tp12164
a(Vnew
p12165
g11
tp12166
aasI1187
(lp12167
(lp12168
(Vnew
p12169
g11
tp12170
a(Vcharacters
p12171
g47
tp12172
aasI1188
(lp12173
(lp12174
(Vthe
p12175
g51
tp12176
a(Vnext
p12177
g11
tp12178
aa(lp12179
g12178
a(Vdistance
p12180
g14
tp12181
aasI1189
(lp12182
(lp12183
(Vn't
p12184
g4
tp12185
a(Vuse
p12186
g7
tp12187
aasI1190
(lp12188
(lp12189
(g50
g51
tp12190
a(Vsimple
p12191
g11
tp12192
aa(lp12193
g12192
a(Vfun
p12194
g14
tp12195
aasI1191
(lp12196
(lp12197
(g50
g51
tp12198
a(Vgood
p12199
g11
tp12200
aa(lp12201
g12200
a(Vtime
p12202
g14
tp12203
aa(lp12204
(Vsuper
p12205
g14
tp12206
a(Veasy
p12207
g11
tp12208
aa(lp12209
(VThe
p12210
g51
tp12211
a(Vonly
p12212
g11
tp12213
aa(lp12214
g12213
a(Vthing
p12215
g14
tp12216
aa(lp12217
(Vn't
p12218
g4
tp12219
a(Vquite
p12220
g7
tp12221
aasI1192
(lp12222
sI1193
(lp12223
(lp12224
(Vhighly
p12225
g4
tp12226
a(Vaddictive
p12227
g11
tp12228
aa(lp12229
(g50
g51
tp12230
a(Vgreat
p12231
g11
tp12232
aa(lp12233
g12232
a(Vtime
p12234
g14
tp12235
aa(lp12236
(V22mil
p12237
g11
tp12238
a(Vcoins
p12239
g47
tp12240
aa(lp12241
(Vtoo
p12242
g4
tp12243
a(Vsee
p12244
g7
tp12245
aa(lp12246
(Vmore
p12247
g535
tp12248
a(Vupdates
p12249
g47
tp12250
aasI1194
(lp12251
(lp12252
(Vso
p12253
g4
tp12254
a(Vaddictive
p12255
g11
tp12256
aa(lp12257
(Vso
p12258
g4
tp12259
a(Vhard
p12260
g11
tp12261
aasI1195
(lp12262
(lp12263
(Vbest
p12264
g168
tp12265
a(Vthing
p12266
g14
tp12267
aasI1196
(lp12268
(lp12269
(Vmore
p12270
g1639
tp12271
a(Vadicting
p12272
g134
tp12273
aa(lp12274
(Vnow.well
p12275
g11
tp12276
a(Vdone
p12277
g14
tp12278
aasI1197
(lp12279
(lp12280
(Vmore
p12281
g535
tp12282
a(Vupgrades
p12283
g47
tp12284
aa(lp12285
(Vmore
p12286
g535
tp12287
a(Vvaried
p12288
g11
tp12289
aa(lp12290
g12289
a(Vversion
p12291
g14
tp12292
aa(lp12293
(Vthe
p12294
g51
tp12295
a(Vcurrent
p12296
g11
tp12297
aa(lp12298
g12297
a(Vupgrades
p12299
g47
tp12300
aasI1198
(lp12301
sI1199
(lp12302
(lp12303
(Vmore
p12304
g535
tp12305
a(Vupgrades
p12306
g47
tp12307
aa(lp12308
(Vmore
p12309
g535
tp12310
a(Vvaried
p12311
g11
tp12312
aa(lp12313
g12312
a(Vversion
p12314
g14
tp12315
aa(lp12316
(Vthe
p12317
g51
tp12318
a(Vcurrent
p12319
g11
tp12320
aa(lp12321
g12320
a(Vupgrades
p12322
g47
tp12323
aasI1200
(lp12324
(lp12325
(Vneck-crunching
p12326
g11
tp12327
a(Vfun
p12328
g14
tp12329
aa(lp12330
(Vn't
p12331
g4
tp12332
a(Vstop
p12333
g7
tp12334
aasI1201
(lp12335
(lp12336
(Van
p12337
g51
tp12338
a(Vaddictive
p12339
g11
tp12340
aa(lp12341
g12340
a(Vgame
p12342
g14
tp12343
aasI1202
(lp12344
(lp12345
(g50
g51
tp12346
a(Vsimple
p12347
g11
tp12348
aa(lp12349
g12348
a(Vfun
p12350
g14
tp12351
aasI1203
(lp12352
(lp12353
(g50
g51
tp12354
a(Vgood
p12355
g11
tp12356
aa(lp12357
g12356
a(Vtime
p12358
g14
tp12359
aa(lp12360
(Vsuper
p12361
g14
tp12362
a(Veasy
p12363
g11
tp12364
aa(lp12365
(VThe
p12366
g51
tp12367
a(Vonly
p12368
g11
tp12369
aa(lp12370
g12369
a(Vthing
p12371
g14
tp12372
aa(lp12373
(Vn't
p12374
g4
tp12375
a(Vquite
p12376
g7
tp12377
aasI1204
(lp12378
(lp12379
(Vdifferent
p12380
g11
tp12381
a(Vvehicals
p12382
g47
tp12383
aa(lp12384
(Vthe
p12385
g51
tp12386
a(Vbest
p12387
g168
tp12388
aa(lp12389
(Veach
p12390
g51
tp12391
a(Vvehical
p12392
g11
tp12393
aa(lp12394
(Vthe
p12395
g51
tp12396
a(Vbest
p12397
g168
tp12398
aa(lp12399
(Vthe
p12400
g51
tp12401
a(Vvehical
p12402
g11
tp12403
aa(lp12404
(Vthe
p12405
g51
tp12406
a(Vnext
p12407
g11
tp12408
aasI1205
(lp12409
(lp12410
(Vthe
p12411
g51
tp12412
a(Vbest
p12413
g168
tp12414
aa(lp12415
g12414
a(Vgames
p12416
g47
tp12417
aa(lp12418
(Vever
p12419
g4
tp12420
a(Vplayed
p12421
g67
tp12422
aa(lp12423
(Vnot
p12424
g4
tp12425
a(Vhave
p12426
g7
tp12427
aa(lp12428
(Voverly
p12429
g4
tp12430
a(Vannoying
p12431
g134
tp12432
aa(lp12433
(Vextremely
p12434
g4
tp12435
a(Vaddictive
p12436
g11
tp12437
aa(lp12438
(Vmuch
p12439
g4
tp12440
a(Vtime
p12441
g7
tp12442
aasI1206
(lp12443
(lp12444
(Vthe
p12445
g51
tp12446
a(Vbest
p12447
g168
tp12448
aa(lp12449
g12448
a(Vapp
p12450
g14
tp12451
aa(lp12452
(Vn't
p12453
g4
tp12454
a(Vput
p12455
g7
tp12456
aa(lp12457
(Vtotally
p12458
g4
tp12459
a(Vaddictive
p12460
g11
tp12461
aa(lp12462
(Vthe
p12463
g51
tp12464
a(Vsame
p12465
g11
tp12466
aa(lp12467
g12466
a(Vboring
p12468
g14
tp12469
aasI1207
(lp12470
(lp12471
(Vn't
p12472
g4
tp12473
a(Vuse
p12474
g7
tp12475
aasI1208
(lp12476
(lp12477
(Vconstructive
p12478
g11
tp12479
a(Vcriticism
p12480
g14
tp12481
aa(lp12482
(Vtutorial
p12483
g11
tp12484
a(Vintroduction
p12485
g14
tp12486
aa(lp12487
(Vown
p12488
g11
tp12489
a(Vthing
p12490
g14
tp12491
aasI1209
(lp12492
sI1210
(lp12493
sI1211
(lp12494
sI1212
(lp12495
sI1213
(lp12496
(lp12497
(Van
p12498
g51
tp12499
a(Vaddictive
p12500
g11
tp12501
aa(lp12502
g12501
a(Vgame
p12503
g14
tp12504
aasI1214
(lp12505
(lp12506
(Vother
p12507
g11
tp12508
a(Vcar
p12509
g14
tp12510
aa(lp12511
(Vsimple
p12512
g11
tp12513
a(Vfast
p12514
g14
tp12515
aa(lp12516
(Vyet
p12517
g4
tp12518
a(Vengrossing
p12519
g134
tp12520
aasI1215
(lp12521
(lp12522
(Vdifferent
p12523
g11
tp12524
a(Vvehicals
p12525
g47
tp12526
aa(lp12527
(Vthe
p12528
g51
tp12529
a(Vbest
p12530
g168
tp12531
aa(lp12532
(Veach
p12533
g51
tp12534
a(Vvehical
p12535
g11
tp12536
aa(lp12537
(Vthe
p12538
g51
tp12539
a(Vbest
p12540
g168
tp12541
aa(lp12542
(Vthe
p12543
g51
tp12544
a(Vvehical
p12545
g11
tp12546
aa(lp12547
(Vthe
p12548
g51
tp12549
a(Vnext
p12550
g11
tp12551
aasI1216
(lp12552
(lp12553
(Vthe
p12554
g51
tp12555
a(Vbest
p12556
g168
tp12557
aa(lp12558
g12557
a(Vgames
p12559
g47
tp12560
aa(lp12561
(Vever
p12562
g4
tp12563
a(Vplayed
p12564
g67
tp12565
aa(lp12566
(Vnot
p12567
g4
tp12568
a(Vhave
p12569
g7
tp12570
aa(lp12571
(Voverly
p12572
g4
tp12573
a(Vannoying
p12574
g134
tp12575
aa(lp12576
(Vextremely
p12577
g4
tp12578
a(Vaddictive
p12579
g11
tp12580
aa(lp12581
(Vmuch
p12582
g4
tp12583
a(Vtime
p12584
g7
tp12585
aasI1217
(lp12586
(lp12587
(Vreally
p12588
g4
tp12589
a(Vaddicting
p12590
g134
tp12591
aasI1218
(lp12592
(lp12593
(Vthe
p12594
g51
tp12595
a(Vbest
p12596
g168
tp12597
aa(lp12598
g12597
a(Vapp
p12599
g14
tp12600
aa(lp12601
(Vn't
p12602
g4
tp12603
a(Vput
p12604
g7
tp12605
aa(lp12606
(Vtotally
p12607
g4
tp12608
a(Vaddictive
p12609
g11
tp12610
aa(lp12611
(Vthe
p12612
g51
tp12613
a(Vsame
p12614
g11
tp12615
aa(lp12616
g12615
a(Vboring
p12617
g14
tp12618
aas.