(dp0
I0
(lp1
(dp2
S'ratio'
p3
F1.1143867924528301
sS'query_near_excellent'
p4
S''
p5
sS'log_ratio'
p6
F0.10830429170183963
sS'hits_near_poor'
p7
F63.0
sS'query_near_poor'
p8
g5
sS'phrase'
p9
(lp10
(Vclassic
p11
S'JJ'
p12
tp13
a(Vfun
p14
S'NN'
p15
tp16
asS'hits_near_excellent'
p17
F56.53333333333333
sa(dp18
g3
I1
sg4
g5
sg6
F0.0
sg7
I100
sg8
g5
sg9
(lp19
(Vinvalid
p20
g12
tp21
a(Vusername
p22
g15
tp23
asg17
I100
sa(dp24
g3
F0.7681940700808626
sg4
g5
sg6
F-0.26371288233878454
sg7
F31.666666666666668
sg8
g5
sg9
(lp25
(Vlikely
p26
g12
tp27
a(Vdue
p28
g12
tp29
asg17
F41.22222222222222
sa(dp30
g3
I1
sg4
g5
sg6
F0.0
sg7
I100
sg8
g5
sg9
(lp31
(Vnext
p32
g12
tp33
a(Vupdate
p34
g15
tp35
asg17
I100
sa(dp36
g3
F0.9990583555044947
sg4
g5
sg6
F-0.0009420881211968829
sg7
F47.1171875
sg8
g5
sg9
(lp37
(Vn't
p38
S'RB'
p39
tp40
a(Vseen
p41
S'VBN'
p42
tp43
asg17
F47.161596958174904
sa(dp44
g3
I1
sg4
g5
sg6
F0.0
sg7
I100
sg8
g5
sg9
(lp45
(Vprobably
p46
g39
tp47
a(Vcheck
p48
S'VB'
p49
tp50
asg17
I100
sasI1
(lp51
(dp52
g3
F0.7973921765295888
sg4
g5
sg6
F-0.22640865530750637
sg7
F45.0
sg8
g5
sg9
(lp53
(Vsimple
p54
g12
tp55
a(Vway
p56
g15
tp57
asg17
F56.43396226415094
sasI2
(lp58
(dp59
g3
F1.0741089967045736
sg4
g5
sg6
F0.07149147762679438
sg7
F48.19444444444444
sg8
g5
sg9
(lp60
(Vn't
p61
g39
tp62
a(Vsave
p63
g49
tp64
asg17
F44.86923076923077
sa(dp65
g3
F1.0077337191877913
sg4
g5
sg6
F0.007703967278374728
sg7
F48.28658536585366
sg8
g5
sg9
(lp66
(Vn't
p67
g39
tp68
a(Vhave
p69
g49
tp70
asg17
F47.91601635079896
sasI3
(lp71
(dp72
g3
F1.1143867924528301
sg4
g5
sg6
F0.10830429170183963
sg7
F63.0
sg8
g5
sg9
(lp73
(Vclassic
p74
g12
tp75
a(Vfun
p76
g15
tp77
asg17
F56.53333333333333
sa(dp78
g3
I1
sg4
g5
sg6
F0.0
sg7
I100
sg8
g5
sg9
(lp79
(Vinvalid
p80
g12
tp81
a(Vusername
p82
g15
tp83
asg17
I100
sa(dp84
g3
F0.7681940700808626
sg4
g5
sg6
F-0.26371288233878454
sg7
F31.666666666666668
sg8
g5
sg9
(lp85
(Vlikely
p86
g12
tp87
a(Vdue
p88
g12
tp89
asg17
F41.22222222222222
sa(dp90
g3
I1
sg4
g5
sg6
F0.0
sg7
I100
sg8
g5
sg9
(lp91
(Vnext
p92
g12
tp93
a(Vupdate
p94
g15
tp95
asg17
I100
sa(dp96
g3
F0.9990583555044947
sg4
g5
sg6
F-0.0009420881211968829
sg7
F47.1171875
sg8
g5
sg9
(lp97
(Vn't
p98
g39
tp99
a(Vseen
p100
g42
tp101
asg17
F47.161596958174904
sa(dp102
g3
I1
sg4
g5
sg6
F0.0
sg7
I100
sg8
g5
sg9
(lp103
(Vprobably
p104
g39
tp105
a(Vcheck
p106
g49
tp107
asg17
I100
sasI4
(lp108
(dp109
g3
F0.7973921765295888
sg4
g5
sg6
F-0.22640865530750637
sg7
F45.0
sg8
g5
sg9
(lp110
(Vsimple
p111
g12
tp112
a(Vway
p113
g15
tp114
asg17
F56.43396226415094
sasI5
(lp115
(dp116
g3
F1.0741089967045736
sg4
g5
sg6
F0.07149147762679438
sg7
F48.19444444444444
sg8
g5
sg9
(lp117
(Vn't
p118
g39
tp119
a(Vsave
p120
g49
tp121
asg17
F44.86923076923077
sa(dp122
g3
F1.0077337191877913
sg4
g5
sg6
F0.007703967278374728
sg7
F48.28658536585366
sg8
g5
sg9
(lp123
(Vn't
p124
g39
tp125
a(Vhave
p126
g49
tp127
asg17
F47.91601635079896
sasI6
(lp128
(dp129
g3
F1.0406504065040652
sg4
g5
sg6
F0.03984590854719978
sg7
F48.0
sg8
g5
sg9
(lp130
(Vtoo
p131
g39
tp132
a(Vdifficult
p133
g12
tp134
asg17
F46.125
sasI7
(lp135
(dp136
g3
F0.9181097780879338
sg4
g5
sg6
F-0.08543831153745589
sg7
F42.15018315018315
sg8
g5
sg9
(lp137
(Vso
p138
g39
tp139
a(Vbad
p140
g12
tp141
asg17
F45.90974212034384
sa(dp142
g3
F0.895167459279129
sg4
g5
sg6
F-0.11074447286949372
sg7
F33.798561151079134
sg8
g5
sg9
(lp143
(Vtoo
p144
g39
tp145
a(Vbad
p146
g12
tp147
asg17
F37.75669099756691
sasI8
(lp148
(dp149
g3
I1
sg4
g5
sg6
F0.0
sg7
I100
sg8
g5
sg9
(lp150
(Vserious
p151
g12
tp152
a(Vlag
p153
g15
tp154
asg17
I100
sasI9
(lp155
(dp156
g3
F1.0715185917599928
sg4
g5
sg6
F0.06907688693354821
sg7
F53.260504201680675
sg8
g5
sg9
(lp157
(Vn't
p158
g39
tp159
a(Vthink
p160
g49
tp161
asg17
F49.705627705627705
sa(dp162
g3
F1.5381974248927037
sg4
g5
sg6
F0.43061122753507475
sg7
F42.666666666666664
sg8
g5
sg9
(lp163
(Vjohn
p164
g12
tp165
a(Vc
p166
g15
tp167
asg17
F27.738095238095237
sa(dp168
g3
I1
sg4
g5
sg6
F0.0
sg7
I100
sg8
g5
sg9
(lp169
(Vreily
p170
g39
tp171
a(Vlent
p172
g12
tp173
asg17
I100
sa(dp174
g3
F1.6129032258064515
sg4
g5
sg6
F0.47803580094299974
sg7
I100
sg8
g5
sg9
(lp175
(Vgon
p176
g12
tp177
a(Vna
p178
g15
tp179
asg17
F62.0
sasI10
(lp180
(dp181
g3
I1
sg4
g5
sg6
F0.0
sg7
I100
sg8
g5
sg9
(lp182
(Vsweet
p183
g12
tp184
a(Vclimber
p185
g15
tp186
asg17
I100
sasI11
(lp187
(dp188
g3
I1
sg4
g5
sg6
F0.0
sg7
I100
sg8
g5
sg9
(lp189
(Vsuper
p190
g12
tp191
a(Vsmooth
p192
g15
tp193
asg17
I100
sa(dp194
g3
I1
sg4
g5
sg6
F0.0
sg7
I100
sg8
g5
sg9
(lp195
(V3rd
p196
g12
tp197
a(Vtime
p198
g15
tp199
asg17
I100
sa(dp200
g3
F0.8501594048884166
sg4
g5
sg6
F-0.16233141191745235
sg7
F32.0
sg8
g5
sg9
(lp201
(Vagain
p202
g39
tp203
a(Vlater
p204
g12
tp205
asg17
F37.64
sasI12
(lp206
(dp207
g3
F0.9471810089020771
sg4
g5
sg6
F-0.054265064776708054
sg7
F45.6
sg8
g5
sg9
(lp208
(Vn't
p209
g39
tp210
a(Vheard
p211
g42
tp212
asg17
F48.142857142857146
sasI13
(lp213
(dp214
g3
F1.04293260256563
sg4
g5
sg6
F0.04203655510584988
sg7
F48.095238095238095
sg8
g5
sg9
(lp215
(Vn't
p216
g39
tp217
a(Vworking
p218
S'VBG'
p219
tp220
asg17
F46.11538461538461
sa(dp221
g3
F0.9790223642392437
sg4
g5
sg6
F-0.021200792750090732
sg7
F50.08247422680412
sg8
g5
sg9
(lp222
(Vn't
p223
g39
tp224
a(Vwork
p225
g49
tp226
asg17
F51.15559772296015
sasI14
(lp227
(dp228
g3
I1
sg4
g5
sg6
F0.0
sg7
I100
sg8
g5
sg9
(lp229
(Vgladly
p230
g39
tp231
a(Vpay
p232
g49
tp233
asg17
I100
sa(dp234
g3
F1.1030972681398992
sg4
g5
sg6
F0.09812192146026123
sg7
F51.125
sg8
g5
sg9
(lp235
(Vlittle
p236
g12
tp237
a(Vboy
p238
g15
tp239
asg17
F46.346774193548384
sa(dp240
g3
F1.6129032258064515
sg4
g5
sg6
F0.47803580094299974
sg7
I100
sg8
g5
sg9
(lp241
(Vgon
p242
g12
tp243
a(Vna
p244
g15
tp245
asg17
F62.0
sasI15
(lp246
(dp247
g3
F0.9865515674693321
sg4
g5
sg6
F-0.013539681728709889
sg7
F51.7
sg8
g5
sg9
(lp248
(Veven
p249
g39
tp250
a(Vplay
p251
g49
tp252
asg17
F52.404761904761905
sasI16
(lp253
(dp254
g3
F0.9301782448718795
sg4
g5
sg6
F-0.07237905004692904
sg7
F46.44444444444444
sg8
g5
sg9
(lp255
(Vreally
p256
g39
tp257
a(Vfun
p258
g42
tp259
asg17
F49.93069306930693
sa(dp260
g3
F1.0988487137974456
sg4
g5
sg6
F0.09426300789064512
sg7
F53.583333333333336
sg8
g5
sg9
(lp261
(Vgreat
p262
g12
tp263
a(Vclassic
p264
g12
tp265
asg17
F48.76315789473684
sa(dp266
g3
F0.7789855072463767
sg4
g5
sg6
F-0.24976283758948734
sg7
F43.0
sg8
g5
sg9
(lp267
g265
a(Vfeel
p268
g15
tp269
asg17
F55.2
sa(dp270
g3
F14.285714285714286
sg4
g5
sg6
F2.659260036932778
sg7
I100
sg8
g5
sg9
(lp271
(Vcompletely
p272
g39
tp273
a(Vunplayable
p274
g12
tp275
asg17
F7.0
sa(dp276
g3
F1.3729048131631556
sg4
g5
sg6
F0.31692879675194047
sg7
F41.142857142857146
sg8
g5
sg9
(lp277
(Vfew
p278
g12
tp279
a(Vseconds
p280
S'NNS'
p281
tp282
asg17
F29.967741935483872
sasI17
(lp283
(dp284
g3
F1.012367894887175
sg4
g5
sg6
F0.012292037300554035
sg7
F52.9
sg8
g5
sg9
(lp285
(Vgreat
p286
g12
tp287
a(Vfirst
p288
g12
tp289
asg17
F52.25373134328358
sa(dp290
g3
F0.9086731820676773
sg4
g5
sg6
F-0.09576978513222943
sg7
F38.35664335664335
sg8
g5
sg9
(lp291
g289
a(Vtime
p292
g15
tp293
asg17
F42.21170395869191
sa(dp294
g3
F0.8110019646365423
sg4
g5
sg6
F-0.20948480238316972
sg7
F34.4
sg8
g5
sg9
(lp295
(Vso
p296
g39
tp297
a(Vexcited
p298
g42
tp299
asg17
F42.416666666666664
sa(dp300
g3
F1.037037037037037
sg4
g5
sg6
F0.03636764417087479
sg7
F56.0
sg8
g5
sg9
(lp301
(Vgame
p302
g15
tp303
a(Vimpossible
p304
g12
tp305
asg17
F54.0
sa(dp306
g3
F0.895167459279129
sg4
g5
sg6
F-0.11074447286949372
sg7
F33.798561151079134
sg8
g5
sg9
(lp307
(VToo
p308
g39
tp309
a(Vbad
p310
g12
tp311
asg17
F37.75669099756691
sa(dp312
g3
F0.9725506182905286
sg4
g5
sg6
F-0.027833155188001522
sg7
F42.1
sg8
g5
sg9
(lp313
(Vmuch
p314
g39
tp315
a(Vfun
p316
g42
tp317
asg17
F43.28823529411765
sasI18
(lp318
(dp319
g3
F1.0367506147714747
sg4
g5
sg6
F0.03609141312365666
sg7
F51.371428571428574
sg8
g5
sg9
(lp320
(Vn't
p321
g39
tp322
a(Vgo
p323
g49
tp324
asg17
F49.55042016806723
sa(dp325
g3
F0.9725506182905286
sg4
g5
sg6
F-0.027833155188001522
sg7
F42.1
sg8
g5
sg9
(lp326
(Vmuch
p327
g39
tp328
a(Vfun
p329
g42
tp330
asg17
F43.28823529411765
sasI19
(lp331
(dp332
g3
F2.0270270270270268
sg4
g5
sg6
F0.7065702008920859
sg7
I100
sg8
g5
sg9
(lp333
(VOther
p334
g12
tp335
a(Vgames
p336
g281
tp337
asg17
F49.333333333333336
sa(dp338
g3
F1.04293260256563
sg4
g5
sg6
F0.04203655510584988
sg7
F48.095238095238095
sg8
g5
sg9
(lp339
(Vnot
p340
g39
tp341
a(Vworking
p342
g219
tp343
asg17
F46.11538461538461
sa(dp344
g3
F0.9752131000448632
sg4
g5
sg6
F-0.02509926771737607
sg7
F46.25
sg8
g5
sg9
(lp345
(Vnot
p346
g39
tp347
a(Vhappening
p348
g219
tp349
asg17
F47.42553191489362
sasI20
(lp350
(dp351
g3
F1.006062365346023
sg4
g5
sg6
F0.006044063141745691
sg7
F44.51923076923077
sg8
g5
sg9
(lp352
(Vnot
p353
g39
tp354
a(Vworth
p355
g12
tp356
asg17
F44.25096525096525
sa(dp357
g3
F1.017876674870112
sg4
g5
sg6
F0.017718766261362737
sg7
F51.166666666666664
sg8
g5
sg9
(lp358
(Vnot
p359
g39
tp360
a(Vplay
p361
g49
tp362
asg17
F50.2680412371134
sasI21
(lp363
(dp364
g3
F1.185963003264418
sg4
g5
sg6
F0.17055510553957898
sg7
F51.9
sg8
g5
sg9
(lp365
(VPretty
p366
g39
tp367
a(Vfun
p368
g42
tp369
asg17
F43.76190476190476
sa(dp370
g3
F1.1096590909090909
sg4
g5
sg6
F0.10405284284448144
sg7
F65.1
sg8
g5
sg9
(lp371
(Vn't
p372
g39
tp373
a(Vwait
p374
g49
tp375
asg17
F58.666666666666664
sa(dp376
g3
F0.6649616368286445
sg4
g5
sg6
F-0.408025928969838
sg7
F40.0
sg8
g5
sg9
(lp377
(Vfirst
p378
g12
tp379
a(Vstarting
p380
g15
tp381
asg17
F60.15384615384615
sa(dp382
g3
F2.0270270270270268
sg4
g5
sg6
F0.7065702008920859
sg7
I100
sg8
g5
sg9
(lp383
(Vother
p384
g12
tp385
a(Vgames
p386
g281
tp387
asg17
F49.333333333333336
sa(dp388
g3
F0.8883301404853129
sg4
g5
sg6
F-0.11841182525715922
sg7
F44.875
sg8
g5
sg9
(lp389
(VAlways
p390
g39
tp391
a(Vgot
p392
S'VBD'
p393
tp394
asg17
F50.516129032258064
sasI22
(lp395
(dp396
g3
I1
sg4
g5
sg6
F0.0
sg7
I100
sg8
g5
sg9
(lp397
(Vunplayable
p398
g12
tp399
a(Vstate
p400
g15
tp401
asg17
I100
sa(dp402
g3
F0.8110995062666161
sg4
g5
sg6
F-0.20936453662675306
sg7
F41.875
sg8
g5
sg9
(lp403
(Vgreat
p404
g12
tp405
a(Vset
p406
g15
tp407
asg17
F51.627450980392155
sa(dp408
g3
I1
sg4
g5
sg6
F0.0
sg7
I100
sg8
g5
sg9
(lp409
(Vgames
p410
g281
tp411
a(Vworthy
p412
g12
tp413
asg17
I100
sasI23
(lp414
(dp415
g3
I1
sg4
g5
sg6
F0.0
sg7
I100
sg8
g5
sg9
(lp416
(Vdisable
p417
g12
tp418
a(Vwifi
p419
g15
tp420
asg17
I100
sa(dp421
g3
I1
sg4
g5
sg6
F0.0
sg7
I100
sg8
g5
sg9
(lp422
(VNasty
p423
g12
tp424
a(Vbug
p425
g15
tp426
asg17
I100
sasI24
(lp427
(dp428
g3
F1.103980373940309
sg4
g5
sg6
F0.09892217046890571
sg7
F40.28125
sg8
g5
sg9
(lp429
(Vlittle
p430
g12
tp431
a(Vgirl
p432
g15
tp433
asg17
F36.48728813559322
sasI25
(lp434
(dp435
g3
F1.1300479123887748
sg4
g5
sg6
F0.1222600321694285
sg7
F63.5
sg8
g5
sg9
(lp436
(Vgreat
p437
g12
tp438
a(Vgame
p439
g15
tp440
asg17
F56.19230769230769
sasI26
(lp441
(dp442
g3
F1.1868213065220548
sg4
g5
sg6
F0.1712785621905121
sg7
F37.904761904761905
sg8
g5
sg9
(lp443
(Vnext
p444
g12
tp445
a(Vday
p446
g15
tp447
asg17
F31.938053097345133
sa(dp448
g3
I1
sg4
g5
sg6
F0.0
sg7
I100
sg8
g5
sg9
(lp449
(Vreal
p450
g12
tp451
a(Vslower
p452
g15
tp453
asg17
I100
sasI27
(lp454
(dp455
g3
I1
sg4
g5
sg6
F0.0
sg7
I100
sg8
g5
sg9
(lp456
(Vclassic
p457
g12
tp458
a(Varcade
p459
g15
tp460
asg17
I100
sasI28
(lp461
sI29
(lp462
(dp463
g3
F1.099566599248772
sg4
g5
sg6
F0.09491610148272743
sg7
F56.8
sg8
g5
sg9
(lp464
(Vso
p465
g39
tp466
a(Vslow
p467
g12
tp468
asg17
F51.656716417910445
sa(dp469
g3
F0.8316498316498316
sg4
g5
sg6
F-0.18434380217472243
sg7
F44.90909090909091
sg8
g5
sg9
(lp470
(Veven
p471
g39
tp472
a(Vmove
p473
g49
tp474
asg17
F54.0
sasI30
(lp475
(dp476
g3
F0.7779095821800448
sg4
g5
sg6
F-0.25114497983519013
sg7
F37.833333333333336
sg8
g5
sg9
(lp477
(Vreally
p478
g39
tp479
a(Vslow
p480
g12
tp481
asg17
F48.63461538461539
sasI31
(lp482
(dp483
g3
I1
sg4
g5
sg6
F0.0
sg7
I100
sg8
g5
sg9
(lp484
(Vso
p485
g39
tp486
a(Vunresponsive
p487
g12
tp488
asg17
I100
sa(dp489
g3
F1.0888324873096447
sg4
g5
sg6
F0.08510600963008315
sg7
F71.5
sg8
g5
sg9
(lp490
(Vnew
p491
g12
tp492
a(Vphone
p493
g15
tp494
asg17
F65.66666666666667
sasI32
(lp495
(dp496
g3
F1.1154598825831703
sg4
g5
sg6
F0.10926677062489144
sg7
F55.714285714285715
sg8
g5
sg9
(lp497
(Vfirst
p498
g12
tp499
a(Vgame
p500
g15
tp501
asg17
F49.94736842105263
sa(dp502
g3
F1.0077337191877913
sg4
g5
sg6
F0.007703967278374728
sg7
F48.28658536585366
sg8
g5
sg9
(lp503
(Vn't
p504
g39
tp505
a(Vhave
p506
g49
tp507
asg17
F47.91601635079896
sa(dp508
g3
F0.891646871254922
sg4
g5
sg6
F-0.1146851090283434
sg7
F42.43939393939394
sg8
g5
sg9
(lp509
(Venough
p510
g12
tp511
a(Vtime
p512
g15
tp513
asg17
F47.596638655462186
sa(dp514
g3
F0.9339622641509434
sg4
g5
sg6
F-0.0683192439774772
sg7
F49.5
sg8
g5
sg9
(lp515
(Vwhole
p516
g12
tp517
a(Vgame
p518
g15
tp519
asg17
F53.0
sasI33
(lp520
sI34
(lp521
(dp522
g3
I1
sg4
g5
sg6
F0.0
sg7
I100
sg8
g5
sg9
(lp523
(Vextremely
p524
g39
tp525
a(Vlaggy
p526
g12
tp527
asg17
I100
sasI35
(lp528
(dp529
g3
F1.0513748900113644
sg4
g5
sg6
F0.050098726686371976
sg7
F49.902542372881356
sg8
g5
sg9
(lp530
(Vn't
p531
g39
tp532
a(Vbe
p533
g49
tp534
asg17
F47.464080459770116
sa(dp535
g3
I1
sg4
g5
sg6
F0.0
sg7
I100
sg8
g5
sg9
(lp536
(Vworst
p537
g12
tp538
a(V99cents
p539
g281
tp540
asg17
I100
sasI36
(lp541
(dp542
g3
F1.2983671887972548
sg4
g5
sg6
F0.261107466410073
sg7
F56.172413793103445
sg8
g5
sg9
(lp543
(Vreason
p544
g15
tp545
a(Vother
p546
g12
tp547
asg17
F43.263888888888886
sasI37
(lp548
(dp549
g3
F14.285714285714286
sg4
g5
sg6
F2.659260036932778
sg7
I100
sg8
g5
sg9
(lp550
(Vcompletely
p551
g39
tp552
a(Vunplayable
p553
g12
tp554
asg17
F7.0
sa(dp555
g3
I1
sg4
g5
sg6
F0.0
sg7
I100
sg8
g5
sg9
(lp556
(Vso
p557
g39
tp558
a(Vlaggy
p559
g12
tp560
asg17
I100
sa(dp561
g3
F0.9557994166031853
sg4
g5
sg6
F-0.045207203213673164
sg7
F46.70602409638554
sg8
g5
sg9
(lp562
(Veven
p563
g39
tp564
a(Vhave
p565
g49
tp566
asg17
F48.86592655849701
sasI38
(lp567
(dp568
g3
F1.1154598825831703
sg4
g5
sg6
F0.10926677062489144
sg7
F55.714285714285715
sg8
g5
sg9
(lp569
(Vfirst
p570
g12
tp571
a(Vgame
p572
g15
tp573
asg17
F49.94736842105263
sa(dp574
g3
I1
sg4
g5
sg6
F0.0
sg7
I100
sg8
g5
sg9
(lp575
(Vsweet
p576
g12
tp577
a(Vjumper
p578
g15
tp579
asg17
I100
sa(dp580
g3
F1.008698850280634
sg4
g5
sg6
F0.008661233274923867
sg7
F50.47826086956522
sg8
g5
sg9
(lp581
(Vn't
p582
g39
tp583
a(Vpossible
p584
g12
tp585
asg17
F50.04294478527607
sasI39
(lp586
(dp587
g3
F0.9243039688584244
sg4
g5
sg6
F-0.07871429081342456
sg7
F42.833333333333336
sg8
g5
sg9
(lp588
(Valone
p589
g39
tp590
a(Vwas
p591
g393
tp592
asg17
F46.34117647058824
sa(dp593
g3
I1
sg4
g5
sg6
F0.0
sg7
I100
sg8
g5
sg9
(lp594
(Vfew
p595
g12
tp596
a(Vhiccups
p597
g281
tp598
asg17
I100
sasI40
(lp599
sI41
(lp600
(dp601
g3
F3.002309468822171
sg4
g5
sg6
F1.0993818154471384
sg7
I100
sg8
g5
sg9
(lp602
(Vfamous
p603
g12
tp604
a(Vline
p605
g15
tp606
asg17
F33.30769230769231
sasI42
(lp607
(dp608
g3
F0.8489626556016597
sg4
g5
sg6
F-0.16374007997312892
sg7
F46.5
sg8
g5
sg9
(lp609
(Vjust
p610
g39
tp611
a(Vwrote
p612
g393
tp613
asg17
F54.77272727272727
sasI43
(lp614
(dp615
g3
F1.0894188849711048
sg4
g5
sg6
F0.08564442102106226
sg7
F46.1551724137931
sg8
g5
sg9
(lp616
(Vnever
p617
g39
tp618
a(Vget
p619
g49
tp620
asg17
F42.36678200692042
sa(dp621
g3
I1
sg4
g5
sg6
F0.0
sg7
I100
sg8
g5
sg9
(lp622
(Vpast
p623
g12
tp624
a(Vlevel
p625
g15
tp626
asg17
I100
sa(dp627
g3
F0.7546583850931677
sg4
g5
sg6
F-0.2814901022038598
sg7
F40.5
sg8
g5
sg9
(lp628
(Vreally
p629
g39
tp630
a(Vdisappointed
p631
g42
tp632
asg17
F53.666666666666664
sasI44
(lp633
(dp634
g3
F1.0802721088435374
sg4
g5
sg6
F0.07721296203429905
sg7
F37.80952380952381
sg8
g5
sg9
(lp635
(VReally
p636
g39
tp637
a(Vwanted
p638
g393
tp639
asg17
F35.0
sa(dp640
g3
I1
sg4
g5
sg6
F0.0
sg7
I100
sg8
g5
sg9
(lp641
(Vtotally
p642
g39
tp643
a(Vunresponsive
p644
g12
tp645
asg17
I100
sa(dp646
g3
F2.0270270270270268
sg4
g5
sg6
F0.7065702008920859
sg7
I100
sg8
g5
sg9
(lp647
(Vother
p648
g12
tp649
a(Vgames
p650
g281
tp651
asg17
F49.333333333333336
sasI45
(lp652
(dp653
g3
I1
sg4
g5
sg6
F0.0
sg7
I100
sg8
g5
sg9
(lp654
(Vgame
p655
g15
tp656
a(Vunplayable
p657
g12
tp658
asg17
I100
sa(dp659
g3
F1.103024355360804
sg4
g5
sg6
F0.0980558210437247
sg7
F54.51851851851852
sg8
g5
sg9
(lp660
(Vn't
p661
g39
tp662
a(Vrun
p663
g49
tp664
asg17
F49.4263959390863
sasI46
(lp665
(dp666
g3
I1
sg4
g5
sg6
F0.0
sg7
I100
sg8
g5
sg9
(lp667
(Vup-coming
p668
g12
tp669
a(Vupdates
p670
g281
tp671
asg17
I100
sa(dp672
g3
I1
sg4
g5
sg6
F0.0
sg7
I100
sg8
g5
sg9
(lp673
(Vfix-it
p674
g12
tp675
a(Vfelix
p676
g15
tp677
asg17
I100
sasI47
(lp678
(dp679
g3
F0.9383693045563548
sg4
g5
sg6
F-0.06361169258243478
sg7
F60.2
sg8
g5
sg9
(lp680
(Vonly
p681
g39
tp682
a(Vheld
p683
g42
tp684
asg17
F64.15384615384616
sasI48
(lp685
(dp686
g3
F1.4090909090909092
sg4
g5
sg6
F0.3429447511268304
sg7
F46.5
sg8
g5
sg9
(lp687
(Venough
p688
g39
tp689
a(Vcontent
p690
g12
tp691
asg17
F33.0
sa(dp692
g3
F0.9974237870330614
sg4
g5
sg6
F-0.0025795371139318048
sg7
F50.5
sg8
g5
sg9
(lp693
(Vpopular
p694
g12
tp695
a(Vmovie
p696
g15
tp697
asg17
F50.630434782608695
sa(dp698
g3
F0.9876156907333712
sg4
g5
sg6
F-0.012461633895957338
sg7
F47.72571428571428
sg8
g5
sg9
(lp699
(Vjust
p700
g39
tp701
a(Vmake
p702
g49
tp703
asg17
F48.324175824175825
sa(dp704
g3
F2.142857142857143
sg4
g5
sg6
F0.7621400520468967
sg7
F42.0
sg8
g5
sg9
(lp705
(Vquick
p706
g12
tp707
a(Vbuck
p708
g15
tp709
asg17
F19.6
sa(dp710
g3
F0.703867403314917
sg4
g5
sg6
F-0.3511652881277629
sg7
F18.2
sg8
g5
sg9
(lp711
(Vhonestly
p712
g39
tp713
a(Vexpected
p714
g42
tp715
asg17
F25.857142857142858
sa(dp716
g3
F0.8037135278514589
sg4
g5
sg6
F-0.21851238193864161
sg7
F33.666666666666664
sg8
g5
sg9
(lp717
(Vn't
p718
g39
tp719
a(Vfrighten
p720
g49
tp721
asg17
F41.888888888888886
sasI49
(lp722
(dp723
g3
F1.3085774058577404
sg4
g5
sg6
F0.26894059741550974
sg7
F69.5
sg8
g5
sg9
(lp724
(Vhilarious
p725
g12
tp726
a(Vfun
p727
g15
tp728
asg17
F53.111111111111114
sas.