(dp0
I0
(lp1
(dp2
S'ratio'
p3
F2.2673469387755101
sS'query_near_excellent'
p4
V"classic+fun" AROUND(10) "excellent"
p5
sS'log_ratio'
p6
F0.81861039853495765
sS'hits_near_poor'
p7
F1960.0
sS'query_near_poor'
p8
V"classic+fun" AROUND(10) "poor"
p9
sS'phrase'
p10
(lp11
(Vclassic
p12
S'JJ'
p13
tp14
a(Vfun
p15
S'NN'
p16
tp17
asS'hits_near_excellent'
p18
F7070.0
sa(dp19
g3
F0.0011092436974789917
sg4
V"invalid+username" AROUND(10) "excellent"
p20
sg6
F-6.8040768495072959
sg7
F1700.0
sg8
V"invalid+username" AROUND(10) "poor"
p21
sg10
(lp22
(Vinvalid
p23
g13
tp24
a(Vusername
p25
g16
tp26
asg18
F3.0
sa(dp27
g3
F0.090415200562983813
sg4
V"likely+due" AROUND(10) "excellent"
p28
sg6
F-2.4033428778986492
sg7
F203000.0
sg8
V"likely+due" AROUND(10) "poor"
p29
sg10
(lp30
(Vlikely
p31
g13
tp32
a(Vdue
p33
g13
tp34
asg18
F29200.0
sa(dp35
g3
F4.6402849228333993
sg4
V"next+update" AROUND(10) "excellent"
p36
sg6
F1.5347757701359661
sg7
F7220.0
sg8
V"next+update" AROUND(10) "poor"
p37
sg10
(lp38
(Vnext
p39
g13
tp40
a(Vupdate
p41
g16
tp42
asg18
F53300.0
sa(dp43
g3
F0.24140786749482401
sg4
V"not+seen" AROUND(10) "excellent"
p44
sg6
F-1.4212673797361808
sg7
F414000.0
sg8
V"not+seen" AROUND(10) "poor"
p45
sg10
(lp46
(Vn't
p47
S'RB'
p48
tp49
a(Vseen
p50
S'VBN'
p51
tp52
asg18
F159000.0
sa(dp53
g3
F0.70211118930330751
sg4
V"probably+check" AROUND(10) "excellent"
p54
sg6
F-0.3536634981776392
sg7
F8120.0
sg8
V"probably+check" AROUND(10) "poor"
p55
sg10
(lp56
(Vprobably
p57
g48
tp58
a(Vcheck
p59
S'VB'
p60
tp61
asg18
F9070.0
sasI1
(lp62
(dp63
g3
F1.0214285714285714
sg4
V"simple+way" AROUND(10) "excellent"
p64
sg6
F0.021202207650602906
sg7
F64000.0
sg8
V"simple+way" AROUND(10) "poor"
p65
sg10
(lp66
(Vsimple
p67
g13
tp68
a(Vway
p69
g16
tp70
asg18
F104000.0
sasI2
(lp71
(dp72
g3
F0.12637593984962406
sg4
V"not+save" AROUND(10) "excellent"
p73
sg6
F-2.0684941646790547
sg7
F28500.0
sg8
V"not+save" AROUND(10) "poor"
p74
sg10
(lp75
(Vn't
p76
g48
tp77
a(Vsave
p78
g60
tp79
asg18
F5730.0
sa(dp80
g3
F0.20719576719576718
sg4
V"not+have" AROUND(10) "excellent"
p81
sg6
F-1.5740911973973328
sg7
F16200000.0
sg8
V"not+have" AROUND(10) "poor"
p82
sg10
(lp83
(Vn't
p84
g48
tp85
a(Vhave
p86
g60
tp87
asg18
F5340000.0
sasI3
(lp88
(dp89
g3
F2.2673469387755101
sg4
V"classic+fun" AROUND(10) "excellent"
p90
sg6
F0.81861039853495765
sg7
F1960.0
sg8
V"classic+fun" AROUND(10) "poor"
p91
sg10
(lp92
(Vclassic
p93
g13
tp94
a(Vfun
p95
g16
tp96
asg18
F7070.0
sa(dp97
g3
F2.112e+17
sg4
V"invalid+username" AROUND(10) "excellent"
p98
sg6
F39.891581946742789
sg7
F0.0
sg8
V"invalid+username" AROUND(10) "poor"
p99
sg10
(lp100
(Vinvalid
p101
g13
tp102
a(Vusername
p103
g16
tp104
asg18
F3.0
sa(dp105
g3
F1.0
sg4
V"likely+due" AROUND(10) "excellent"
p106
sg6
F0.0
sg7
F0.0
sg8
V"likely+due" AROUND(10) "poor"
p107
sg10
(lp108
(Vlikely
p109
g13
tp110
a(Vdue
p111
g13
tp112
asg18
F0.0
sa(dp113
g3
F1.0
sg4
V"next+update" AROUND(10) "excellent"
p114
sg6
F0.0
sg7
F0.0
sg8
V"next+update" AROUND(10) "poor"
p115
sg10
(lp116
(Vnext
p117
g13
tp118
a(Vupdate
p119
g16
tp120
asg18
F0.0
sa(dp121
g3
F1.0
sg4
V"not+seen" AROUND(10) "excellent"
p122
sg6
F0.0
sg7
F0.0
sg8
V"not+seen" AROUND(10) "poor"
p123
sg10
(lp124
(Vn't
p125
g48
tp126
a(Vseen
p127
g51
tp128
asg18
F0.0
sa(dp129
g3
F1.0
sg4
V"probably+check" AROUND(10) "excellent"
p130
sg6
F0.0
sg7
F0.0
sg8
V"probably+check" AROUND(10) "poor"
p131
sg10
(lp132
(Vprobably
p133
g48
tp134
a(Vcheck
p135
g60
tp136
asg18
F0.0
sasI4
(lp137
(dp138
g3
F1.0
sg4
V"simple+way" AROUND(10) "excellent"
p139
sg6
F0.0
sg7
F0.0
sg8
V"simple+way" AROUND(10) "poor"
p140
sg10
(lp141
(Vsimple
p142
g13
tp143
a(Vway
p144
g16
tp145
asg18
F0.0
sasI5
(lp146
(dp147
g3
F1.0
sg4
V"not+save" AROUND(10) "excellent"
p148
sg6
F0.0
sg7
F0.0
sg8
V"not+save" AROUND(10) "poor"
p149
sg10
(lp150
(Vn't
p151
g48
tp152
a(Vsave
p153
g60
tp154
asg18
F0.0
sa(dp155
g3
F1.0
sg4
V"not+have" AROUND(10) "excellent"
p156
sg6
F0.0
sg7
F0.0
sg8
V"not+have" AROUND(10) "poor"
p157
sg10
(lp158
(Vn't
p159
g48
tp160
a(Vhave
p161
g60
tp162
asg18
F0.0
sasI6
(lp163
(dp164
g3
F1.0
sg4
V"too+difficult" AROUND(10) "excellent"
p165
sg6
F0.0
sg7
F0.0
sg8
V"too+difficult" AROUND(10) "poor"
p166
sg10
(lp167
(Vtoo
p168
g48
tp169
a(Vdifficult
p170
g13
tp171
asg18
F0.0
sasI7
(lp172
(dp173
g3
F1.0
sg4
V"so+bad" AROUND(10) "excellent"
p174
sg6
F0.0
sg7
F0.0
sg8
V"so+bad" AROUND(10) "poor"
p175
sg10
(lp176
(Vso
p177
g48
tp178
a(Vbad
p179
g13
tp180
asg18
F0.0
sa(dp181
g3
F1.0
sg4
V"too+bad" AROUND(10) "excellent"
p182
sg6
F0.0
sg7
F0.0
sg8
V"too+bad" AROUND(10) "poor"
p183
sg10
(lp184
(Vtoo
p185
g48
tp186
a(Vbad
p187
g13
tp188
asg18
F0.0
sasI8
(lp189
(dp190
g3
F1.0
sg4
V"serious+lag" AROUND(10) "excellent"
p191
sg6
F0.0
sg7
F0.0
sg8
V"serious+lag" AROUND(10) "poor"
p192
sg10
(lp193
(Vserious
p194
g13
tp195
a(Vlag
p196
g16
tp197
asg18
F0.0
sasI9
(lp198
(dp199
g3
F1.0
sg4
V"not+think" AROUND(10) "excellent"
p200
sg6
F0.0
sg7
F0.0
sg8
V"not+think" AROUND(10) "poor"
p201
sg10
(lp202
(Vn't
p203
g48
tp204
a(Vthink
p205
g60
tp206
asg18
F0.0
sa(dp207
g3
F1.0
sg4
V"john+c" AROUND(10) "excellent"
p208
sg6
F0.0
sg7
F0.0
sg8
V"john+c" AROUND(10) "poor"
p209
sg10
(lp210
(Vjohn
p211
g13
tp212
a(Vc
p213
g16
tp214
asg18
F0.0
sa(dp215
g3
F1.0
sg4
V"reily+lent" AROUND(10) "excellent"
p216
sg6
F0.0
sg7
F0.0
sg8
V"reily+lent" AROUND(10) "poor"
p217
sg10
(lp218
(Vreily
p219
g48
tp220
a(Vlent
p221
g13
tp222
asg18
F0.0
sa(dp223
g3
F1.0
sg4
V"gon+na" AROUND(10) "excellent"
p224
sg6
F0.0
sg7
F0.0
sg8
V"gon+na" AROUND(10) "poor"
p225
sg10
(lp226
(Vgon
p227
g13
tp228
a(Vna
p229
g16
tp230
asg18
F0.0
sasI10
(lp231
(dp232
g3
F1.0
sg4
V"sweet+climber" AROUND(10) "excellent"
p233
sg6
F0.0
sg7
F0.0
sg8
V"sweet+climber" AROUND(10) "poor"
p234
sg10
(lp235
(Vsweet
p236
g13
tp237
a(Vclimber
p238
g16
tp239
asg18
F0.0
sasI11
(lp240
(dp241
g3
F1.0
sg4
V"super+smooth" AROUND(10) "excellent"
p242
sg6
F0.0
sg7
F0.0
sg8
V"super+smooth" AROUND(10) "poor"
p243
sg10
(lp244
(Vsuper
p245
g13
tp246
a(Vsmooth
p247
g16
tp248
asg18
F0.0
sa(dp249
g3
F1.0
sg4
V"3rd+time" AROUND(10) "excellent"
p250
sg6
F0.0
sg7
F0.0
sg8
V"3rd+time" AROUND(10) "poor"
p251
sg10
(lp252
(V3rd
p253
g13
tp254
a(Vtime
p255
g16
tp256
asg18
F0.0
sa(dp257
g3
F1.0
sg4
V"again+later" AROUND(10) "excellent"
p258
sg6
F0.0
sg7
F0.0
sg8
V"again+later" AROUND(10) "poor"
p259
sg10
(lp260
(Vagain
p261
g48
tp262
a(Vlater
p263
g13
tp264
asg18
F0.0
sasI12
(lp265
(dp266
g3
F1.0
sg4
V"not+heard" AROUND(10) "excellent"
p267
sg6
F0.0
sg7
F0.0
sg8
V"not+heard" AROUND(10) "poor"
p268
sg10
(lp269
(Vn't
p270
g48
tp271
a(Vheard
p272
g51
tp273
asg18
F0.0
sasI13
(lp274
(dp275
g3
F1.0
sg4
V"not+working" AROUND(10) "excellent"
p276
sg6
F0.0
sg7
F0.0
sg8
V"not+working" AROUND(10) "poor"
p277
sg10
(lp278
(Vn't
p279
g48
tp280
a(Vworking
p281
S'VBG'
p282
tp283
asg18
F0.0
sa(dp284
g3
F1.0
sg4
V"not+work" AROUND(10) "excellent"
p285
sg6
F0.0
sg7
F0.0
sg8
V"not+work" AROUND(10) "poor"
p286
sg10
(lp287
(Vn't
p288
g48
tp289
a(Vwork
p290
g60
tp291
asg18
F0.0
sasI14
(lp292
(dp293
g3
F1.0
sg4
V"gladly+pay" AROUND(10) "excellent"
p294
sg6
F0.0
sg7
F0.0
sg8
V"gladly+pay" AROUND(10) "poor"
p295
sg10
(lp296
(Vgladly
p297
g48
tp298
a(Vpay
p299
g60
tp300
asg18
F0.0
sa(dp301
g3
F1.0
sg4
V"little+boy" AROUND(10) "excellent"
p302
sg6
F0.0
sg7
F0.0
sg8
V"little+boy" AROUND(10) "poor"
p303
sg10
(lp304
(Vlittle
p305
g13
tp306
a(Vboy
p307
g16
tp308
asg18
F0.0
sa(dp309
g3
F1.0
sg4
V"gon+na" AROUND(10) "excellent"
p310
sg6
F0.0
sg7
F0.0
sg8
V"gon+na" AROUND(10) "poor"
p311
sg10
(lp312
(Vgon
p313
g13
tp314
a(Vna
p315
g16
tp316
asg18
F0.0
sasI15
(lp317
(dp318
g3
F1.0
sg4
V"even+play" AROUND(10) "excellent"
p319
sg6
F0.0
sg7
F0.0
sg8
V"even+play" AROUND(10) "poor"
p320
sg10
(lp321
(Veven
p322
g48
tp323
a(Vplay
p324
g60
tp325
asg18
F0.0
sasI16
(lp326
(dp327
g3
F1.0
sg4
V"really+fun" AROUND(10) "excellent"
p328
sg6
F0.0
sg7
F0.0
sg8
V"really+fun" AROUND(10) "poor"
p329
sg10
(lp330
(Vreally
p331
g48
tp332
a(Vfun
p333
g51
tp334
asg18
F0.0
sa(dp335
g3
F1.0
sg4
V"great+classic" AROUND(10) "excellent"
p336
sg6
F0.0
sg7
F0.0
sg8
V"great+classic" AROUND(10) "poor"
p337
sg10
(lp338
(Vgreat
p339
g13
tp340
a(Vclassic
p341
g13
tp342
asg18
F0.0
sa(dp343
g3
F1.0
sg4
V"classic+feel" AROUND(10) "excellent"
p344
sg6
F0.0
sg7
F0.0
sg8
V"classic+feel" AROUND(10) "poor"
p345
sg10
(lp346
g342
a(Vfeel
p347
g16
tp348
asg18
F0.0
sa(dp349
g3
F1.0
sg4
V"completely+unplayable" AROUND(10) "excellent"
p350
sg6
F0.0
sg7
F0.0
sg8
V"completely+unplayable" AROUND(10) "poor"
p351
sg10
(lp352
(Vcompletely
p353
g48
tp354
a(Vunplayable
p355
g13
tp356
asg18
F0.0
sa(dp357
g3
F1.0
sg4
V"few+seconds" AROUND(10) "excellent"
p358
sg6
F0.0
sg7
F0.0
sg8
V"few+seconds" AROUND(10) "poor"
p359
sg10
(lp360
(Vfew
p361
g13
tp362
a(Vseconds
p363
S'NNS'
p364
tp365
asg18
F0.0
sasI17
(lp366
(dp367
g3
F1.0
sg4
V"great+first" AROUND(10) "excellent"
p368
sg6
F0.0
sg7
F0.0
sg8
V"great+first" AROUND(10) "poor"
p369
sg10
(lp370
(Vgreat
p371
g13
tp372
a(Vfirst
p373
g13
tp374
asg18
F0.0
sa(dp375
g3
F1.0
sg4
V"first+time" AROUND(10) "excellent"
p376
sg6
F0.0
sg7
F0.0
sg8
V"first+time" AROUND(10) "poor"
p377
sg10
(lp378
g374
a(Vtime
p379
g16
tp380
asg18
F0.0
sa(dp381
g3
F1.0
sg4
V"so+excited" AROUND(10) "excellent"
p382
sg6
F0.0
sg7
F0.0
sg8
V"so+excited" AROUND(10) "poor"
p383
sg10
(lp384
(Vso
p385
g48
tp386
a(Vexcited
p387
g51
tp388
asg18
F0.0
sa(dp389
g3
F1.0
sg4
V"game+impossible" AROUND(10) "excellent"
p390
sg6
F0.0
sg7
F0.0
sg8
V"game+impossible" AROUND(10) "poor"
p391
sg10
(lp392
(Vgame
p393
g16
tp394
a(Vimpossible
p395
g13
tp396
asg18
F0.0
sa(dp397
g3
F1.0
sg4
V"Too+bad" AROUND(10) "excellent"
p398
sg6
F0.0
sg7
F0.0
sg8
V"Too+bad" AROUND(10) "poor"
p399
sg10
(lp400
(VToo
p401
g48
tp402
a(Vbad
p403
g13
tp404
asg18
F0.0
sa(dp405
g3
F1.0
sg4
V"much+fun" AROUND(10) "excellent"
p406
sg6
F0.0
sg7
F0.0
sg8
V"much+fun" AROUND(10) "poor"
p407
sg10
(lp408
(Vmuch
p409
g48
tp410
a(Vfun
p411
g51
tp412
asg18
F0.0
sasI18
(lp413
(dp414
g3
F1.0
sg4
V"not+go" AROUND(10) "excellent"
p415
sg6
F0.0
sg7
F0.0
sg8
V"not+go" AROUND(10) "poor"
p416
sg10
(lp417
(Vn't
p418
g48
tp419
a(Vgo
p420
g60
tp421
asg18
F0.0
sa(dp422
g3
F1.0
sg4
V"much+fun" AROUND(10) "excellent"
p423
sg6
F0.0
sg7
F0.0
sg8
V"much+fun" AROUND(10) "poor"
p424
sg10
(lp425
(Vmuch
p426
g48
tp427
a(Vfun
p428
g51
tp429
asg18
F0.0
sasI19
(lp430
(dp431
g3
F1.0
sg4
V"Other+games" AROUND(10) "excellent"
p432
sg6
F0.0
sg7
F0.0
sg8
V"Other+games" AROUND(10) "poor"
p433
sg10
(lp434
(VOther
p435
g13
tp436
a(Vgames
p437
g364
tp438
asg18
F0.0
sa(dp439
g3
F1.0
sg4
V"not+working" AROUND(10) "excellent"
p440
sg6
F0.0
sg7
F0.0
sg8
V"not+working" AROUND(10) "poor"
p441
sg10
(lp442
(Vnot
p443
g48
tp444
a(Vworking
p445
g282
tp446
asg18
F0.0
sa(dp447
g3
F1.0
sg4
V"not+happening" AROUND(10) "excellent"
p448
sg6
F0.0
sg7
F0.0
sg8
V"not+happening" AROUND(10) "poor"
p449
sg10
(lp450
(Vnot
p451
g48
tp452
a(Vhappening
p453
g282
tp454
asg18
F0.0
sasI20
(lp455
(dp456
g3
F1.0
sg4
V"not+worth" AROUND(10) "excellent"
p457
sg6
F0.0
sg7
F0.0
sg8
V"not+worth" AROUND(10) "poor"
p458
sg10
(lp459
(Vnot
p460
g48
tp461
a(Vworth
p462
g13
tp463
asg18
F0.0
sa(dp464
g3
F1.0
sg4
V"not+play" AROUND(10) "excellent"
p465
sg6
F0.0
sg7
F0.0
sg8
V"not+play" AROUND(10) "poor"
p466
sg10
(lp467
(Vnot
p468
g48
tp469
a(Vplay
p470
g60
tp471
asg18
F0.0
sasI21
(lp472
(dp473
g3
F1.0
sg4
V"Pretty+fun" AROUND(10) "excellent"
p474
sg6
F0.0
sg7
F0.0
sg8
V"Pretty+fun" AROUND(10) "poor"
p475
sg10
(lp476
(VPretty
p477
g48
tp478
a(Vfun
p479
g51
tp480
asg18
F0.0
sa(dp481
g3
F1.0
sg4
V"not+wait" AROUND(10) "excellent"
p482
sg6
F0.0
sg7
F0.0
sg8
V"not+wait" AROUND(10) "poor"
p483
sg10
(lp484
(Vn't
p485
g48
tp486
a(Vwait
p487
g60
tp488
asg18
F0.0
sa(dp489
g3
F1.0
sg4
V"first+starting" AROUND(10) "excellent"
p490
sg6
F0.0
sg7
F0.0
sg8
V"first+starting" AROUND(10) "poor"
p491
sg10
(lp492
(Vfirst
p493
g13
tp494
a(Vstarting
p495
g16
tp496
asg18
F0.0
sa(dp497
g3
F1.0
sg4
V"other+games" AROUND(10) "excellent"
p498
sg6
F0.0
sg7
F0.0
sg8
V"other+games" AROUND(10) "poor"
p499
sg10
(lp500
(Vother
p501
g13
tp502
a(Vgames
p503
g364
tp504
asg18
F0.0
sa(dp505
g3
F1.0
sg4
V"Always+got" AROUND(10) "excellent"
p506
sg6
F0.0
sg7
F0.0
sg8
V"Always+got" AROUND(10) "poor"
p507
sg10
(lp508
(VAlways
p509
g48
tp510
a(Vgot
p511
S'VBD'
p512
tp513
asg18
F0.0
sasI22
(lp514
(dp515
g3
F1.0
sg4
V"unplayable+state" AROUND(10) "excellent"
p516
sg6
F0.0
sg7
F0.0
sg8
V"unplayable+state" AROUND(10) "poor"
p517
sg10
(lp518
(Vunplayable
p519
g13
tp520
a(Vstate
p521
g16
tp522
asg18
F0.0
sa(dp523
g3
F1.0
sg4
V"great+set" AROUND(10) "excellent"
p524
sg6
F0.0
sg7
F0.0
sg8
V"great+set" AROUND(10) "poor"
p525
sg10
(lp526
(Vgreat
p527
g13
tp528
a(Vset
p529
g16
tp530
asg18
F0.0
sa(dp531
g3
F1.0
sg4
V"games+worthy" AROUND(10) "excellent"
p532
sg6
F0.0
sg7
F0.0
sg8
V"games+worthy" AROUND(10) "poor"
p533
sg10
(lp534
(Vgames
p535
g364
tp536
a(Vworthy
p537
g13
tp538
asg18
F0.0
sasI23
(lp539
(dp540
g3
F1.0
sg4
V"disable+wifi" AROUND(10) "excellent"
p541
sg6
F0.0
sg7
F0.0
sg8
V"disable+wifi" AROUND(10) "poor"
p542
sg10
(lp543
(Vdisable
p544
g13
tp545
a(Vwifi
p546
g16
tp547
asg18
F0.0
sa(dp548
g3
F1.0
sg4
V"Nasty+bug" AROUND(10) "excellent"
p549
sg6
F0.0
sg7
F0.0
sg8
V"Nasty+bug" AROUND(10) "poor"
p550
sg10
(lp551
(VNasty
p552
g13
tp553
a(Vbug
p554
g16
tp555
asg18
F0.0
sasI24
(lp556
(dp557
g3
F1.0
sg4
V"little+girl" AROUND(10) "excellent"
p558
sg6
F0.0
sg7
F0.0
sg8
V"little+girl" AROUND(10) "poor"
p559
sg10
(lp560
(Vlittle
p561
g13
tp562
a(Vgirl
p563
g16
tp564
asg18
F0.0
sasI25
(lp565
(dp566
g3
F1.0
sg4
V"great+game" AROUND(10) "excellent"
p567
sg6
F0.0
sg7
F0.0
sg8
V"great+game" AROUND(10) "poor"
p568
sg10
(lp569
(Vgreat
p570
g13
tp571
a(Vgame
p572
g16
tp573
asg18
F0.0
sasI26
(lp574
(dp575
g3
F1.0
sg4
V"next+day" AROUND(10) "excellent"
p576
sg6
F0.0
sg7
F0.0
sg8
V"next+day" AROUND(10) "poor"
p577
sg10
(lp578
(Vnext
p579
g13
tp580
a(Vday
p581
g16
tp582
asg18
F0.0
sa(dp583
g3
F1.0
sg4
V"real+slower" AROUND(10) "excellent"
p584
sg6
F0.0
sg7
F0.0
sg8
V"real+slower" AROUND(10) "poor"
p585
sg10
(lp586
(Vreal
p587
g13
tp588
a(Vslower
p589
g16
tp590
asg18
F0.0
sasI27
(lp591
(dp592
g3
F1.0
sg4
V"classic+arcade" AROUND(10) "excellent"
p593
sg6
F0.0
sg7
F0.0
sg8
V"classic+arcade" AROUND(10) "poor"
p594
sg10
(lp595
(Vclassic
p596
g13
tp597
a(Varcade
p598
g16
tp599
asg18
F0.0
sasI28
(lp600
sI29
(lp601
(dp602
g3
F1.0
sg4
V"so+slow" AROUND(10) "excellent"
p603
sg6
F0.0
sg7
F0.0
sg8
V"so+slow" AROUND(10) "poor"
p604
sg10
(lp605
(Vso
p606
g48
tp607
a(Vslow
p608
g13
tp609
asg18
F0.0
sa(dp610
g3
F1.0
sg4
V"even+move" AROUND(10) "excellent"
p611
sg6
F0.0
sg7
F0.0
sg8
V"even+move" AROUND(10) "poor"
p612
sg10
(lp613
(Veven
p614
g48
tp615
a(Vmove
p616
g60
tp617
asg18
F0.0
sasI30
(lp618
(dp619
g3
F1.0
sg4
V"really+slow" AROUND(10) "excellent"
p620
sg6
F0.0
sg7
F0.0
sg8
V"really+slow" AROUND(10) "poor"
p621
sg10
(lp622
(Vreally
p623
g48
tp624
a(Vslow
p625
g13
tp626
asg18
F0.0
sasI31
(lp627
(dp628
g3
F1.0
sg4
V"so+unresponsive" AROUND(10) "excellent"
p629
sg6
F0.0
sg7
F0.0
sg8
V"so+unresponsive" AROUND(10) "poor"
p630
sg10
(lp631
(Vso
p632
g48
tp633
a(Vunresponsive
p634
g13
tp635
asg18
F0.0
sa(dp636
g3
F1.0
sg4
V"new+phone" AROUND(10) "excellent"
p637
sg6
F0.0
sg7
F0.0
sg8
V"new+phone" AROUND(10) "poor"
p638
sg10
(lp639
(Vnew
p640
g13
tp641
a(Vphone
p642
g16
tp643
asg18
F0.0
sasI32
(lp644
(dp645
g3
F1.0
sg4
V"first+game" AROUND(10) "excellent"
p646
sg6
F0.0
sg7
F0.0
sg8
V"first+game" AROUND(10) "poor"
p647
sg10
(lp648
(Vfirst
p649
g13
tp650
a(Vgame
p651
g16
tp652
asg18
F0.0
sa(dp653
g3
F1.0
sg4
V"not+have" AROUND(10) "excellent"
p654
sg6
F0.0
sg7
F0.0
sg8
V"not+have" AROUND(10) "poor"
p655
sg10
(lp656
(Vn't
p657
g48
tp658
a(Vhave
p659
g60
tp660
asg18
F0.0
sa(dp661
g3
F1.0
sg4
V"enough+time" AROUND(10) "excellent"
p662
sg6
F0.0
sg7
F0.0
sg8
V"enough+time" AROUND(10) "poor"
p663
sg10
(lp664
(Venough
p665
g13
tp666
a(Vtime
p667
g16
tp668
asg18
F0.0
sa(dp669
g3
F1.0
sg4
V"whole+game" AROUND(10) "excellent"
p670
sg6
F0.0
sg7
F0.0
sg8
V"whole+game" AROUND(10) "poor"
p671
sg10
(lp672
(Vwhole
p673
g13
tp674
a(Vgame
p675
g16
tp676
asg18
F0.0
sasI33
(lp677
sI34
(lp678
(dp679
g3
F1.0
sg4
V"extremely+laggy" AROUND(10) "excellent"
p680
sg6
F0.0
sg7
F0.0
sg8
V"extremely+laggy" AROUND(10) "poor"
p681
sg10
(lp682
(Vextremely
p683
g48
tp684
a(Vlaggy
p685
g13
tp686
asg18
F0.0
sasI35
(lp687
(dp688
g3
F1.0
sg4
V"not+be" AROUND(10) "excellent"
p689
sg6
F0.0
sg7
F0.0
sg8
V"not+be" AROUND(10) "poor"
p690
sg10
(lp691
(Vn't
p692
g48
tp693
a(Vbe
p694
g60
tp695
asg18
F0.0
sa(dp696
g3
F1.0
sg4
V"worst+99cents" AROUND(10) "excellent"
p697
sg6
F0.0
sg7
F0.0
sg8
V"worst+99cents" AROUND(10) "poor"
p698
sg10
(lp699
(Vworst
p700
g13
tp701
a(V99cents
p702
g364
tp703
asg18
F0.0
sasI36
(lp704
(dp705
g3
F1.0
sg4
V"reason+other" AROUND(10) "excellent"
p706
sg6
F0.0
sg7
F0.0
sg8
V"reason+other" AROUND(10) "poor"
p707
sg10
(lp708
(Vreason
p709
g16
tp710
a(Vother
p711
g13
tp712
asg18
F0.0
sasI37
(lp713
(dp714
g3
F1.0
sg4
V"completely+unplayable" AROUND(10) "excellent"
p715
sg6
F0.0
sg7
F0.0
sg8
V"completely+unplayable" AROUND(10) "poor"
p716
sg10
(lp717
(Vcompletely
p718
g48
tp719
a(Vunplayable
p720
g13
tp721
asg18
F0.0
sa(dp722
g3
F1.0
sg4
V"so+laggy" AROUND(10) "excellent"
p723
sg6
F0.0
sg7
F0.0
sg8
V"so+laggy" AROUND(10) "poor"
p724
sg10
(lp725
(Vso
p726
g48
tp727
a(Vlaggy
p728
g13
tp729
asg18
F0.0
sa(dp730
g3
F1.0
sg4
V"even+have" AROUND(10) "excellent"
p731
sg6
F0.0
sg7
F0.0
sg8
V"even+have" AROUND(10) "poor"
p732
sg10
(lp733
(Veven
p734
g48
tp735
a(Vhave
p736
g60
tp737
asg18
F0.0
sasI38
(lp738
(dp739
g3
F1.0
sg4
V"first+game" AROUND(10) "excellent"
p740
sg6
F0.0
sg7
F0.0
sg8
V"first+game" AROUND(10) "poor"
p741
sg10
(lp742
(Vfirst
p743
g13
tp744
a(Vgame
p745
g16
tp746
asg18
F0.0
sa(dp747
g3
F1.0
sg4
V"sweet+jumper" AROUND(10) "excellent"
p748
sg6
F0.0
sg7
F0.0
sg8
V"sweet+jumper" AROUND(10) "poor"
p749
sg10
(lp750
(Vsweet
p751
g13
tp752
a(Vjumper
p753
g16
tp754
asg18
F0.0
sa(dp755
g3
F1.0
sg4
V"not+possible" AROUND(10) "excellent"
p756
sg6
F0.0
sg7
F0.0
sg8
V"not+possible" AROUND(10) "poor"
p757
sg10
(lp758
(Vn't
p759
g48
tp760
a(Vpossible
p761
g13
tp762
asg18
F0.0
sasI39
(lp763
(dp764
g3
F1.0
sg4
V"alone+was" AROUND(10) "excellent"
p765
sg6
F0.0
sg7
F0.0
sg8
V"alone+was" AROUND(10) "poor"
p766
sg10
(lp767
(Valone
p768
g48
tp769
a(Vwas
p770
g512
tp771
asg18
F0.0
sa(dp772
g3
F1.0
sg4
V"few+hiccups" AROUND(10) "excellent"
p773
sg6
F0.0
sg7
F0.0
sg8
V"few+hiccups" AROUND(10) "poor"
p774
sg10
(lp775
(Vfew
p776
g13
tp777
a(Vhiccups
p778
g364
tp779
asg18
F0.0
sasI40
(lp780
sI41
(lp781
(dp782
g3
F1.0
sg4
V"famous+line" AROUND(10) "excellent"
p783
sg6
F0.0
sg7
F0.0
sg8
V"famous+line" AROUND(10) "poor"
p784
sg10
(lp785
(Vfamous
p786
g13
tp787
a(Vline
p788
g16
tp789
asg18
F0.0
sasI42
(lp790
(dp791
g3
F1.0
sg4
V"just+wrote" AROUND(10) "excellent"
p792
sg6
F0.0
sg7
F0.0
sg8
V"just+wrote" AROUND(10) "poor"
p793
sg10
(lp794
(Vjust
p795
g48
tp796
a(Vwrote
p797
g512
tp798
asg18
F0.0
sasI43
(lp799
(dp800
g3
F1.0
sg4
V"never+get" AROUND(10) "excellent"
p801
sg6
F0.0
sg7
F0.0
sg8
V"never+get" AROUND(10) "poor"
p802
sg10
(lp803
(Vnever
p804
g48
tp805
a(Vget
p806
g60
tp807
asg18
F0.0
sa(dp808
g3
F1.0
sg4
V"past+level" AROUND(10) "excellent"
p809
sg6
F0.0
sg7
F0.0
sg8
V"past+level" AROUND(10) "poor"
p810
sg10
(lp811
(Vpast
p812
g13
tp813
a(Vlevel
p814
g16
tp815
asg18
F0.0
sa(dp816
g3
F1.0
sg4
V"really+disappointed" AROUND(10) "excellent"
p817
sg6
F0.0
sg7
F0.0
sg8
V"really+disappointed" AROUND(10) "poor"
p818
sg10
(lp819
(Vreally
p820
g48
tp821
a(Vdisappointed
p822
g51
tp823
asg18
F0.0
sasI44
(lp824
(dp825
g3
F1.0
sg4
V"Really+wanted" AROUND(10) "excellent"
p826
sg6
F0.0
sg7
F0.0
sg8
V"Really+wanted" AROUND(10) "poor"
p827
sg10
(lp828
(VReally
p829
g48
tp830
a(Vwanted
p831
g512
tp832
asg18
F0.0
sa(dp833
g3
F1.0
sg4
V"totally+unresponsive" AROUND(10) "excellent"
p834
sg6
F0.0
sg7
F0.0
sg8
V"totally+unresponsive" AROUND(10) "poor"
p835
sg10
(lp836
(Vtotally
p837
g48
tp838
a(Vunresponsive
p839
g13
tp840
asg18
F0.0
sa(dp841
g3
F1.0
sg4
V"other+games" AROUND(10) "excellent"
p842
sg6
F0.0
sg7
F0.0
sg8
V"other+games" AROUND(10) "poor"
p843
sg10
(lp844
(Vother
p845
g13
tp846
a(Vgames
p847
g364
tp848
asg18
F0.0
sasI45
(lp849
(dp850
g3
F1.0
sg4
V"game+unplayable" AROUND(10) "excellent"
p851
sg6
F0.0
sg7
F0.0
sg8
V"game+unplayable" AROUND(10) "poor"
p852
sg10
(lp853
(Vgame
p854
g16
tp855
a(Vunplayable
p856
g13
tp857
asg18
F0.0
sa(dp858
g3
F1.0
sg4
V"not+run" AROUND(10) "excellent"
p859
sg6
F0.0
sg7
F0.0
sg8
V"not+run" AROUND(10) "poor"
p860
sg10
(lp861
(Vn't
p862
g48
tp863
a(Vrun
p864
g60
tp865
asg18
F0.0
sasI46
(lp866
(dp867
g3
F1.0
sg4
V"up-coming+updates" AROUND(10) "excellent"
p868
sg6
F0.0
sg7
F0.0
sg8
V"up-coming+updates" AROUND(10) "poor"
p869
sg10
(lp870
(Vup-coming
p871
g13
tp872
a(Vupdates
p873
g364
tp874
asg18
F0.0
sa(dp875
g3
F1.0
sg4
V"fix-it+felix" AROUND(10) "excellent"
p876
sg6
F0.0
sg7
F0.0
sg8
V"fix-it+felix" AROUND(10) "poor"
p877
sg10
(lp878
(Vfix-it
p879
g13
tp880
a(Vfelix
p881
g16
tp882
asg18
F0.0
sasI47
(lp883
(dp884
g3
F1.0
sg4
V"only+held" AROUND(10) "excellent"
p885
sg6
F0.0
sg7
F0.0
sg8
V"only+held" AROUND(10) "poor"
p886
sg10
(lp887
(Vonly
p888
g48
tp889
a(Vheld
p890
g51
tp891
asg18
F0.0
sasI48
(lp892
(dp893
g3
F1.0
sg4
V"enough+content" AROUND(10) "excellent"
p894
sg6
F0.0
sg7
F0.0
sg8
V"enough+content" AROUND(10) "poor"
p895
sg10
(lp896
(Venough
p897
g48
tp898
a(Vcontent
p899
g13
tp900
asg18
F0.0
sa(dp901
g3
F1.0
sg4
V"popular+movie" AROUND(10) "excellent"
p902
sg6
F0.0
sg7
F0.0
sg8
V"popular+movie" AROUND(10) "poor"
p903
sg10
(lp904
(Vpopular
p905
g13
tp906
a(Vmovie
p907
g16
tp908
asg18
F0.0
sa(dp909
g3
F1.0
sg4
V"just+make" AROUND(10) "excellent"
p910
sg6
F0.0
sg7
F0.0
sg8
V"just+make" AROUND(10) "poor"
p911
sg10
(lp912
(Vjust
p913
g48
tp914
a(Vmake
p915
g60
tp916
asg18
F0.0
sa(dp917
g3
F1.0
sg4
V"quick+buck" AROUND(10) "excellent"
p918
sg6
F0.0
sg7
F0.0
sg8
V"quick+buck" AROUND(10) "poor"
p919
sg10
(lp920
(Vquick
p921
g13
tp922
a(Vbuck
p923
g16
tp924
asg18
F0.0
sa(dp925
g3
F1.0
sg4
V"honestly+expected" AROUND(10) "excellent"
p926
sg6
F0.0
sg7
F0.0
sg8
V"honestly+expected" AROUND(10) "poor"
p927
sg10
(lp928
(Vhonestly
p929
g48
tp930
a(Vexpected
p931
g51
tp932
asg18
F0.0
sa(dp933
g3
F1.0
sg4
V"not+frighten" AROUND(10) "excellent"
p934
sg6
F0.0
sg7
F0.0
sg8
V"not+frighten" AROUND(10) "poor"
p935
sg10
(lp936
(Vn't
p937
g48
tp938
a(Vfrighten
p939
g60
tp940
asg18
F0.0
sasI49
(lp941
(dp942
g3
F1.0
sg4
V"hilarious+fun" AROUND(10) "excellent"
p943
sg6
F0.0
sg7
F0.0
sg8
V"hilarious+fun" AROUND(10) "poor"
p944
sg10
(lp945
(Vhilarious
p946
g13
tp947
a(Vfun
p948
g16
tp949
asg18
F0.0
sas.