(dp0
I0
(lp1
(dp2
S'ratio'
p3
F0.00036263736263736265
sS'query_near_excellent'
p4
V"not+cuz" AROUND(10) "excellent"
p5
sS'log_ratio'
p6
F-7.9221072240325068
sS'hits_near_poor'
p7
F5200.0
sS'query_near_poor'
p8
V"not+cuz" AROUND(10) "poor"
p9
sS'phrase'
p10
(lp11
(Vn't
p12
S'RB'
p13
tp14
a(Vcuz
p15
S'VB'
p16
tp17
asS'hits_near_excellent'
p18
F3.0
sa(dp19
g3
F0.39681987577639749
sg4
V"very+annoying" AROUND(10) "excellent"
p20
sg6
F-0.92427281466359756
sg7
F11500.0
sg8
V"very+annoying" AROUND(10) "poor"
p21
sg10
(lp22
(Vvery
p23
S'JJ'
p24
tp25
a(Vannoying
p26
S'NN'
p27
tp28
asg18
F7260.0
sasI1
(lp29
(dp30
g3
F1.0
sg4
V"-step+requirement" AROUND(10) "excellent"
p31
sg6
F0.0
sg7
F0.0
sg8
V"-step+requirement" AROUND(10) "poor"
p32
sg10
(lp33
(V-step
p34
g24
tp35
a(Vrequirement
p36
g27
tp37
asg18
F0.0
sa(dp38
g3
F0.92229639519359141
sg4
V"then+exit" AROUND(10) "excellent"
p39
sg6
F-0.080888637244695985
sg7
F10700.0
sg8
V"then+exit" AROUND(10) "poor"
p40
sg10
(lp41
(Vthen
p42
g13
tp43
a(Vexit
p44
g16
tp45
asg18
F15700.0
sa(dp46
g3
F0.86168401135288553
sg4
V"only+take" AROUND(10) "excellent"
p47
sg6
F-0.14886665168065308
sg7
F45300.0
sg8
V"only+take" AROUND(10) "poor"
p48
sg10
(lp49
(Vonly
p50
g13
tp51
a(Vtake
p52
g16
tp53
asg18
F62100.0
sa(dp54
g3
F6.11072e+21
sg4
V"not+let" AROUND(10) "excellent"
p55
sg6
F50.16433155872312
sg7
F0.0
sg8
V"not+let" AROUND(10) "poor"
p56
sg10
(lp57
(Vnot
p58
g13
tp59
a(Vlet
p60
g16
tp61
asg18
F86800.0
sasI2
(lp62
(dp63
g3
F2.1411442274751627e-25
sg4
V"very+good" AROUND(10) "excellent"
p64
sg6
F-56.803286952974808
sg7
F41700000.0
sg8
V"very+good" AROUND(10) "poor"
p65
sg10
(lp66
(Vvery
p67
g13
tp68
a(Vgood
p69
g24
tp70
asg18
F0.0
sa(dp71
g3
F1.0
sg4
V"previous+games" AROUND(10) "excellent"
p72
sg6
F0.0
sg7
F0.0
sg8
V"previous+games" AROUND(10) "poor"
p73
sg10
(lp74
(Vprevious
p75
g24
tp76
a(Vgames
p77
S'NNS'
p78
tp79
asg18
F0.0
sa(dp80
g3
F1.0
sg4
V"different+twist" AROUND(10) "excellent"
p81
sg6
F0.0
sg7
F0.0
sg8
V"different+twist" AROUND(10) "poor"
p82
sg10
(lp83
(Vdifferent
p84
g24
tp85
a(Vtwist
p86
g27
tp87
asg18
F0.0
sa(dp88
g3
F1.0
sg4
V"not+beat" AROUND(10) "excellent"
p89
sg6
F0.0
sg7
F0.0
sg8
V"not+beat" AROUND(10) "poor"
p90
sg10
(lp91
(Vn't
p92
g13
tp93
a(Vbeat
p94
g16
tp95
asg18
F0.0
sa(dp96
g3
F1.0
sg4
V"very+fun" AROUND(10) "excellent"
p97
sg6
F0.0
sg7
F0.0
sg8
V"very+fun" AROUND(10) "poor"
p98
sg10
(lp99
(Vvery
p100
g13
tp101
a(Vfun
p102
S'VBN'
p103
tp104
asg18
F0.0
sasI3
(lp105
(dp106
g3
F1.0
sg4
V"not+cuz" AROUND(10) "excellent"
p107
sg6
F0.0
sg7
F0.0
sg8
V"not+cuz" AROUND(10) "poor"
p108
sg10
(lp109
(Vn't
p110
g13
tp111
a(Vcuz
p112
g16
tp113
asg18
F0.0
sa(dp114
g3
F7.7639751552795032e-22
sg4
V"very+annoying" AROUND(10) "excellent"
p115
sg6
F-48.60737758055712
sg7
F11500.0
sg8
V"very+annoying" AROUND(10) "poor"
p116
sg10
(lp117
(Vvery
p118
g24
tp119
a(Vannoying
p120
g27
tp121
asg18
F0.0
sasI4
(lp122
(dp123
g3
F1.0
sg4
V"-step+requirement" AROUND(10) "excellent"
p124
sg6
F0.0
sg7
F0.0
sg8
V"-step+requirement" AROUND(10) "poor"
p125
sg10
(lp126
(V-step
p127
g24
tp128
a(Vrequirement
p129
g27
tp130
asg18
F0.0
sa(dp131
g3
F1.0
sg4
V"then+exit" AROUND(10) "excellent"
p132
sg6
F0.0
sg7
F0.0
sg8
V"then+exit" AROUND(10) "poor"
p133
sg10
(lp134
(Vthen
p135
g13
tp136
a(Vexit
p137
g16
tp138
asg18
F0.0
sa(dp139
g3
F1.0
sg4
V"only+take" AROUND(10) "excellent"
p140
sg6
F0.0
sg7
F0.0
sg8
V"only+take" AROUND(10) "poor"
p141
sg10
(lp142
(Vonly
p143
g13
tp144
a(Vtake
p145
g16
tp146
asg18
F0.0
sa(dp147
g3
F1.0
sg4
V"not+let" AROUND(10) "excellent"
p148
sg6
F0.0
sg7
F0.0
sg8
V"not+let" AROUND(10) "poor"
p149
sg10
(lp150
(Vnot
p151
g13
tp152
a(Vlet
p153
g16
tp154
asg18
F0.0
sasI5
(lp155
(dp156
g3
F1.0
sg4
V"very+good" AROUND(10) "excellent"
p157
sg6
F0.0
sg7
F0.0
sg8
V"very+good" AROUND(10) "poor"
p158
sg10
(lp159
(Vvery
p160
g13
tp161
a(Vgood
p162
g24
tp163
asg18
F0.0
sa(dp164
g3
F2.3443199999999997e+21
sg4
V"previous+games" AROUND(10) "excellent"
p165
sg6
F49.206282334043216
sg7
F0.0
sg8
V"previous+games" AROUND(10) "poor"
p166
sg10
(lp167
(Vprevious
p168
g24
tp169
a(Vgames
p170
g78
tp171
asg18
F33300.0
sa(dp172
g3
F1.0
sg4
V"different+twist" AROUND(10) "excellent"
p173
sg6
F0.0
sg7
F0.0
sg8
V"different+twist" AROUND(10) "poor"
p174
sg10
(lp175
(Vdifferent
p176
g24
tp177
a(Vtwist
p178
g27
tp179
asg18
F0.0
sa(dp180
g3
F1.0
sg4
V"not+beat" AROUND(10) "excellent"
p181
sg6
F0.0
sg7
F0.0
sg8
V"not+beat" AROUND(10) "poor"
p182
sg10
(lp183
(Vn't
p184
g13
tp185
a(Vbeat
p186
g16
tp187
asg18
F0.0
sa(dp188
g3
F1.0
sg4
V"very+fun" AROUND(10) "excellent"
p189
sg6
F0.0
sg7
F0.0
sg8
V"very+fun" AROUND(10) "poor"
p190
sg10
(lp191
(Vvery
p192
g13
tp193
a(Vfun
p194
g103
tp195
asg18
F0.0
sasI6
(lp196
(dp197
g3
F1.0
sg4
V"pretty+freaking" AROUND(10) "excellent"
p198
sg6
F0.0
sg7
F0.0
sg8
V"pretty+freaking" AROUND(10) "poor"
p199
sg10
(lp200
(Vpretty
p201
g13
tp202
a(Vfreaking
p203
S'VBG'
p204
tp205
asg18
F0.0
sa(dp206
g3
F1.0
sg4
V"something+new" AROUND(10) "excellent"
p207
sg6
F0.0
sg7
F0.0
sg8
V"something+new" AROUND(10) "poor"
p208
sg10
(lp209
(Vsomething
p210
g27
tp211
a(Vnew
p212
g24
tp213
asg18
F0.0
sasI7
(lp214
(dp215
g3
F3.143863179074447e-22
sg4
V"Really+loving" AROUND(10) "excellent"
p216
sg6
F-49.511419690355076
sg7
F28400.0
sg8
V"Really+loving" AROUND(10) "poor"
p217
sg10
(lp218
(VReally
p219
g13
tp220
a(Vloving
p221
g204
tp222
asg18
F0.0
sa(dp223
g3
F1.0
sg4
V"so+cool" AROUND(10) "excellent"
p224
sg6
F0.0
sg7
F0.0
sg8
V"so+cool" AROUND(10) "poor"
p225
sg10
(lp226
(Vso
p227
g13
tp228
a(Vcool
p229
g24
tp230
asg18
F0.0
sasI8
(lp231
(dp232
g3
F1.0
sg4
V"angry+birds" AROUND(10) "excellent"
p233
sg6
F0.0
sg7
F0.0
sg8
V"angry+birds" AROUND(10) "poor"
p234
sg10
(lp235
(Vangry
p236
g24
tp237
a(Vbirds
p238
g78
tp239
asg18
F0.0
sa(dp240
g3
F1.0
sg4
V"eventually+got" AROUND(10) "excellent"
p241
sg6
F0.0
sg7
F0.0
sg8
V"eventually+got" AROUND(10) "poor"
p242
sg10
(lp243
(Veventually
p244
g13
tp245
a(Vgot
p246
S'VBD'
p247
tp248
asg18
F0.0
sa(dp249
g3
F1.0
sg4
V"next+update" AROUND(10) "excellent"
p250
sg6
F0.0
sg7
F0.0
sg8
V"next+update" AROUND(10) "poor"
p251
sg10
(lp252
(Vnext
p253
g24
tp254
a(Vupdate
p255
g27
tp256
asg18
F0.0
sasI9
(lp257
(dp258
g3
F1.0
sg4
V"good+angry" AROUND(10) "excellent"
p259
sg6
F0.0
sg7
F0.0
sg8
V"good+angry" AROUND(10) "poor"
p260
sg10
(lp261
(Vgood
p262
g24
tp263
a(Vangry
p264
g27
tp265
asg18
F0.0
sasI10
(lp266
(dp267
g3
F1.8485655131617865e-22
sg4
V"last+update" AROUND(10) "excellent"
p268
sg6
F-50.042462105846447
sg7
F48300.0
sg8
V"last+update" AROUND(10) "poor"
p269
sg10
(lp270
(Vlast
p271
g24
tp272
a(Vupdate
p273
g27
tp274
asg18
F0.0
sa(dp275
g3
F1.0
sg4
V"not+open" AROUND(10) "excellent"
p276
sg6
F0.0
sg7
F0.0
sg8
V"not+open" AROUND(10) "poor"
p277
sg10
(lp278
(Vnot
p279
g13
tp280
a(Vopen
p281
g16
tp282
asg18
F0.0
sasI11
(lp283
(dp284
g3
F1.0
sg4
V"same+result" AROUND(10) "excellent"
p285
sg6
F0.0
sg7
F0.0
sg8
V"same+result" AROUND(10) "poor"
p286
sg10
(lp287
(Vsame
p288
g24
tp289
a(Vresult
p290
g27
tp291
asg18
F0.0
sasI12
(lp292
sI13
(lp293
sI14
(lp294
(dp295
g3
F1.0
sg4
V"most+interesting" AROUND(10) "excellent"
p296
sg6
F0.0
sg7
F0.0
sg8
V"most+interesting" AROUND(10) "poor"
p297
sg10
(lp298
(Vmost
p299
S'RBS'
p300
tp301
a(Vinteresting
p302
g24
tp303
asg18
F0.0
sasI15
(lp304
sI16
(lp305
sI17
(lp306
sI18
(lp307
sI19
(lp308
sI20
(lp309
(dp310
g3
F1.0
sg4
V"still+awful" AROUND(10) "excellent"
p311
sg6
F0.0
sg7
F0.0
sg8
V"still+awful" AROUND(10) "poor"
p312
sg10
(lp313
(Vstill
p314
g13
tp315
a(Vawful
p316
g24
tp317
asg18
F0.0
sa(dp318
g3
F1.0
sg4
V"low+rate" AROUND(10) "excellent"
p319
sg6
F0.0
sg7
F0.0
sg8
V"low+rate" AROUND(10) "poor"
p320
sg10
(lp321
(Vlow
p322
g24
tp323
a(Vrate
p324
g27
tp325
asg18
F0.0
sasI21
(lp326
(dp327
g3
F1.0
sg4
V"Brilliant+!" AROUND(10) "excellent"
p328
sg6
F0.0
sg7
F0.0
sg8
V"Brilliant+!" AROUND(10) "poor"
p329
sg10
(lp330
(VBrilliant
p331
g24
tp332
a(V!
p333
g27
tp334
asg18
F0.0
sa(dp335
g3
F1.3798399999999998e+20
sg4
V"Brilliant+again" AROUND(10) "excellent"
p336
sg6
F46.373669410299243
sg7
F0.0
sg8
V"Brilliant+again" AROUND(10) "poor"
p337
sg10
(lp338
(VBrilliant
p339
g24
tp340
a(Vagain
p341
g27
tp342
asg18
F1960.0
sasI22
(lp343
(dp344
g3
F1.0
sg4
V"not+play" AROUND(10) "excellent"
p345
sg6
F0.0
sg7
F0.0
sg8
V"not+play" AROUND(10) "poor"
p346
sg10
(lp347
(Vn't
p348
g13
tp349
a(Vplay
p350
g16
tp351
asg18
F0.0
sasI23
(lp352
(dp353
g3
F1.0
sg4
V"reluctantly+spent" AROUND(10) "excellent"
p354
sg6
F0.0
sg7
F0.0
sg8
V"reluctantly+spent" AROUND(10) "poor"
p355
sg10
(lp356
(Vreluctantly
p357
g13
tp358
a(Vspent
p359
g247
tp360
asg18
F0.0
sa(dp361
g3
F1.0
sg4
V"never+showed" AROUND(10) "excellent"
p362
sg6
F0.0
sg7
F0.0
sg8
V"never+showed" AROUND(10) "poor"
p363
sg10
(lp364
(Vnever
p365
g13
tp366
a(Vshowed
p367
g247
tp368
asg18
F0.0
sa(dp369
g3
F1.0
sg4
V"never+got" AROUND(10) "excellent"
p370
sg6
F0.0
sg7
F0.0
sg8
V"never+got" AROUND(10) "poor"
p371
sg10
(lp372
(Vnever
p373
g13
tp374
a(Vgot
p375
g247
tp376
asg18
F0.0
sasI24
(lp377
(dp378
g3
F1.0
sg4
V"very+addictive" AROUND(10) "excellent"
p379
sg6
F0.0
sg7
F0.0
sg8
V"very+addictive" AROUND(10) "poor"
p380
sg10
(lp381
(Vvery
p382
g13
tp383
a(Vaddictive
p384
g24
tp385
asg18
F0.0
sa(dp386
g3
F1.07712e+22
sg4
V"very+fun" AROUND(10) "excellent"
p387
sg6
F50.731162858449252
sg7
F0.0
sg8
V"very+fun" AROUND(10) "poor"
p388
sg10
(lp389
(Vvery
p390
g13
tp391
a(Vfun
p392
g24
tp393
asg18
F153000.0
sasI25
(lp394
sI26
(lp395
sI27
(lp396
(dp397
g3
F1.0
sg4
V"classic+characters" AROUND(10) "excellent"
p398
sg6
F0.0
sg7
F0.0
sg8
V"classic+characters" AROUND(10) "poor"
p399
sg10
(lp400
(Vclassic
p401
g24
tp402
a(Vcharacters
p403
g78
tp404
asg18
F0.0
sasI28
(lp405
(dp406
g3
F1.0
sg4
V"not+have" AROUND(10) "excellent"
p407
sg6
F0.0
sg7
F0.0
sg8
V"not+have" AROUND(10) "poor"
p408
sg10
(lp409
(Vn't
p410
g13
tp411
a(Vhave
p412
g16
tp413
asg18
F0.0
sasI29
(lp414
(dp415
g3
F1.0
sg4
V"Really+fun" AROUND(10) "excellent"
p416
sg6
F0.0
sg7
F0.0
sg8
V"Really+fun" AROUND(10) "poor"
p417
sg10
(lp418
(VReally
p419
g13
tp420
a(Vfun
p421
g103
tp422
asg18
F0.0
sasI30
(lp423
sI31
(lp424
sI32
(lp425
(dp426
g3
F1.0
sg4
V"entertaining+game" AROUND(10) "excellent"
p427
sg6
F0.0
sg7
F0.0
sg8
V"entertaining+game" AROUND(10) "poor"
p428
sg10
(lp429
(Ventertaining
p430
g24
tp431
a(Vgame
p432
g27
tp433
asg18
F0.0
sasI33
(lp434
sI34
(lp435
(dp436
g3
F1.0
sg4
V"not+get" AROUND(10) "excellent"
p437
sg6
F0.0
sg7
F0.0
sg8
V"not+get" AROUND(10) "poor"
p438
sg10
(lp439
(Vn't
p440
g13
tp441
a(Vget
p442
g16
tp443
asg18
F0.0
sasI35
(lp444
(dp445
g3
F6.9754464285714291e-23
sg4
V"angry+birds" AROUND(10) "excellent"
p446
sg6
F-51.017060809107534
sg7
F128000.0
sg8
V"angry+birds" AROUND(10) "poor"
p447
sg10
(lp448
(Vangry
p449
g24
tp450
a(Vbirds
p451
g78
tp452
asg18
F0.0
sa(dp453
g3
F1.0
sg4
V"not+using" AROUND(10) "excellent"
p454
sg6
F0.0
sg7
F0.0
sg8
V"not+using" AROUND(10) "poor"
p455
sg10
(lp456
(Vnot
p457
g13
tp458
a(Vusing
p459
g204
tp460
asg18
F0.0
sasI36
(lp461
(dp462
g3
F1.0
sg4
V"own+spin" AROUND(10) "excellent"
p463
sg6
F0.0
sg7
F0.0
sg8
V"own+spin" AROUND(10) "poor"
p464
sg10
(lp465
(Vown
p466
g24
tp467
a(Vspin
p468
g27
tp469
asg18
F0.0
sasI37
(lp470
(dp471
g3
F1.0
sg4
V"next+angry" AROUND(10) "excellent"
p472
sg6
F0.0
sg7
F0.0
sg8
V"next+angry" AROUND(10) "poor"
p473
sg10
(lp474
(Vnext
p475
g24
tp476
a(Vangry
p477
g27
tp478
asg18
F0.0
sasI38
(lp479
(dp480
g3
F1.0
sg4
V"angry+birds" AROUND(10) "excellent"
p481
sg6
F0.0
sg7
F0.0
sg8
V"angry+birds" AROUND(10) "poor"
p482
sg10
(lp483
(Vangry
p484
g24
tp485
a(Vbirds
p486
g78
tp487
asg18
F0.0
sasI39
(lp488
(dp489
g3
F1.0
sg4
V"not+disappointed" AROUND(10) "excellent"
p490
sg6
F0.0
sg7
F0.0
sg8
V"not+disappointed" AROUND(10) "poor"
p491
sg10
(lp492
(Vn't
p493
g13
tp494
a(Vdisappointed
p495
g103
tp496
asg18
F0.0
sasI40
(lp497
sI41
(lp498
(dp499
g3
F1.60512e+22
sg4
V"too+big" AROUND(10) "excellent"
p500
sg6
F51.130070566011263
sg7
F0.0
sg8
V"too+big" AROUND(10) "poor"
p501
sg10
(lp502
(Vtoo
p503
g13
tp504
a(Vbig
p505
g24
tp506
asg18
F228000.0
sasI42
(lp507
(dp508
g3
F1.0
sg4
V"very+cute" AROUND(10) "excellent"
p509
sg6
F0.0
sg7
F0.0
sg8
V"very+cute" AROUND(10) "poor"
p510
sg10
(lp511
(Vvery
p512
g13
tp513
a(Vcute
p514
g24
tp515
asg18
F0.0
sa(dp516
g3
F1.0
sg4
V"various+features" AROUND(10) "excellent"
p517
sg6
F0.0
sg7
F0.0
sg8
V"various+features" AROUND(10) "poor"
p518
sg10
(lp519
(Vvarious
p520
g24
tp521
a(Vfeatures
p522
g78
tp523
asg18
F0.0
sa(dp524
g3
F1.0
sg4
V"previous+games" AROUND(10) "excellent"
p525
sg6
F0.0
sg7
F0.0
sg8
V"previous+games" AROUND(10) "poor"
p526
sg10
(lp527
(Vprevious
p528
g24
tp529
a(Vgames
p530
g78
tp531
asg18
F0.0
sasI43
(lp532
(dp533
g3
F1.0
sg4
V"big+boss" AROUND(10) "excellent"
p534
sg6
F0.0
sg7
F0.0
sg8
V"big+boss" AROUND(10) "poor"
p535
sg10
(lp536
(Vbig
p537
g24
tp538
a(Vboss
p539
g27
tp540
asg18
F0.0
sa(dp541
g3
F1.0
sg4
V"darth+pig" AROUND(10) "excellent"
p542
sg6
F0.0
sg7
F0.0
sg8
V"darth+pig" AROUND(10) "poor"
p543
sg10
(lp544
(Vdarth
p545
g24
tp546
a(Vpig
p547
g27
tp548
asg18
F0.0
sasI44
(lp549
(dp550
g3
F1.02784e+20
sg4
V"funny+star" AROUND(10) "excellent"
p551
sg6
F46.079161372777065
sg7
F0.0
sg8
V"funny+star" AROUND(10) "poor"
p552
sg10
(lp553
(Vfunny
p554
g24
tp555
a(Vstar
p556
g27
tp557
asg18
F1460.0
sasI45
(lp558
(dp559
g3
F1.0
sg4
V"many+fresh" AROUND(10) "excellent"
p560
sg6
F0.0
sg7
F0.0
sg8
V"many+fresh" AROUND(10) "poor"
p561
sg10
(lp562
(Vmany
p563
g24
tp564
a(Vfresh
p565
g24
tp566
asg18
F0.0
sa(dp567
g3
F1.0
sg4
V"enjoyable+ideas" AROUND(10) "excellent"
p568
sg6
F0.0
sg7
F0.0
sg8
V"enjoyable+ideas" AROUND(10) "poor"
p569
sg10
(lp570
(Venjoyable
p571
g24
tp572
a(Videas
p573
g78
tp574
asg18
F0.0
sasI46
(lp575
(dp576
g3
F1.0
sg4
V"really+excited" AROUND(10) "excellent"
p577
sg6
F0.0
sg7
F0.0
sg8
V"really+excited" AROUND(10) "poor"
p578
sg10
(lp579
(Vreally
p580
g13
tp581
a(Vexcited
p582
g103
tp583
asg18
F0.0
sa(dp584
g3
F1.0
sg4
V"even+load" AROUND(10) "excellent"
p585
sg6
F0.0
sg7
F0.0
sg8
V"even+load" AROUND(10) "poor"
p586
sg10
(lp587
(Veven
p588
g13
tp589
a(Vload
p590
g16
tp591
asg18
F0.0
sa(dp592
g3
F7.3789846517119245e-23
sg4
V"not+play" AROUND(10) "excellent"
p593
sg6
F-50.960821090784655
sg7
F121000.0
sg8
V"not+play" AROUND(10) "poor"
p594
sg10
(lp595
(Vn't
p596
g13
tp597
a(Vplay
p598
g16
tp599
asg18
F0.0
sa(dp600
g3
F1.0
sg4
V"full+game" AROUND(10) "excellent"
p601
sg6
F0.0
sg7
F0.0
sg8
V"full+game" AROUND(10) "poor"
p602
sg10
(lp603
(Vfull
p604
g24
tp605
a(Vgame
p606
g27
tp607
asg18
F0.0
sa(dp608
g3
F1.0
sg4
V"not+show" AROUND(10) "excellent"
p609
sg6
F0.0
sg7
F0.0
sg8
V"not+show" AROUND(10) "poor"
p610
sg10
(lp611
(Vn't
p612
g13
tp613
a(Vshow
p614
g16
tp615
asg18
F0.0
sasI47
(lp616
sI48
(lp617
(dp618
g3
F1.0
sg4
V"aboslutly+amazing" AROUND(10) "excellent"
p619
sg6
F0.0
sg7
F0.0
sg8
V"aboslutly+amazing" AROUND(10) "poor"
p620
sg10
(lp621
(Vaboslutly
p622
g13
tp623
a(Vamazing
p624
g204
tp625
asg18
F0.0
sa(dp626
g3
F1.0
sg4
V"little+anoying" AROUND(10) "excellent"
p627
sg6
F0.0
sg7
F0.0
sg8
V"little+anoying" AROUND(10) "poor"
p628
sg10
(lp629
(Vlittle
p630
g13
tp631
a(Vanoying
p632
g204
tp633
asg18
F0.0
sa(dp634
g3
F1.0
sg4
V"overall+great" AROUND(10) "excellent"
p635
sg6
F0.0
sg7
F0.0
sg8
V"overall+great" AROUND(10) "poor"
p636
sg10
(lp637
(Voverall
p638
g24
tp639
a(Vgreat
p640
g24
tp641
asg18
F0.0
sasI49
(lp642
(dp643
g3
F1.0
sg4
V"not+gon" AROUND(10) "excellent"
p644
sg6
F0.0
sg7
F0.0
sg8
V"not+gon" AROUND(10) "poor"
p645
sg10
(lp646
(Vn't
p647
g13
tp648
a(Vgon
p649
g16
tp650
asg18
F0.0
sa(dp651
g3
F2.99904e+22
sg4
V"NOT+disappointed" AROUND(10) "excellent"
p652
sg6
F51.755164283326188
sg7
F0.0
sg8
V"NOT+disappointed" AROUND(10) "poor"
p653
sg10
(lp654
(VNOT
p655
g13
tp656
a(Vdisappointed
p657
g103
tp658
asg18
F426000.0
sas.