(dp0
I0
(lp1
(dp2
S'ratio'
p3
I1
sS'query_near_excellent'
p4
S''
p5
sS'log_ratio'
p6
F0.0
sS'hits_near_poor'
p7
I100
sS'query_near_poor'
p8
g5
sS'phrase'
p9
(lp10
(Vn't
p11
S'RB'
p12
tp13
a(Vcuz
p14
S'VB'
p15
tp16
asS'hits_near_excellent'
p17
I100
sa(dp18
g3
F0.9222065063649223
sg4
g5
sg6
F-0.0809861039699197
sg7
F43.46666666666667
sg8
g5
sg9
(lp19
(Vvery
p20
S'JJ'
p21
tp22
a(Vannoying
p23
S'NN'
p24
tp25
asg17
F47.13333333333333
sasI1
(lp26
(dp27
g3
I1
sg4
g5
sg6
F0.0
sg7
I100
sg8
g5
sg9
(lp28
(V-step
p29
g21
tp30
a(Vrequirement
p31
g24
tp32
asg17
I100
sa(dp33
g3
I1
sg4
g5
sg6
F0.0
sg7
I100
sg8
g5
sg9
(lp34
(Vthen
p35
g12
tp36
a(Vexit
p37
g15
tp38
asg17
I100
sa(dp39
g3
F1.1038591905720674
sg4
g5
sg6
F0.0988123949486994
sg7
F50.76744186046512
sg8
g5
sg9
(lp40
(Vonly
p41
g12
tp42
a(Vtake
p43
g15
tp44
asg17
F45.990867579908674
sa(dp45
g3
F1.1369925467808437
sg4
g5
sg6
F0.128386659584947
sg7
F58.291666666666664
sg8
g5
sg9
(lp46
(Vnot
p47
g12
tp48
a(Vlet
p49
g15
tp50
asg17
F51.26829268292683
sasI2
(lp51
(dp52
g3
F1.0231502876501475
sg4
g5
sg6
F0.0228863849283782
sg7
F41.566265060240966
sg8
g5
sg9
(lp53
(Vvery
p54
g12
tp55
a(Vgood
p56
g21
tp57
asg17
F40.625766871165645
sa(dp58
g3
I1
sg4
g5
sg6
F0.0
sg7
I100
sg8
g5
sg9
(lp59
(Vprevious
p60
g21
tp61
a(Vgames
p62
S'NNS'
p63
tp64
asg17
I100
sa(dp65
g3
F1.5384615384615385
sg4
g5
sg6
F0.43078291609245434
sg7
I100
sg8
g5
sg9
(lp66
(Vdifferent
p67
g21
tp68
a(Vtwist
p69
g24
tp70
asg17
F65.0
sa(dp71
g3
F2.0783373301358914
sg4
g5
sg6
F0.7315682135426623
sg7
I100
sg8
g5
sg9
(lp72
(Vn't
p73
g12
tp74
a(Vbeat
p75
g15
tp76
asg17
F48.11538461538461
sa(dp77
g3
F1.1031648063033486
sg4
g5
sg6
F0.09818314552267235
sg7
F57.44
sg8
g5
sg9
(lp78
(Vvery
p79
g12
tp80
a(Vfun
p81
S'VBN'
p82
tp83
asg17
F52.06837606837607
sasI3
(lp84
(dp85
g3
I1
sg4
g5
sg6
F0.0
sg7
I100
sg8
g5
sg9
(lp86
(Vn't
p87
g12
tp88
a(Vcuz
p89
g15
tp90
asg17
I100
sa(dp91
g3
F0.9222065063649223
sg4
g5
sg6
F-0.0809861039699197
sg7
F43.46666666666667
sg8
g5
sg9
(lp92
(Vvery
p93
g21
tp94
a(Vannoying
p95
g24
tp96
asg17
F47.13333333333333
sasI4
(lp97
(dp98
g3
I1
sg4
g5
sg6
F0.0
sg7
I100
sg8
g5
sg9
(lp99
(V-step
p100
g21
tp101
a(Vrequirement
p102
g24
tp103
asg17
I100
sa(dp104
g3
I1
sg4
g5
sg6
F0.0
sg7
I100
sg8
g5
sg9
(lp105
(Vthen
p106
g12
tp107
a(Vexit
p108
g15
tp109
asg17
I100
sa(dp110
g3
F1.1038591905720674
sg4
g5
sg6
F0.0988123949486994
sg7
F50.76744186046512
sg8
g5
sg9
(lp111
(Vonly
p112
g12
tp113
a(Vtake
p114
g15
tp115
asg17
F45.990867579908674
sa(dp116
g3
F1.1369925467808437
sg4
g5
sg6
F0.128386659584947
sg7
F58.291666666666664
sg8
g5
sg9
(lp117
(Vnot
p118
g12
tp119
a(Vlet
p120
g15
tp121
asg17
F51.26829268292683
sasI5
(lp122
(dp123
g3
F1.0231502876501475
sg4
g5
sg6
F0.0228863849283782
sg7
F41.566265060240966
sg8
g5
sg9
(lp124
(Vvery
p125
g12
tp126
a(Vgood
p127
g21
tp128
asg17
F40.625766871165645
sa(dp129
g3
I1
sg4
g5
sg6
F0.0
sg7
I100
sg8
g5
sg9
(lp130
(Vprevious
p131
g21
tp132
a(Vgames
p133
g63
tp134
asg17
I100
sa(dp135
g3
F1.5384615384615385
sg4
g5
sg6
F0.43078291609245434
sg7
I100
sg8
g5
sg9
(lp136
(Vdifferent
p137
g21
tp138
a(Vtwist
p139
g24
tp140
asg17
F65.0
sa(dp141
g3
F2.0783373301358914
sg4
g5
sg6
F0.7315682135426623
sg7
I100
sg8
g5
sg9
(lp142
(Vn't
p143
g12
tp144
a(Vbeat
p145
g15
tp146
asg17
F48.11538461538461
sa(dp147
g3
F1.1031648063033486
sg4
g5
sg6
F0.09818314552267235
sg7
F57.44
sg8
g5
sg9
(lp148
(Vvery
p149
g12
tp150
a(Vfun
p151
g82
tp152
asg17
F52.06837606837607
sasI6
(lp153
(dp154
g3
I1
sg4
g5
sg6
F0.0
sg7
I100
sg8
g5
sg9
(lp155
(Vpretty
p156
g12
tp157
a(Vfreaking
p158
S'VBG'
p159
tp160
asg17
I100
sa(dp161
g3
F0.8668202764976959
sg4
g5
sg6
F-0.1429236172334748
sg7
F39.6
sg8
g5
sg9
(lp162
(Vsomething
p163
g24
tp164
a(Vnew
p165
g21
tp166
asg17
F45.68421052631579
sasI7
(lp167
(dp168
g3
F2.2336769759450172
sg4
g5
sg6
F0.8036490957181903
sg7
I100
sg8
g5
sg9
(lp169
(VReally
p170
g12
tp171
a(Vloving
p172
g159
tp173
asg17
F44.76923076923077
sa(dp174
g3
F1.2042291622832066
sg4
g5
sg6
F0.185839662897653
sg7
F54.1764705882353
sg8
g5
sg9
(lp175
(Vso
p176
g12
tp177
a(Vcool
p178
g21
tp179
asg17
F44.98850574712644
sasI8
(lp180
(dp181
g3
I1
sg4
g5
sg6
F0.0
sg7
I100
sg8
g5
sg9
(lp182
(Vangry
p183
g21
tp184
a(Vbirds
p185
g63
tp186
asg17
I100
sa(dp187
g3
F1.453211009174312
sg4
g5
sg6
F0.37377559715118186
sg7
F66.0
sg8
g5
sg9
(lp188
(Veventually
p189
g12
tp190
a(Vgot
p191
S'VBD'
p192
tp193
asg17
F45.416666666666664
sa(dp194
g3
I1
sg4
g5
sg6
F0.0
sg7
I100
sg8
g5
sg9
(lp195
(Vnext
p196
g21
tp197
a(Vupdate
p198
g24
tp199
asg17
I100
sasI9
(lp200
(dp201
g3
F1.5
sg4
g5
sg6
F0.4054651081081644
sg7
F81.0
sg8
g5
sg9
(lp202
(Vgood
p203
g21
tp204
a(Vangry
p205
g24
tp206
asg17
F54.0
sasI10
(lp207
(dp208
S'ratio'
p209
F2.884615384615385
sS'query_near_excellent'
p210
g5
sS'log_ratio'
p211
F1.0593915755148284
sS'hits_near_poor'
p212
I100
sS'query_near_poor'
p213
g5
sS'phrase'
p214
(lp215
(Vlast
p216
S'JJ'
p217
tp218
a(Vupdate
p219
S'NN'
p220
tp221
asS'hits_near_excellent'
p222
F34.666666666666664
sa(dp223
g209
F1.0706038235850843
sg210
g5
sg211
F0.06822281041209294
sg212
F56.111111111111114
sg213
g5
sg214
(lp224
(Vnot
p225
S'RB'
p226
tp227
a(Vopen
p228
S'VB'
p229
tp230
asg222
F52.410714285714285
sasI11
(lp231
(dp232
g209
F1.2090909090909092
sg210
g5
sg211
F0.18986876242933765
sg212
F44.333333333333336
sg213
g5
sg214
(lp233
(Vsame
p234
g217
tp235
a(Vresult
p236
g220
tp237
asg222
F36.666666666666664
sasI12
(lp238
sI13
(lp239
sI14
(lp240
(dp241
g209
F1.081908831908832
sg210
g5
sg211
F0.07872691801001643
sg212
F42.0
sg213
g5
sg214
(lp242
(Vmost
p243
S'RBS'
p244
tp245
a(Vinteresting
p246
g217
tp247
asg222
F38.82027649769585
sasI15
(lp248
sI16
(lp249
sI17
(lp250
sI18
(lp251
sI19
(lp252
sI20
(lp253
(dp254
g209
F1.0932192231731404
sg210
g5
sg211
F0.0891267592321575
sg212
F51.57142857142857
sg213
g5
sg214
(lp255
(Vstill
p256
g226
tp257
a(Vawful
p258
g217
tp259
asg222
F47.17391304347826
sa(dp260
g209
F7.142857142857143
sg210
g5
sg211
F1.9661128563728327
sg212
I100
sg213
g5
sg214
(lp261
(Vlow
p262
g217
tp263
a(Vrate
p264
g220
tp265
asg222
F14.0
sasI21
(lp266
(dp267
g209
F1.0116788321167884
sg210
g5
sg211
F0.01161116092767806
sg212
F46.2
sg213
g5
sg214
(lp268
(VBrilliant
p269
g217
tp270
a(V!
p271
g220
tp272
asg222
F45.666666666666664
sa(dp273
g209
F0.6677115987460815
sg210
g5
sg211
F-0.4038989370754194
sg212
F35.5
sg213
g5
sg214
(lp274
(VBrilliant
p275
g217
tp276
a(Vagain
p277
g220
tp278
asg222
F53.166666666666664
sasI22
(lp279
(dp280
g209
F1.017876674870112
sg210
g5
sg211
F0.017718766261362737
sg212
F51.166666666666664
sg213
g5
sg214
(lp281
(Vn't
p282
g226
tp283
a(Vplay
p284
g229
tp285
asg222
F50.2680412371134
sasI23
(lp286
(dp287
g209
I1
sg210
g5
sg211
F0.0
sg212
I100
sg213
g5
sg214
(lp288
(Vreluctantly
p289
g226
tp290
a(Vspent
p291
S'VBD'
p292
tp293
asg222
I100
sa(dp294
g209
F4.123711340206185
sg210
g5
sg211
F1.4167535686045991
sg212
I100
sg213
g5
sg214
(lp295
(Vnever
p296
g226
tp297
a(Vshowed
p298
g292
tp299
asg222
F24.25
sa(dp300
g209
F1.0724244203111242
sg210
g5
sg211
F0.06992189876448915
sg212
F46.25
sg213
g5
sg214
(lp301
(Vnever
p302
g226
tp303
a(Vgot
p304
g292
tp305
asg222
F43.12658227848101
sasI24
(lp306
(dp307
g209
I1
sg210
g5
sg211
F0.0
sg212
I100
sg213
g5
sg214
(lp308
(Vvery
p309
g226
tp310
a(Vaddictive
p311
g217
tp312
asg222
I100
sa(dp313
g209
F1.1031648063033486
sg210
g5
sg211
F0.09818314552267235
sg212
F57.44
sg213
g5
sg214
(lp314
(Vvery
p315
g226
tp316
a(Vfun
p317
g217
tp318
asg222
F52.06837606837607
sasI25
(lp319
sI26
(lp320
sI27
(lp321
(dp322
g209
F0.8414982425307557
sg210
g5
sg211
F-0.1725713538492913
sg212
F40.75
sg213
g5
sg214
(lp323
(Vclassic
p324
g217
tp325
a(Vcharacters
p326
S'NNS'
p327
tp328
asg222
F48.42553191489362
sasI28
(lp329
(dp330
g209
F1.0077337191877913
sg210
g5
sg211
F0.007703967278374728
sg212
F48.28658536585366
sg213
g5
sg214
(lp331
(Vn't
p332
g226
tp333
a(Vhave
p334
g229
tp335
asg222
F47.91601635079896
sasI29
(lp336
(dp337
g209
F0.9301782448718795
sg210
g5
sg211
F-0.07237905004692904
sg212
F46.44444444444444
sg213
g5
sg214
(lp338
(VReally
p339
g226
tp340
a(Vfun
p341
S'VBN'
p342
tp343
asg222
F49.93069306930693
sasI30
(lp344
sI31
(lp345
sI32
(lp346
(dp347
g209
F1.263157894736842
sg210
g5
sg211
F0.2336148511815051
sg212
F56.0
sg213
g5
sg214
(lp348
(Ventertaining
p349
g217
tp350
a(Vgame
p351
g220
tp352
asg222
F44.333333333333336
sasI33
(lp353
sI34
(lp354
(dp355
g209
F1.0707635459858116
sg210
g5
sg211
F0.0683719883656689
sg212
F53.53393665158371
sg213
g5
sg214
(lp356
(Vn't
p357
g226
tp358
a(Vget
p359
g229
tp360
asg222
F49.9960396039604
sasI35
(lp361
(dp362
g209
I1
sg210
g5
sg211
F0.0
sg212
I100
sg213
g5
sg214
(lp363
(Vangry
p364
g217
tp365
a(Vbirds
p366
g327
tp367
asg222
I100
sa(dp368
g209
F1.0232876712328767
sg210
g5
sg211
F0.023020650990380455
sg212
F49.8
sg213
g5
sg214
(lp369
(Vnot
p370
g226
tp371
a(Vusing
p372
S'VBG'
p373
tp374
asg222
F48.666666666666664
sasI36
(lp375
(dp376
g209
F2.0134228187919465
sg210
g5
sg211
F0.6998361687107421
sg212
I100
sg213
g5
sg214
(lp377
(Vown
p378
g217
tp379
a(Vspin
p380
g220
tp381
asg222
F49.666666666666664
sasI37
(lp382
(dp383
g209
F1.0396039603960396
sg210
g5
sg211
F0.03883983331626396
sg212
F63.0
sg213
g5
sg214
(lp384
(Vnext
p385
g217
tp386
a(Vangry
p387
g220
tp388
asg222
F60.6
sasI38
(lp389
(dp390
g209
I1
sg210
g5
sg211
F0.0
sg212
I100
sg213
g5
sg214
(lp391
(Vangry
p392
g217
tp393
a(Vbirds
p394
g327
tp395
asg222
I100
sasI39
(lp396
(dp397
g209
F1.0899931302953973
sg210
g5
sg211
F0.08617139373990478
sg212
F50.90909090909091
sg213
g5
sg214
(lp398
(Vn't
p399
g226
tp400
a(Vdisappointed
p401
g342
tp402
asg222
F46.705882352941174
sasI40
(lp403
sI41
(lp404
(dp405
g209
F0.9112298756386773
sg210
g5
sg211
F-0.09296008025026246
sg212
F45.34782608695652
sg213
g5
sg214
(lp406
(Vtoo
p407
g226
tp408
a(Vbig
p409
g217
tp410
asg222
F49.765517241379314
sasI42
(lp411
(dp412
g209
F1.136235450956263
sg210
g5
sg211
F0.12772056198864165
sg212
F50.36363636363637
sg213
g5
sg214
(lp413
(Vvery
p414
g226
tp415
a(Vcute
p416
g217
tp417
asg222
F44.325
sa(dp418
g209
F0.8839835728952772
sg210
g5
sg211
F-0.12331679921480433
sg212
F61.5
sg213
g5
sg214
(lp419
(Vvarious
p420
g217
tp421
a(Vfeatures
p422
g327
tp423
asg222
F69.57142857142857
sa(dp424
g209
I1
sg210
g5
sg211
F0.0
sg212
I100
sg213
g5
sg214
(lp425
(Vprevious
p426
g217
tp427
a(Vgames
p428
g327
tp429
asg222
I100
sasI43
(lp430
(dp431
g209
F1.0885668276972624
sg210
g5
sg211
F0.08486199410948528
sg212
F56.333333333333336
sg213
g5
sg214
(lp432
(Vbig
p433
g217
tp434
a(Vboss
p435
g220
tp436
asg222
F51.75
sa(dp437
g209
I1
sg210
g5
sg211
F0.0
sg212
I100
sg213
g5
sg214
(lp438
(Vdarth
p439
g217
tp440
a(Vpig
p441
g220
tp442
asg222
I100
sasI44
(lp443
(dp444
g209
F1.0052439499698826
sg210
g5
sg211
F0.005230248343793199
sg212
F44.53846153846154
sg213
g5
sg214
(lp445
(Vfunny
p446
g217
tp447
a(Vstar
p448
g220
tp449
asg222
F44.30612244897959
sasI45
(lp450
(dp451
g209
F0.9572815533980583
sg210
g5
sg211
F-0.04365772662104597
sg212
F58.0
sg213
g5
sg214
(lp452
(Vmany
p453
g217
tp454
a(Vfresh
p455
g217
tp456
asg222
F60.588235294117645
sa(dp457
g209
I1
sg210
g5
sg211
F0.0
sg212
I100
sg213
g5
sg214
(lp458
(Venjoyable
p459
g217
tp460
a(Videas
p461
g327
tp462
asg222
I100
sasI46
(lp463
(dp464
g209
F7.6923076923076925
sg210
g5
sg211
F2.0402208285265546
sg212
I100
sg213
g5
sg214
(lp465
(Vreally
p466
g226
tp467
a(Vexcited
p468
g342
tp469
asg222
F13.0
sa(dp470
g209
F3.125
sg210
g5
sg211
F1.1394342831883648
sg212
I100
sg213
g5
sg214
(lp471
(Veven
p472
g226
tp473
a(Vload
p474
g229
tp475
asg222
F32.0
sa(dp476
g209
F1.017876674870112
sg210
g5
sg211
F0.017718766261362737
sg212
F51.166666666666664
sg213
g5
sg214
(lp477
(Vn't
p478
g226
tp479
a(Vplay
p480
g229
tp481
asg222
F50.2680412371134
sa(dp482
g209
F0.7299270072992701
sg210
g5
sg211
F-0.31481073984003355
sg212
F35.0
sg213
g5
sg214
(lp483
(Vfull
p484
g217
tp485
a(Vgame
p486
g220
tp487
asg222
F47.95
sa(dp488
g209
F1.0160136380774383
sg210
g5
sg211
F0.015886772370763635
sg212
F54.267605633802816
sg213
g5
sg214
(lp489
(Vn't
p490
g226
tp491
a(Vshow
p492
g229
tp493
asg222
F53.41228070175438
sasI47
(lp494
sI48
(lp495
(dp496
g209
I1
sg210
g5
sg211
F0.0
sg212
I100
sg213
g5
sg214
(lp497
(Vaboslutly
p498
g226
tp499
a(Vamazing
p500
g373
tp501
asg222
I100
sa(dp502
g209
I1
sg210
g5
sg211
F0.0
sg212
I100
sg213
g5
sg214
(lp503
(Vlittle
p504
g226
tp505
a(Vanoying
p506
g373
tp507
asg222
I100
sa(dp508
g209
F1.202290612703766
sg210
g5
sg211
F0.18422858118629923
sg212
F60.25
sg213
g5
sg214
(lp509
(Voverall
p510
g217
tp511
a(Vgreat
p512
g217
tp513
asg222
F50.11267605633803
sasI49
(lp514
(dp515
g209
F1.2666666666666666
sg210
g5
sg211
F0.23638877806423034
sg212
F63.333333333333336
sg213
g5
sg214
(lp516
(Vn't
p517
g226
tp518
a(Vgon
p519
g229
tp520
asg222
F50.0
sa(dp521
g209
F1.0899931302953973
sg210
g5
sg211
F0.08617139373990478
sg212
F50.90909090909091
sg213
g5
sg214
(lp522
(VNOT
p523
g226
tp524
a(Vdisappointed
p525
g342
tp526
asg222
F46.705882352941174
sas.